(dp1
S'output'
p2
S"<type 'exceptions.SyntaxError'> keyword can't be an expression (form.py, line 16)"
p3
sS'layer'
p4
S'/web2py/applications/snapcop2/controllers/form.py'
p5
sS'code'
p6
S'# -*- coding: utf-8 -*-\n\ndef form():\n    form=FORM(TABLE(TR("Codification de la souche:",INPUT(_type="text",_name="souche",requires=IS_NOT_EMPTY())),\n                    TR("Substrat:",INPUT(_type="text",_name="substrat",requires=IS_NOT_EMPTY())),\n                    TR("Dur\xc3\xa9e de fermentation:",INPUT(_type="text",_name="ferm",requires=IS_NOT_EMPTY())),\n                    TR("Commentaires",TEXTAREA(_name="profile",value="Ecrivez vos commentaires ici")),\n                    TR("",INPUT(_type="submit",_value="SUBMIT"))))\n    if form.accepts(request,session):\n        response.flash="formulaire accept\xc3\xa9"\n    elif form.errors:\n        response.flash="formulaire invalide"\n    else:\n        response.flash="Remplissez ce formulaire"\n    return dict(form=form,vars=form.vars)\n    return dict(form.vars=0)\n\nresponse._vars=response._caller(form)\n'
p7
sS'snapshot'
p8
(dp9
S'exception'
p10
(dp11
S'__getslice__'
p12
S"<method-wrapper '__getslice__' of exceptions.SyntaxError object>"
p13
sS'text'
p14
S"'return dict(form.vars=0)\\n'"
p15
sS'__str__'
p16
S"<method-wrapper '__str__' of exceptions.SyntaxError object>"
p17
sS'__reduce__'
p18
S'<built-in method __reduce__ of exceptions.SyntaxError object>'
p19
sS'__dict__'
p20
S'{}'
p21
sS'__sizeof__'
p22
S'<built-in method __sizeof__ of exceptions.SyntaxError object>'
p23
sS'__init__'
p24
S"<method-wrapper '__init__' of exceptions.SyntaxError object>"
p25
sS'__setattr__'
p26
S"<method-wrapper '__setattr__' of exceptions.SyntaxError object>"
p27
sS'__reduce_ex__'
p28
S'<built-in method __reduce_ex__ of exceptions.SyntaxError object>'
p29
sS'__new__'
p30
S'<built-in method __new__ of type object>'
p31
sS'__format__'
p32
S'<built-in method __format__ of exceptions.SyntaxError object>'
p33
sS'__class__'
p34
S"<type 'exceptions.SyntaxError'>"
p35
sS'filename'
p36
S"'/web2py/applications/snapcop2/controllers/form.py'"
p37
sS'lineno'
p38
S'16'
p39
sS'msg'
p40
S'"keyword can\'t be an expression"'
p41
sS'__doc__'
p42
S"'Invalid syntax.'"
p43
sS'__getitem__'
p44
S"<method-wrapper '__getitem__' of exceptions.SyntaxError object>"
p45
sS'__setstate__'
p46
S'<built-in method __setstate__ of exceptions.SyntaxError object>'
p47
sS'__getattribute__'
p48
S"<method-wrapper '__getattribute__' of exceptions.SyntaxError object>"
p49
sS'print_file_and_line'
p50
S'None'
p51
sS'args'
p52
S'("keyword can\'t be an expression", (\'/web2py/applications/snapcop2/controllers/form.py\', 16, None, \'return dict(form.vars=0)\\n\'))'
p53
sS'__subclasshook__'
p54
S'<built-in method __subclasshook__ of type object>'
p55
sS'offset'
p56
S'None'
p57
sS'__unicode__'
p58
S'<built-in method __unicode__ of exceptions.SyntaxError object>'
p59
sS'__delattr__'
p60
S"<method-wrapper '__delattr__' of exceptions.SyntaxError object>"
p61
sS'__repr__'
p62
S"<method-wrapper '__repr__' of exceptions.SyntaxError object>"
p63
sS'__hash__'
p64
S"<method-wrapper '__hash__' of exceptions.SyntaxError object>"
p65
ssS'evalue'
p66
S"keyword can't be an expression (form.py, line 16)"
p67
sS'request'
p68
ccopy_reg
_reconstructor
p69
(cgluon.html
BEAUTIFY
p70
c__builtin__
object
p71
NtRp72
(dp73
S'attributes'
p74
(dp75
sS'components'
p76
(lp77
g69
(cgluon.html
TABLE
p78
g71
NtRp79
(dp80
g74
(dp81
S'level'
p82
I5
ssS'parent'
p83
Nsg76
(lp84
g69
(cgluon.html
TR
p85
g71
NtRp86
(dp87
g74
(dp88
sg83
g79
sg76
(lp89
g69
(cgluon.html
TD
p90
g71
NtRp91
(dp92
g74
(dp93
S'_style'
p94
S'font-weight:bold;vertical-align:top'
p95
ssg83
g86
sg76
(lp96
S'ajax'
p97
asbag69
(g90
g71
NtRp98
(dp99
g74
(dp100
S'_valign'
p101
S'top'
p102
ssg83
g86
sg76
(lp103
S':'
asbag69
(g90
g71
NtRp104
(dp105
g74
(dp106
sg83
g86
sg76
(lp107
g69
(g70
g71
NtRp108
(dp109
g74
(dp110
g82
I5
ssg83
g104
sg76
(lp111
S'False'
p112
asbasbasbag69
(g85
g71
NtRp113
(dp114
g74
(dp115
sg83
g79
sg76
(lp116
g69
(g90
g71
NtRp117
(dp118
g74
(dp119
g94
g95
ssg83
g113
sg76
(lp120
S'application'
p121
asbag69
(g90
g71
NtRp122
(dp123
g74
(dp124
g101
g102
ssg83
g113
sg76
(lp125
S':'
asbag69
(g90
g71
NtRp126
(dp127
g74
(dp128
sg83
g113
sg76
(lp129
g69
(g70
g71
NtRp130
(dp131
g74
(dp132
g82
I5
ssg83
g126
sg76
(lp133
S'snapcop2'
p134
asbasbasbag69
(g85
g71
NtRp135
(dp136
g74
(dp137
sg83
g79
sg76
(lp138
g69
(g90
g71
NtRp139
(dp140
g74
(dp141
g94
g95
ssg83
g135
sg76
(lp142
g52
asbag69
(g90
g71
NtRp143
(dp144
g74
(dp145
g101
g102
ssg83
g135
sg76
(lp146
S':'
asbag69
(g90
g71
NtRp147
(dp148
g74
(dp149
sg83
g135
sg76
(lp150
g69
(g70
g71
NtRp151
(dp152
g74
(dp153
g82
I5
ssg83
g147
sg76
(lp154
g69
(g78
g71
NtRp155
(dp156
g74
(dp157
g82
I4
ssg83
Nsg76
(lp158
sbasbasbasbag69
(g85
g71
NtRp159
(dp160
g74
(dp161
sg83
g79
sg76
(lp162
g69
(g90
g71
NtRp163
(dp164
g74
(dp165
g94
g95
ssg83
g159
sg76
(lp166
S'body'
p167
asbag69
(g90
g71
NtRp168
(dp169
g74
(dp170
g101
g102
ssg83
g159
sg76
(lp171
S':'
asbag69
(g90
g71
NtRp172
(dp173
g74
(dp174
sg83
g159
sg76
(lp175
g69
(g70
g71
NtRp176
(dp177
g74
(dp178
g82
I5
ssg83
g172
sg76
(lp179
S"<open file '<fdopen>', mode 'w+b' at 0x7f49dc1818a0>"
p180
asbasbasbag69
(g85
g71
NtRp181
(dp182
g74
(dp183
sg83
g79
sg76
(lp184
g69
(g90
g71
NtRp185
(dp186
g74
(dp187
g94
g95
ssg83
g181
sg76
(lp188
S'client'
p189
asbag69
(g90
g71
NtRp190
(dp191
g74
(dp192
g101
g102
ssg83
g181
sg76
(lp193
S':'
asbag69
(g90
g71
NtRp194
(dp195
g74
(dp196
sg83
g181
sg76
(lp197
g69
(g70
g71
NtRp198
(dp199
g74
(dp200
g82
I5
ssg83
g194
sg76
(lp201
S'127.0.0.1'
p202
asbasbasbag69
(g85
g71
NtRp203
(dp204
g74
(dp205
sg83
g79
sg76
(lp206
g69
(g90
g71
NtRp207
(dp208
g74
(dp209
g94
g95
ssg83
g203
sg76
(lp210
S'controller'
p211
asbag69
(g90
g71
NtRp212
(dp213
g74
(dp214
g101
g102
ssg83
g203
sg76
(lp215
S':'
asbag69
(g90
g71
NtRp216
(dp217
g74
(dp218
sg83
g203
sg76
(lp219
g69
(g70
g71
NtRp220
(dp221
g74
(dp222
g82
I5
ssg83
g216
sg76
(lp223
S'form'
p224
asbasbasbag69
(g85
g71
NtRp225
(dp226
g74
(dp227
sg83
g79
sg76
(lp228
g69
(g90
g71
NtRp229
(dp230
g74
(dp231
g94
g95
ssg83
g225
sg76
(lp232
S'cookies'
p233
asbag69
(g90
g71
NtRp234
(dp235
g74
(dp236
g101
g102
ssg83
g225
sg76
(lp237
S':'
asbag69
(g90
g71
NtRp238
(dp239
g74
(dp240
sg83
g225
sg76
(lp241
g69
(g70
g71
NtRp242
(dp243
g74
(dp244
g82
I5
ssg83
g238
sg76
(lp245
g69
(g78
g71
NtRp246
(dp247
g74
(dp248
g82
I4
ssg83
Nsg76
(lp249
g69
(g85
g71
NtRp250
(dp251
g74
(dp252
sg83
g246
sg76
(lp253
g69
(g90
g71
NtRp254
(dp255
g74
(dp256
g94
g95
ssg83
g250
sg76
(lp257
S'session_id_admin'
p258
asbag69
(g90
g71
NtRp259
(dp260
g74
(dp261
g101
g102
ssg83
g250
sg76
(lp262
S':'
asbag69
(g90
g71
NtRp263
(dp264
g74
(dp265
sg83
g250
sg76
(lp266
g69
(g70
g71
NtRp267
(dp268
g74
(dp269
g82
I4
ssg83
g263
sg76
(lp270
g69
(g78
g71
NtRp271
(dp272
g74
(dp273
g82
I3
ssg83
Nsg76
(lp274
g69
(g85
g71
NtRp275
(dp276
g74
(dp277
sg83
g271
sg76
(lp278
g69
(g90
g71
NtRp279
(dp280
g74
(dp281
g94
g95
ssg83
g275
sg76
(lp282
S'comment'
p283
asbag69
(g90
g71
NtRp284
(dp285
g74
(dp286
g101
g102
ssg83
g275
sg76
(lp287
S':'
asbag69
(g90
g71
NtRp288
(dp289
g74
(dp290
sg83
g275
sg76
(lp291
g69
(g70
g71
NtRp292
(dp293
g74
(dp294
g82
I3
ssg83
g288
sg76
(lp295
S''
asbasbasbag69
(g85
g71
NtRp296
(dp297
g74
(dp298
sg83
g271
sg76
(lp299
g69
(g90
g71
NtRp300
(dp301
g74
(dp302
g94
g95
ssg83
g296
sg76
(lp303
S'domain'
p304
asbag69
(g90
g71
NtRp305
(dp306
g74
(dp307
g101
g102
ssg83
g296
sg76
(lp308
S':'
asbag69
(g90
g71
NtRp309
(dp310
g74
(dp311
sg83
g296
sg76
(lp312
g69
(g70
g71
NtRp313
(dp314
g74
(dp315
g82
I3
ssg83
g309
sg76
(lp316
S''
asbasbasbag69
(g85
g71
NtRp317
(dp318
g74
(dp319
sg83
g271
sg76
(lp320
g69
(g90
g71
NtRp321
(dp322
g74
(dp323
g94
g95
ssg83
g317
sg76
(lp324
S'expires'
p325
asbag69
(g90
g71
NtRp326
(dp327
g74
(dp328
g101
g102
ssg83
g317
sg76
(lp329
S':'
asbag69
(g90
g71
NtRp330
(dp331
g74
(dp332
sg83
g317
sg76
(lp333
g69
(g70
g71
NtRp334
(dp335
g74
(dp336
g82
I3
ssg83
g330
sg76
(lp337
S''
asbasbasbag69
(g85
g71
NtRp338
(dp339
g74
(dp340
sg83
g271
sg76
(lp341
g69
(g90
g71
NtRp342
(dp343
g74
(dp344
g94
g95
ssg83
g338
sg76
(lp345
S'httponly'
p346
asbag69
(g90
g71
NtRp347
(dp348
g74
(dp349
g101
g102
ssg83
g338
sg76
(lp350
S':'
asbag69
(g90
g71
NtRp351
(dp352
g74
(dp353
sg83
g338
sg76
(lp354
g69
(g70
g71
NtRp355
(dp356
g74
(dp357
g82
I3
ssg83
g351
sg76
(lp358
S''
asbasbasbag69
(g85
g71
NtRp359
(dp360
g74
(dp361
sg83
g271
sg76
(lp362
g69
(g90
g71
NtRp363
(dp364
g74
(dp365
g94
g95
ssg83
g359
sg76
(lp366
S'max-age'
p367
asbag69
(g90
g71
NtRp368
(dp369
g74
(dp370
g101
g102
ssg83
g359
sg76
(lp371
S':'
asbag69
(g90
g71
NtRp372
(dp373
g74
(dp374
sg83
g359
sg76
(lp375
g69
(g70
g71
NtRp376
(dp377
g74
(dp378
g82
I3
ssg83
g372
sg76
(lp379
S''
asbasbasbag69
(g85
g71
NtRp380
(dp381
g74
(dp382
sg83
g271
sg76
(lp383
g69
(g90
g71
NtRp384
(dp385
g74
(dp386
g94
g95
ssg83
g380
sg76
(lp387
S'path'
p388
asbag69
(g90
g71
NtRp389
(dp390
g74
(dp391
g101
g102
ssg83
g380
sg76
(lp392
S':'
asbag69
(g90
g71
NtRp393
(dp394
g74
(dp395
sg83
g380
sg76
(lp396
g69
(g70
g71
NtRp397
(dp398
g74
(dp399
g82
I3
ssg83
g393
sg76
(lp400
S''
asbasbasbag69
(g85
g71
NtRp401
(dp402
g74
(dp403
sg83
g271
sg76
(lp404
g69
(g90
g71
NtRp405
(dp406
g74
(dp407
g94
g95
ssg83
g401
sg76
(lp408
S'secure'
p409
asbag69
(g90
g71
NtRp410
(dp411
g74
(dp412
g101
g102
ssg83
g401
sg76
(lp413
S':'
asbag69
(g90
g71
NtRp414
(dp415
g74
(dp416
sg83
g401
sg76
(lp417
g69
(g70
g71
NtRp418
(dp419
g74
(dp420
g82
I3
ssg83
g414
sg76
(lp421
S''
asbasbasbag69
(g85
g71
NtRp422
(dp423
g74
(dp424
sg83
g271
sg76
(lp425
g69
(g90
g71
NtRp426
(dp427
g74
(dp428
g94
g95
ssg83
g422
sg76
(lp429
S'version'
p430
asbag69
(g90
g71
NtRp431
(dp432
g74
(dp433
g101
g102
ssg83
g422
sg76
(lp434
S':'
asbag69
(g90
g71
NtRp435
(dp436
g74
(dp437
sg83
g422
sg76
(lp438
g69
(g70
g71
NtRp439
(dp440
g74
(dp441
g82
I3
ssg83
g435
sg76
(lp442
S''
asbasbasbasbasbasbasbag69
(g85
g71
NtRp443
(dp444
g74
(dp445
sg83
g246
sg76
(lp446
g69
(g90
g71
NtRp447
(dp448
g74
(dp449
g94
g95
ssg83
g443
sg76
(lp450
S'session_id_snapcop2'
p451
asbag69
(g90
g71
NtRp452
(dp453
g74
(dp454
g101
g102
ssg83
g443
sg76
(lp455
S':'
asbag69
(g90
g71
NtRp456
(dp457
g74
(dp458
sg83
g443
sg76
(lp459
g69
(g70
g71
NtRp460
(dp461
g74
(dp462
g82
I4
ssg83
g456
sg76
(lp463
g69
(g78
g71
NtRp464
(dp465
g74
(dp466
g82
I3
ssg83
Nsg76
(lp467
g69
(g85
g71
NtRp468
(dp469
g74
(dp470
sg83
g464
sg76
(lp471
g69
(g90
g71
NtRp472
(dp473
g74
(dp474
g94
g95
ssg83
g468
sg76
(lp475
g283
asbag69
(g90
g71
NtRp476
(dp477
g74
(dp478
g101
g102
ssg83
g468
sg76
(lp479
S':'
asbag69
(g90
g71
NtRp480
(dp481
g74
(dp482
sg83
g468
sg76
(lp483
g69
(g70
g71
NtRp484
(dp485
g74
(dp486
g82
I3
ssg83
g480
sg76
(lp487
S''
asbasbasbag69
(g85
g71
NtRp488
(dp489
g74
(dp490
sg83
g464
sg76
(lp491
g69
(g90
g71
NtRp492
(dp493
g74
(dp494
g94
g95
ssg83
g488
sg76
(lp495
g304
asbag69
(g90
g71
NtRp496
(dp497
g74
(dp498
g101
g102
ssg83
g488
sg76
(lp499
S':'
asbag69
(g90
g71
NtRp500
(dp501
g74
(dp502
sg83
g488
sg76
(lp503
g69
(g70
g71
NtRp504
(dp505
g74
(dp506
g82
I3
ssg83
g500
sg76
(lp507
S''
asbasbasbag69
(g85
g71
NtRp508
(dp509
g74
(dp510
sg83
g464
sg76
(lp511
g69
(g90
g71
NtRp512
(dp513
g74
(dp514
g94
g95
ssg83
g508
sg76
(lp515
g325
asbag69
(g90
g71
NtRp516
(dp517
g74
(dp518
g101
g102
ssg83
g508
sg76
(lp519
S':'
asbag69
(g90
g71
NtRp520
(dp521
g74
(dp522
sg83
g508
sg76
(lp523
g69
(g70
g71
NtRp524
(dp525
g74
(dp526
g82
I3
ssg83
g520
sg76
(lp527
S''
asbasbasbag69
(g85
g71
NtRp528
(dp529
g74
(dp530
sg83
g464
sg76
(lp531
g69
(g90
g71
NtRp532
(dp533
g74
(dp534
g94
g95
ssg83
g528
sg76
(lp535
g346
asbag69
(g90
g71
NtRp536
(dp537
g74
(dp538
g101
g102
ssg83
g528
sg76
(lp539
S':'
asbag69
(g90
g71
NtRp540
(dp541
g74
(dp542
sg83
g528
sg76
(lp543
g69
(g70
g71
NtRp544
(dp545
g74
(dp546
g82
I3
ssg83
g540
sg76
(lp547
S''
asbasbasbag69
(g85
g71
NtRp548
(dp549
g74
(dp550
sg83
g464
sg76
(lp551
g69
(g90
g71
NtRp552
(dp553
g74
(dp554
g94
g95
ssg83
g548
sg76
(lp555
g367
asbag69
(g90
g71
NtRp556
(dp557
g74
(dp558
g101
g102
ssg83
g548
sg76
(lp559
S':'
asbag69
(g90
g71
NtRp560
(dp561
g74
(dp562
sg83
g548
sg76
(lp563
g69
(g70
g71
NtRp564
(dp565
g74
(dp566
g82
I3
ssg83
g560
sg76
(lp567
S''
asbasbasbag69
(g85
g71
NtRp568
(dp569
g74
(dp570
sg83
g464
sg76
(lp571
g69
(g90
g71
NtRp572
(dp573
g74
(dp574
g94
g95
ssg83
g568
sg76
(lp575
g388
asbag69
(g90
g71
NtRp576
(dp577
g74
(dp578
g101
g102
ssg83
g568
sg76
(lp579
S':'
asbag69
(g90
g71
NtRp580
(dp581
g74
(dp582
sg83
g568
sg76
(lp583
g69
(g70
g71
NtRp584
(dp585
g74
(dp586
g82
I3
ssg83
g580
sg76
(lp587
S''
asbasbasbag69
(g85
g71
NtRp588
(dp589
g74
(dp590
sg83
g464
sg76
(lp591
g69
(g90
g71
NtRp592
(dp593
g74
(dp594
g94
g95
ssg83
g588
sg76
(lp595
g409
asbag69
(g90
g71
NtRp596
(dp597
g74
(dp598
g101
g102
ssg83
g588
sg76
(lp599
S':'
asbag69
(g90
g71
NtRp600
(dp601
g74
(dp602
sg83
g588
sg76
(lp603
g69
(g70
g71
NtRp604
(dp605
g74
(dp606
g82
I3
ssg83
g600
sg76
(lp607
S''
asbasbasbag69
(g85
g71
NtRp608
(dp609
g74
(dp610
sg83
g464
sg76
(lp611
g69
(g90
g71
NtRp612
(dp613
g74
(dp614
g94
g95
ssg83
g608
sg76
(lp615
g430
asbag69
(g90
g71
NtRp616
(dp617
g74
(dp618
g101
g102
ssg83
g608
sg76
(lp619
S':'
asbag69
(g90
g71
NtRp620
(dp621
g74
(dp622
sg83
g608
sg76
(lp623
g69
(g70
g71
NtRp624
(dp625
g74
(dp626
g82
I3
ssg83
g620
sg76
(lp627
S''
asbasbasbasbasbasbasbag69
(g85
g71
NtRp628
(dp629
g74
(dp630
sg83
g246
sg76
(lp631
g69
(g90
g71
NtRp632
(dp633
g74
(dp634
g94
g95
ssg83
g628
sg76
(lp635
S'session_id_welcome'
p636
asbag69
(g90
g71
NtRp637
(dp638
g74
(dp639
g101
g102
ssg83
g628
sg76
(lp640
S':'
asbag69
(g90
g71
NtRp641
(dp642
g74
(dp643
sg83
g628
sg76
(lp644
g69
(g70
g71
NtRp645
(dp646
g74
(dp647
g82
I4
ssg83
g641
sg76
(lp648
g69
(g78
g71
NtRp649
(dp650
g74
(dp651
g82
I3
ssg83
Nsg76
(lp652
g69
(g85
g71
NtRp653
(dp654
g74
(dp655
sg83
g649
sg76
(lp656
g69
(g90
g71
NtRp657
(dp658
g74
(dp659
g94
g95
ssg83
g653
sg76
(lp660
g283
asbag69
(g90
g71
NtRp661
(dp662
g74
(dp663
g101
g102
ssg83
g653
sg76
(lp664
S':'
asbag69
(g90
g71
NtRp665
(dp666
g74
(dp667
sg83
g653
sg76
(lp668
g69
(g70
g71
NtRp669
(dp670
g74
(dp671
g82
I3
ssg83
g665
sg76
(lp672
S''
asbasbasbag69
(g85
g71
NtRp673
(dp674
g74
(dp675
sg83
g649
sg76
(lp676
g69
(g90
g71
NtRp677
(dp678
g74
(dp679
g94
g95
ssg83
g673
sg76
(lp680
g304
asbag69
(g90
g71
NtRp681
(dp682
g74
(dp683
g101
g102
ssg83
g673
sg76
(lp684
S':'
asbag69
(g90
g71
NtRp685
(dp686
g74
(dp687
sg83
g673
sg76
(lp688
g69
(g70
g71
NtRp689
(dp690
g74
(dp691
g82
I3
ssg83
g685
sg76
(lp692
S''
asbasbasbag69
(g85
g71
NtRp693
(dp694
g74
(dp695
sg83
g649
sg76
(lp696
g69
(g90
g71
NtRp697
(dp698
g74
(dp699
g94
g95
ssg83
g693
sg76
(lp700
g325
asbag69
(g90
g71
NtRp701
(dp702
g74
(dp703
g101
g102
ssg83
g693
sg76
(lp704
S':'
asbag69
(g90
g71
NtRp705
(dp706
g74
(dp707
sg83
g693
sg76
(lp708
g69
(g70
g71
NtRp709
(dp710
g74
(dp711
g82
I3
ssg83
g705
sg76
(lp712
S''
asbasbasbag69
(g85
g71
NtRp713
(dp714
g74
(dp715
sg83
g649
sg76
(lp716
g69
(g90
g71
NtRp717
(dp718
g74
(dp719
g94
g95
ssg83
g713
sg76
(lp720
g346
asbag69
(g90
g71
NtRp721
(dp722
g74
(dp723
g101
g102
ssg83
g713
sg76
(lp724
S':'
asbag69
(g90
g71
NtRp725
(dp726
g74
(dp727
sg83
g713
sg76
(lp728
g69
(g70
g71
NtRp729
(dp730
g74
(dp731
g82
I3
ssg83
g725
sg76
(lp732
S''
asbasbasbag69
(g85
g71
NtRp733
(dp734
g74
(dp735
sg83
g649
sg76
(lp736
g69
(g90
g71
NtRp737
(dp738
g74
(dp739
g94
g95
ssg83
g733
sg76
(lp740
g367
asbag69
(g90
g71
NtRp741
(dp742
g74
(dp743
g101
g102
ssg83
g733
sg76
(lp744
S':'
asbag69
(g90
g71
NtRp745
(dp746
g74
(dp747
sg83
g733
sg76
(lp748
g69
(g70
g71
NtRp749
(dp750
g74
(dp751
g82
I3
ssg83
g745
sg76
(lp752
S''
asbasbasbag69
(g85
g71
NtRp753
(dp754
g74
(dp755
sg83
g649
sg76
(lp756
g69
(g90
g71
NtRp757
(dp758
g74
(dp759
g94
g95
ssg83
g753
sg76
(lp760
g388
asbag69
(g90
g71
NtRp761
(dp762
g74
(dp763
g101
g102
ssg83
g753
sg76
(lp764
S':'
asbag69
(g90
g71
NtRp765
(dp766
g74
(dp767
sg83
g753
sg76
(lp768
g69
(g70
g71
NtRp769
(dp770
g74
(dp771
g82
I3
ssg83
g765
sg76
(lp772
S''
asbasbasbag69
(g85
g71
NtRp773
(dp774
g74
(dp775
sg83
g649
sg76
(lp776
g69
(g90
g71
NtRp777
(dp778
g74
(dp779
g94
g95
ssg83
g773
sg76
(lp780
g409
asbag69
(g90
g71
NtRp781
(dp782
g74
(dp783
g101
g102
ssg83
g773
sg76
(lp784
S':'
asbag69
(g90
g71
NtRp785
(dp786
g74
(dp787
sg83
g773
sg76
(lp788
g69
(g70
g71
NtRp789
(dp790
g74
(dp791
g82
I3
ssg83
g785
sg76
(lp792
S''
asbasbasbag69
(g85
g71
NtRp793
(dp794
g74
(dp795
sg83
g649
sg76
(lp796
g69
(g90
g71
NtRp797
(dp798
g74
(dp799
g94
g95
ssg83
g793
sg76
(lp800
g430
asbag69
(g90
g71
NtRp801
(dp802
g74
(dp803
g101
g102
ssg83
g793
sg76
(lp804
S':'
asbag69
(g90
g71
NtRp805
(dp806
g74
(dp807
sg83
g793
sg76
(lp808
g69
(g70
g71
NtRp809
(dp810
g74
(dp811
g82
I3
ssg83
g805
sg76
(lp812
S''
asbasbasbasbasbasbasbasbasbasbasbag69
(g85
g71
NtRp813
(dp814
g74
(dp815
sg83
g79
sg76
(lp816
g69
(g90
g71
NtRp817
(dp818
g74
(dp819
g94
g95
ssg83
g813
sg76
(lp820
S'env'
p821
asbag69
(g90
g71
NtRp822
(dp823
g74
(dp824
g101
g102
ssg83
g813
sg76
(lp825
S':'
asbag69
(g90
g71
NtRp826
(dp827
g74
(dp828
sg83
g813
sg76
(lp829
g69
(g70
g71
NtRp830
(dp831
g74
(dp832
g82
I5
ssg83
g826
sg76
(lp833
g69
(g78
g71
NtRp834
(dp835
g74
(dp836
g82
I4
ssg83
Nsg76
(lp837
g69
(g85
g71
NtRp838
(dp839
g74
(dp840
sg83
g834
sg76
(lp841
g69
(g90
g71
NtRp842
(dp843
g74
(dp844
g94
g95
ssg83
g838
sg76
(lp845
S'app_folders'
p846
asbag69
(g90
g71
NtRp847
(dp848
g74
(dp849
g101
g102
ssg83
g838
sg76
(lp850
S':'
asbag69
(g90
g71
NtRp851
(dp852
g74
(dp853
sg83
g838
sg76
(lp854
g69
(g70
g71
NtRp855
(dp856
g74
(dp857
g82
I4
ssg83
g851
sg76
(lp858
S"set(['/web2py/applications/admin/', '/web2py/applications/welcome/', '/web2py/applications/snapcop2/'])"
p859
asbasbasbag69
(g85
g71
NtRp860
(dp861
g74
(dp862
sg83
g834
sg76
(lp863
g69
(g90
g71
NtRp864
(dp865
g74
(dp866
g94
g95
ssg83
g860
sg76
(lp867
S'applications_parent'
p868
asbag69
(g90
g71
NtRp869
(dp870
g74
(dp871
g101
g102
ssg83
g860
sg76
(lp872
S':'
asbag69
(g90
g71
NtRp873
(dp874
g74
(dp875
sg83
g860
sg76
(lp876
g69
(g70
g71
NtRp877
(dp878
g74
(dp879
g82
I4
ssg83
g873
sg76
(lp880
S'/web2py'
p881
asbasbasbag69
(g85
g71
NtRp882
(dp883
g74
(dp884
sg83
g834
sg76
(lp885
g69
(g90
g71
NtRp886
(dp887
g74
(dp888
g94
g95
ssg83
g882
sg76
(lp889
S'cmd_args'
p890
asbag69
(g90
g71
NtRp891
(dp892
g74
(dp893
g101
g102
ssg83
g882
sg76
(lp894
S':'
asbag69
(g90
g71
NtRp895
(dp896
g74
(dp897
sg83
g882
sg76
(lp898
g69
(g70
g71
NtRp899
(dp900
g74
(dp901
g82
I4
ssg83
g895
sg76
(lp902
g69
(g78
g71
NtRp903
(dp904
g74
(dp905
g82
I3
ssg83
Nsg76
(lp906
sbasbasbasbag69
(g85
g71
NtRp907
(dp908
g74
(dp909
sg83
g834
sg76
(lp910
g69
(g90
g71
NtRp911
(dp912
g74
(dp913
g94
g95
ssg83
g907
sg76
(lp914
S'cmd_options'
p915
asbag69
(g90
g71
NtRp916
(dp917
g74
(dp918
g101
g102
ssg83
g907
sg76
(lp919
S':'
asbag69
(g90
g71
NtRp920
(dp921
g74
(dp922
sg83
g907
sg76
(lp923
g69
(g70
g71
NtRp924
(dp925
g74
(dp926
g82
I4
ssg83
g920
sg76
(lp927
S"<Values at 0x2f62680: {'verbose': False, 'ip': '127.0.0.1', 'shutdown_timeout': 5, 'taskbar': False, 'nocron': False, 'pid_filename': 'httpserver.pid', 'maxthreads': None, 'softcron': False, 'server_name': 'declic-pc', 'bpython': False, 'nogui': False, 'port': 8000, 'extcron': False, 'debuglevel': 30, 'test': None, 'folder': '/web2py', 'config': '', 'import_models': False, 'winservice': '', 'shell': None, 'run': '', 'log_filename': 'httpserver.log', 'args': [''], 'socket_timeout': 5, 'ssl_ca_certificate': None, 'scheduler': None, 'profiler_filename': None, 'ssl_private_key': '', 'password': 'photos10', 'request_queue_size': 5, 'ssl_certificate': '', 'cronjob': False, 'numthreads': None, 'quiet': False, 'interfaces': None, 'minthreads': None, 'timeout': 10, 'plain': False, 'nobanner': False}>"
p928
asbasbasbag69
(g85
g71
NtRp929
(dp930
g74
(dp931
sg83
g834
sg76
(lp932
g69
(g90
g71
NtRp933
(dp934
g74
(dp935
g94
g95
ssg83
g929
sg76
(lp936
S'content_length'
p937
asbag69
(g90
g71
NtRp938
(dp939
g74
(dp940
g101
g102
ssg83
g929
sg76
(lp941
S':'
asbag69
(g90
g71
NtRp942
(dp943
g74
(dp944
sg83
g929
sg76
(lp945
g69
(g70
g71
NtRp946
(dp947
g74
(dp948
g82
I4
ssg83
g942
sg76
(lp949
S'816'
p950
asbasbasbag69
(g85
g71
NtRp951
(dp952
g74
(dp953
sg83
g834
sg76
(lp954
g69
(g90
g71
NtRp955
(dp956
g74
(dp957
g94
g95
ssg83
g951
sg76
(lp958
S'content_type'
p959
asbag69
(g90
g71
NtRp960
(dp961
g74
(dp962
g101
g102
ssg83
g951
sg76
(lp963
S':'
asbag69
(g90
g71
NtRp964
(dp965
g74
(dp966
sg83
g951
sg76
(lp967
g69
(g70
g71
NtRp968
(dp969
g74
(dp970
g82
I4
ssg83
g964
sg76
(lp971
S'multipart/form-data; boundary=---------------------------104111223113854957201444130305'
p972
asbasbasbag69
(g85
g71
NtRp973
(dp974
g74
(dp975
sg83
g834
sg76
(lp976
g69
(g90
g71
NtRp977
(dp978
g74
(dp979
g94
g95
ssg83
g973
sg76
(lp980
S'db_sessions'
p981
asbag69
(g90
g71
NtRp982
(dp983
g74
(dp984
g101
g102
ssg83
g973
sg76
(lp985
S':'
asbag69
(g90
g71
NtRp986
(dp987
g74
(dp988
sg83
g973
sg76
(lp989
g69
(g70
g71
NtRp990
(dp991
g74
(dp992
g82
I4
ssg83
g986
sg76
(lp993
S'set([])'
p994
asbasbasbag69
(g85
g71
NtRp995
(dp996
g74
(dp997
sg83
g834
sg76
(lp998
g69
(g90
g71
NtRp999
(dp1000
g74
(dp1001
g94
g95
ssg83
g995
sg76
(lp1002
S'debugging'
p1003
asbag69
(g90
g71
NtRp1004
(dp1005
g74
(dp1006
g101
g102
ssg83
g995
sg76
(lp1007
S':'
asbag69
(g90
g71
NtRp1008
(dp1009
g74
(dp1010
sg83
g995
sg76
(lp1011
g69
(g70
g71
NtRp1012
(dp1013
g74
(dp1014
g82
I4
ssg83
g1008
sg76
(lp1015
g112
asbasbasbag69
(g85
g71
NtRp1016
(dp1017
g74
(dp1018
sg83
g834
sg76
(lp1019
g69
(g90
g71
NtRp1020
(dp1021
g74
(dp1022
g94
g95
ssg83
g1016
sg76
(lp1023
S'gluon_parent'
p1024
asbag69
(g90
g71
NtRp1025
(dp1026
g74
(dp1027
g101
g102
ssg83
g1016
sg76
(lp1028
S':'
asbag69
(g90
g71
NtRp1029
(dp1030
g74
(dp1031
sg83
g1016
sg76
(lp1032
g69
(g70
g71
NtRp1033
(dp1034
g74
(dp1035
g82
I4
ssg83
g1029
sg76
(lp1036
S'/web2py'
p1037
asbasbasbag69
(g85
g71
NtRp1038
(dp1039
g74
(dp1040
sg83
g834
sg76
(lp1041
g69
(g90
g71
NtRp1042
(dp1043
g74
(dp1044
g94
g95
ssg83
g1038
sg76
(lp1045
S'http_accept'
p1046
asbag69
(g90
g71
NtRp1047
(dp1048
g74
(dp1049
g101
g102
ssg83
g1038
sg76
(lp1050
S':'
asbag69
(g90
g71
NtRp1051
(dp1052
g74
(dp1053
sg83
g1038
sg76
(lp1054
g69
(g70
g71
NtRp1055
(dp1056
g74
(dp1057
g82
I4
ssg83
g1051
sg76
(lp1058
S'text/html,application/xhtml+xml,application/xml;q=0.9,*/*;q=0.8'
p1059
asbasbasbag69
(g85
g71
NtRp1060
(dp1061
g74
(dp1062
sg83
g834
sg76
(lp1063
g69
(g90
g71
NtRp1064
(dp1065
g74
(dp1066
g94
g95
ssg83
g1060
sg76
(lp1067
S'http_accept_encoding'
p1068
asbag69
(g90
g71
NtRp1069
(dp1070
g74
(dp1071
g101
g102
ssg83
g1060
sg76
(lp1072
S':'
asbag69
(g90
g71
NtRp1073
(dp1074
g74
(dp1075
sg83
g1060
sg76
(lp1076
g69
(g70
g71
NtRp1077
(dp1078
g74
(dp1079
g82
I4
ssg83
g1073
sg76
(lp1080
S'gzip, deflate'
p1081
asbasbasbag69
(g85
g71
NtRp1082
(dp1083
g74
(dp1084
sg83
g834
sg76
(lp1085
g69
(g90
g71
NtRp1086
(dp1087
g74
(dp1088
g94
g95
ssg83
g1082
sg76
(lp1089
S'http_accept_language'
p1090
asbag69
(g90
g71
NtRp1091
(dp1092
g74
(dp1093
g101
g102
ssg83
g1082
sg76
(lp1094
S':'
asbag69
(g90
g71
NtRp1095
(dp1096
g74
(dp1097
sg83
g1082
sg76
(lp1098
g69
(g70
g71
NtRp1099
(dp1100
g74
(dp1101
g82
I4
ssg83
g1095
sg76
(lp1102
S'fr,fr-fr;q=0.8,en-us;q=0.5,en;q=0.3'
p1103
asbasbasbag69
(g85
g71
NtRp1104
(dp1105
g74
(dp1106
sg83
g834
sg76
(lp1107
g69
(g90
g71
NtRp1108
(dp1109
g74
(dp1110
g94
g95
ssg83
g1104
sg76
(lp1111
S'http_cache_control'
p1112
asbag69
(g90
g71
NtRp1113
(dp1114
g74
(dp1115
g101
g102
ssg83
g1104
sg76
(lp1116
S':'
asbag69
(g90
g71
NtRp1117
(dp1118
g74
(dp1119
sg83
g1104
sg76
(lp1120
g69
(g70
g71
NtRp1121
(dp1122
g74
(dp1123
g82
I4
ssg83
g1117
sg76
(lp1124
S'max-age=0'
p1125
asbasbasbag69
(g85
g71
NtRp1126
(dp1127
g74
(dp1128
sg83
g834
sg76
(lp1129
g69
(g90
g71
NtRp1130
(dp1131
g74
(dp1132
g94
g95
ssg83
g1126
sg76
(lp1133
S'http_connection'
p1134
asbag69
(g90
g71
NtRp1135
(dp1136
g74
(dp1137
g101
g102
ssg83
g1126
sg76
(lp1138
S':'
asbag69
(g90
g71
NtRp1139
(dp1140
g74
(dp1141
sg83
g1126
sg76
(lp1142
g69
(g70
g71
NtRp1143
(dp1144
g74
(dp1145
g82
I4
ssg83
g1139
sg76
(lp1146
S'keep-alive'
p1147
asbasbasbag69
(g85
g71
NtRp1148
(dp1149
g74
(dp1150
sg83
g834
sg76
(lp1151
g69
(g90
g71
NtRp1152
(dp1153
g74
(dp1154
g94
g95
ssg83
g1148
sg76
(lp1155
S'http_content_length'
p1156
asbag69
(g90
g71
NtRp1157
(dp1158
g74
(dp1159
g101
g102
ssg83
g1148
sg76
(lp1160
S':'
asbag69
(g90
g71
NtRp1161
(dp1162
g74
(dp1163
sg83
g1148
sg76
(lp1164
g69
(g70
g71
NtRp1165
(dp1166
g74
(dp1167
g82
I4
ssg83
g1161
sg76
(lp1168
g950
asbasbasbag69
(g85
g71
NtRp1169
(dp1170
g74
(dp1171
sg83
g834
sg76
(lp1172
g69
(g90
g71
NtRp1173
(dp1174
g74
(dp1175
g94
g95
ssg83
g1169
sg76
(lp1176
S'http_content_type'
p1177
asbag69
(g90
g71
NtRp1178
(dp1179
g74
(dp1180
g101
g102
ssg83
g1169
sg76
(lp1181
S':'
asbag69
(g90
g71
NtRp1182
(dp1183
g74
(dp1184
sg83
g1169
sg76
(lp1185
g69
(g70
g71
NtRp1186
(dp1187
g74
(dp1188
g82
I4
ssg83
g1182
sg76
(lp1189
g972
asbasbasbag69
(g85
g71
NtRp1190
(dp1191
g74
(dp1192
sg83
g834
sg76
(lp1193
g69
(g90
g71
NtRp1194
(dp1195
g74
(dp1196
g94
g95
ssg83
g1190
sg76
(lp1197
S'http_cookie'
p1198
asbag69
(g90
g71
NtRp1199
(dp1200
g74
(dp1201
g101
g102
ssg83
g1190
sg76
(lp1202
S':'
asbag69
(g90
g71
NtRp1203
(dp1204
g74
(dp1205
sg83
g1190
sg76
(lp1206
g69
(g70
g71
NtRp1207
(dp1208
g74
(dp1209
g82
I4
ssg83
g1203
sg76
(lp1210
S'session_id_welcome=127.0.0.1-a8bcafbc-45f6-4ba0-98e1-6be63f0a0fc3; session_id_admin=127.0.0.1-43762b74-1a5a-44ad-a373-f87d82a464fe; session_id_snapcop2=127.0.0.1-0073d425-a119-4e19-84f5-89d928efdc66'
p1211
asbasbasbag69
(g85
g71
NtRp1212
(dp1213
g74
(dp1214
sg83
g834
sg76
(lp1215
g69
(g90
g71
NtRp1216
(dp1217
g74
(dp1218
g94
g95
ssg83
g1212
sg76
(lp1219
S'http_host'
p1220
asbag69
(g90
g71
NtRp1221
(dp1222
g74
(dp1223
g101
g102
ssg83
g1212
sg76
(lp1224
S':'
asbag69
(g90
g71
NtRp1225
(dp1226
g74
(dp1227
sg83
g1212
sg76
(lp1228
g69
(g70
g71
NtRp1229
(dp1230
g74
(dp1231
g82
I4
ssg83
g1225
sg76
(lp1232
S'127.0.0.1:8000'
p1233
asbasbasbag69
(g85
g71
NtRp1234
(dp1235
g74
(dp1236
sg83
g834
sg76
(lp1237
g69
(g90
g71
NtRp1238
(dp1239
g74
(dp1240
g94
g95
ssg83
g1234
sg76
(lp1241
S'http_referer'
p1242
asbag69
(g90
g71
NtRp1243
(dp1244
g74
(dp1245
g101
g102
ssg83
g1234
sg76
(lp1246
S':'
asbag69
(g90
g71
NtRp1247
(dp1248
g74
(dp1249
sg83
g1234
sg76
(lp1250
g69
(g70
g71
NtRp1251
(dp1252
g74
(dp1253
g82
I4
ssg83
g1247
sg76
(lp1254
S'http://127.0.0.1:8000/snapcop2/form/form'
p1255
asbasbasbag69
(g85
g71
NtRp1256
(dp1257
g74
(dp1258
sg83
g834
sg76
(lp1259
g69
(g90
g71
NtRp1260
(dp1261
g74
(dp1262
g94
g95
ssg83
g1256
sg76
(lp1263
S'http_user_agent'
p1264
asbag69
(g90
g71
NtRp1265
(dp1266
g74
(dp1267
g101
g102
ssg83
g1256
sg76
(lp1268
S':'
asbag69
(g90
g71
NtRp1269
(dp1270
g74
(dp1271
sg83
g1256
sg76
(lp1272
g69
(g70
g71
NtRp1273
(dp1274
g74
(dp1275
g82
I4
ssg83
g1269
sg76
(lp1276
S'Mozilla/5.0 (X11; Ubuntu; Linux x86_64; rv:14.0) Gecko/20100101 Firefox/14.0.1'
p1277
asbasbasbag69
(g85
g71
NtRp1278
(dp1279
g74
(dp1280
sg83
g834
sg76
(lp1281
g69
(g90
g71
NtRp1282
(dp1283
g74
(dp1284
g94
g95
ssg83
g1278
sg76
(lp1285
S'is_jython'
p1286
asbag69
(g90
g71
NtRp1287
(dp1288
g74
(dp1289
g101
g102
ssg83
g1278
sg76
(lp1290
S':'
asbag69
(g90
g71
NtRp1291
(dp1292
g74
(dp1293
sg83
g1278
sg76
(lp1294
g69
(g70
g71
NtRp1295
(dp1296
g74
(dp1297
g82
I4
ssg83
g1291
sg76
(lp1298
g112
asbasbasbag69
(g85
g71
NtRp1299
(dp1300
g74
(dp1301
sg83
g834
sg76
(lp1302
g69
(g90
g71
NtRp1303
(dp1304
g74
(dp1305
g94
g95
ssg83
g1299
sg76
(lp1306
S'is_pypy'
p1307
asbag69
(g90
g71
NtRp1308
(dp1309
g74
(dp1310
g101
g102
ssg83
g1299
sg76
(lp1311
S':'
asbag69
(g90
g71
NtRp1312
(dp1313
g74
(dp1314
sg83
g1299
sg76
(lp1315
g69
(g70
g71
NtRp1316
(dp1317
g74
(dp1318
g82
I4
ssg83
g1312
sg76
(lp1319
g112
asbasbasbag69
(g85
g71
NtRp1320
(dp1321
g74
(dp1322
sg83
g834
sg76
(lp1323
g69
(g90
g71
NtRp1324
(dp1325
g74
(dp1326
g94
g95
ssg83
g1320
sg76
(lp1327
S'path_info'
p1328
asbag69
(g90
g71
NtRp1329
(dp1330
g74
(dp1331
g101
g102
ssg83
g1320
sg76
(lp1332
S':'
asbag69
(g90
g71
NtRp1333
(dp1334
g74
(dp1335
sg83
g1320
sg76
(lp1336
g69
(g70
g71
NtRp1337
(dp1338
g74
(dp1339
g82
I4
ssg83
g1333
sg76
(lp1340
S'/snapcop2/form/form'
p1341
asbasbasbag69
(g85
g71
NtRp1342
(dp1343
g74
(dp1344
sg83
g834
sg76
(lp1345
g69
(g90
g71
NtRp1346
(dp1347
g74
(dp1348
g94
g95
ssg83
g1342
sg76
(lp1349
S'query_string'
p1350
asbag69
(g90
g71
NtRp1351
(dp1352
g74
(dp1353
g101
g102
ssg83
g1342
sg76
(lp1354
S':'
asbag69
(g90
g71
NtRp1355
(dp1356
g74
(dp1357
sg83
g1342
sg76
(lp1358
g69
(g70
g71
NtRp1359
(dp1360
g74
(dp1361
g82
I4
ssg83
g1355
sg76
(lp1362
S''
asbasbasbag69
(g85
g71
NtRp1363
(dp1364
g74
(dp1365
sg83
g834
sg76
(lp1366
g69
(g90
g71
NtRp1367
(dp1368
g74
(dp1369
g94
g95
ssg83
g1363
sg76
(lp1370
S'remote_addr'
p1371
asbag69
(g90
g71
NtRp1372
(dp1373
g74
(dp1374
g101
g102
ssg83
g1363
sg76
(lp1375
S':'
asbag69
(g90
g71
NtRp1376
(dp1377
g74
(dp1378
sg83
g1363
sg76
(lp1379
g69
(g70
g71
NtRp1380
(dp1381
g74
(dp1382
g82
I4
ssg83
g1376
sg76
(lp1383
g202
asbasbasbag69
(g85
g71
NtRp1384
(dp1385
g74
(dp1386
sg83
g834
sg76
(lp1387
g69
(g90
g71
NtRp1388
(dp1389
g74
(dp1390
g94
g95
ssg83
g1384
sg76
(lp1391
S'remote_port'
p1392
asbag69
(g90
g71
NtRp1393
(dp1394
g74
(dp1395
g101
g102
ssg83
g1384
sg76
(lp1396
S':'
asbag69
(g90
g71
NtRp1397
(dp1398
g74
(dp1399
sg83
g1384
sg76
(lp1400
g69
(g70
g71
NtRp1401
(dp1402
g74
(dp1403
g82
I4
ssg83
g1397
sg76
(lp1404
S'51104'
p1405
asbasbasbag69
(g85
g71
NtRp1406
(dp1407
g74
(dp1408
sg83
g834
sg76
(lp1409
g69
(g90
g71
NtRp1410
(dp1411
g74
(dp1412
g94
g95
ssg83
g1406
sg76
(lp1413
S'request_method'
p1414
asbag69
(g90
g71
NtRp1415
(dp1416
g74
(dp1417
g101
g102
ssg83
g1406
sg76
(lp1418
S':'
asbag69
(g90
g71
NtRp1419
(dp1420
g74
(dp1421
sg83
g1406
sg76
(lp1422
g69
(g70
g71
NtRp1423
(dp1424
g74
(dp1425
g82
I4
ssg83
g1419
sg76
(lp1426
S'POST'
p1427
asbasbasbag69
(g85
g71
NtRp1428
(dp1429
g74
(dp1430
sg83
g834
sg76
(lp1431
g69
(g90
g71
NtRp1432
(dp1433
g74
(dp1434
g94
g95
ssg83
g1428
sg76
(lp1435
S'script_name'
p1436
asbag69
(g90
g71
NtRp1437
(dp1438
g74
(dp1439
g101
g102
ssg83
g1428
sg76
(lp1440
S':'
asbag69
(g90
g71
NtRp1441
(dp1442
g74
(dp1443
sg83
g1428
sg76
(lp1444
g69
(g70
g71
NtRp1445
(dp1446
g74
(dp1447
g82
I4
ssg83
g1441
sg76
(lp1448
S''
asbasbasbag69
(g85
g71
NtRp1449
(dp1450
g74
(dp1451
sg83
g834
sg76
(lp1452
g69
(g90
g71
NtRp1453
(dp1454
g74
(dp1455
g94
g95
ssg83
g1449
sg76
(lp1456
S'server_name'
p1457
asbag69
(g90
g71
NtRp1458
(dp1459
g74
(dp1460
g101
g102
ssg83
g1449
sg76
(lp1461
S':'
asbag69
(g90
g71
NtRp1462
(dp1463
g74
(dp1464
sg83
g1449
sg76
(lp1465
g69
(g70
g71
NtRp1466
(dp1467
g74
(dp1468
g82
I4
ssg83
g1462
sg76
(lp1469
S'declic-pc'
p1470
asbasbasbag69
(g85
g71
NtRp1471
(dp1472
g74
(dp1473
sg83
g834
sg76
(lp1474
g69
(g90
g71
NtRp1475
(dp1476
g74
(dp1477
g94
g95
ssg83
g1471
sg76
(lp1478
S'server_port'
p1479
asbag69
(g90
g71
NtRp1480
(dp1481
g74
(dp1482
g101
g102
ssg83
g1471
sg76
(lp1483
S':'
asbag69
(g90
g71
NtRp1484
(dp1485
g74
(dp1486
sg83
g1471
sg76
(lp1487
g69
(g70
g71
NtRp1488
(dp1489
g74
(dp1490
g82
I4
ssg83
g1484
sg76
(lp1491
S'8000'
p1492
asbasbasbag69
(g85
g71
NtRp1493
(dp1494
g74
(dp1495
sg83
g834
sg76
(lp1496
g69
(g90
g71
NtRp1497
(dp1498
g74
(dp1499
g94
g95
ssg83
g1493
sg76
(lp1500
S'server_protocol'
p1501
asbag69
(g90
g71
NtRp1502
(dp1503
g74
(dp1504
g101
g102
ssg83
g1493
sg76
(lp1505
S':'
asbag69
(g90
g71
NtRp1506
(dp1507
g74
(dp1508
sg83
g1493
sg76
(lp1509
g69
(g70
g71
NtRp1510
(dp1511
g74
(dp1512
g82
I4
ssg83
g1506
sg76
(lp1513
S'HTTP/1.1'
p1514
asbasbasbag69
(g85
g71
NtRp1515
(dp1516
g74
(dp1517
sg83
g834
sg76
(lp1518
g69
(g90
g71
NtRp1519
(dp1520
g74
(dp1521
g94
g95
ssg83
g1515
sg76
(lp1522
S'server_software'
p1523
asbag69
(g90
g71
NtRp1524
(dp1525
g74
(dp1526
g101
g102
ssg83
g1515
sg76
(lp1527
S':'
asbag69
(g90
g71
NtRp1528
(dp1529
g74
(dp1530
sg83
g1515
sg76
(lp1531
g69
(g70
g71
NtRp1532
(dp1533
g74
(dp1534
g82
I4
ssg83
g1528
sg76
(lp1535
S'Rocket 1.2.4'
p1536
asbasbasbag69
(g85
g71
NtRp1537
(dp1538
g74
(dp1539
sg83
g834
sg76
(lp1540
g69
(g90
g71
NtRp1541
(dp1542
g74
(dp1543
g94
g95
ssg83
g1537
sg76
(lp1544
S'web2py_crontype'
p1545
asbag69
(g90
g71
NtRp1546
(dp1547
g74
(dp1548
g101
g102
ssg83
g1537
sg76
(lp1549
S':'
asbag69
(g90
g71
NtRp1550
(dp1551
g74
(dp1552
sg83
g1537
sg76
(lp1553
g69
(g70
g71
NtRp1554
(dp1555
g74
(dp1556
g82
I4
ssg83
g1550
sg76
(lp1557
S'hard'
p1558
asbasbasbag69
(g85
g71
NtRp1559
(dp1560
g74
(dp1561
sg83
g834
sg76
(lp1562
g69
(g90
g71
NtRp1563
(dp1564
g74
(dp1565
g94
g95
ssg83
g1559
sg76
(lp1566
S'web2py_path'
p1567
asbag69
(g90
g71
NtRp1568
(dp1569
g74
(dp1570
g101
g102
ssg83
g1559
sg76
(lp1571
S':'
asbag69
(g90
g71
NtRp1572
(dp1573
g74
(dp1574
sg83
g1559
sg76
(lp1575
g69
(g70
g71
NtRp1576
(dp1577
g74
(dp1578
g82
I4
ssg83
g1572
sg76
(lp1579
g881
asbasbasbag69
(g85
g71
NtRp1580
(dp1581
g74
(dp1582
sg83
g834
sg76
(lp1583
g69
(g90
g71
NtRp1584
(dp1585
g74
(dp1586
g94
g95
ssg83
g1580
sg76
(lp1587
S'web2py_version'
p1588
asbag69
(g90
g71
NtRp1589
(dp1590
g74
(dp1591
g101
g102
ssg83
g1580
sg76
(lp1592
S':'
asbag69
(g90
g71
NtRp1593
(dp1594
g74
(dp1595
sg83
g1580
sg76
(lp1596
g69
(g70
g71
NtRp1597
(dp1598
g74
(dp1599
g82
I4
ssg83
g1593
sg76
(lp1600
g69
(g78
g71
NtRp1601
(dp1602
g74
(dp1603
g82
I3
ssg83
Nsg76
(lp1604
g69
(g85
g71
NtRp1605
(dp1606
g74
(dp1607
sg83
g1601
sg76
(lp1608
g69
(g90
g71
NtRp1609
(dp1610
g74
(dp1611
sg83
g1605
sg76
(lp1612
g69
(g70
g71
NtRp1613
(dp1614
g74
(dp1615
g82
I3
ssg83
g1609
sg76
(lp1616
S'1'
asbasbasbag69
(g85
g71
NtRp1617
(dp1618
g74
(dp1619
sg83
g1601
sg76
(lp1620
g69
(g90
g71
NtRp1621
(dp1622
g74
(dp1623
sg83
g1617
sg76
(lp1624
g69
(g70
g71
NtRp1625
(dp1626
g74
(dp1627
g82
I3
ssg83
g1621
sg76
(lp1628
S'99'
p1629
asbasbasbag69
(g85
g71
NtRp1630
(dp1631
g74
(dp1632
sg83
g1601
sg76
(lp1633
g69
(g90
g71
NtRp1634
(dp1635
g74
(dp1636
sg83
g1630
sg76
(lp1637
g69
(g70
g71
NtRp1638
(dp1639
g74
(dp1640
g82
I3
ssg83
g1634
sg76
(lp1641
S'7'
asbasbasbag69
(g85
g71
NtRp1642
(dp1643
g74
(dp1644
sg83
g1601
sg76
(lp1645
g69
(g90
g71
NtRp1646
(dp1647
g74
(dp1648
sg83
g1642
sg76
(lp1649
g69
(g70
g71
NtRp1650
(dp1651
g74
(dp1652
g82
I3
ssg83
g1646
sg76
(lp1653
S'datetime.datetime(2012, 3, 4, 22, 12, 8)'
p1654
asbasbasbag69
(g85
g71
NtRp1655
(dp1656
g74
(dp1657
sg83
g1601
sg76
(lp1658
g69
(g90
g71
NtRp1659
(dp1660
g74
(dp1661
sg83
g1655
sg76
(lp1662
g69
(g70
g71
NtRp1663
(dp1664
g74
(dp1665
g82
I3
ssg83
g1659
sg76
(lp1666
S'stable'
p1667
asbasbasbasbasbasbasbag69
(g85
g71
NtRp1668
(dp1669
g74
(dp1670
sg83
g834
sg76
(lp1671
g69
(g90
g71
NtRp1672
(dp1673
g74
(dp1674
g94
g95
ssg83
g1668
sg76
(lp1675
S'wsgi_errors'
p1676
asbag69
(g90
g71
NtRp1677
(dp1678
g74
(dp1679
g101
g102
ssg83
g1668
sg76
(lp1680
S':'
asbag69
(g90
g71
NtRp1681
(dp1682
g74
(dp1683
sg83
g1668
sg76
(lp1684
g69
(g70
g71
NtRp1685
(dp1686
g74
(dp1687
g82
I4
ssg83
g1681
sg76
(lp1688
S"<open file '<stderr>', mode 'w' at 0x7f49ef740270>"
p1689
asbasbasbag69
(g85
g71
NtRp1690
(dp1691
g74
(dp1692
sg83
g834
sg76
(lp1693
g69
(g90
g71
NtRp1694
(dp1695
g74
(dp1696
g94
g95
ssg83
g1690
sg76
(lp1697
S'wsgi_file_wrapper'
p1698
asbag69
(g90
g71
NtRp1699
(dp1700
g74
(dp1701
g101
g102
ssg83
g1690
sg76
(lp1702
S':'
asbag69
(g90
g71
NtRp1703
(dp1704
g74
(dp1705
sg83
g1690
sg76
(lp1706
g69
(g70
g71
NtRp1707
(dp1708
g74
(dp1709
g82
I4
ssg83
g1703
sg76
(lp1710
S'<class wsgiref.util.FileWrapper at 0x2e896d0>'
p1711
asbasbasbag69
(g85
g71
NtRp1712
(dp1713
g74
(dp1714
sg83
g834
sg76
(lp1715
g69
(g90
g71
NtRp1716
(dp1717
g74
(dp1718
g94
g95
ssg83
g1712
sg76
(lp1719
S'wsgi_input'
p1720
asbag69
(g90
g71
NtRp1721
(dp1722
g74
(dp1723
g101
g102
ssg83
g1712
sg76
(lp1724
S':'
asbag69
(g90
g71
NtRp1725
(dp1726
g74
(dp1727
sg83
g1712
sg76
(lp1728
g69
(g70
g71
NtRp1729
(dp1730
g74
(dp1731
g82
I4
ssg83
g1725
sg76
(lp1732
S'<socket._fileobject object at 0x7f49dc16ccd0>'
p1733
asbasbasbag69
(g85
g71
NtRp1734
(dp1735
g74
(dp1736
sg83
g834
sg76
(lp1737
g69
(g90
g71
NtRp1738
(dp1739
g74
(dp1740
g94
g95
ssg83
g1734
sg76
(lp1741
S'wsgi_multiprocess'
p1742
asbag69
(g90
g71
NtRp1743
(dp1744
g74
(dp1745
g101
g102
ssg83
g1734
sg76
(lp1746
S':'
asbag69
(g90
g71
NtRp1747
(dp1748
g74
(dp1749
sg83
g1734
sg76
(lp1750
g69
(g70
g71
NtRp1751
(dp1752
g74
(dp1753
g82
I4
ssg83
g1747
sg76
(lp1754
g112
asbasbasbag69
(g85
g71
NtRp1755
(dp1756
g74
(dp1757
sg83
g834
sg76
(lp1758
g69
(g90
g71
NtRp1759
(dp1760
g74
(dp1761
g94
g95
ssg83
g1755
sg76
(lp1762
S'wsgi_multithread'
p1763
asbag69
(g90
g71
NtRp1764
(dp1765
g74
(dp1766
g101
g102
ssg83
g1755
sg76
(lp1767
S':'
asbag69
(g90
g71
NtRp1768
(dp1769
g74
(dp1770
sg83
g1755
sg76
(lp1771
g69
(g70
g71
NtRp1772
(dp1773
g74
(dp1774
g82
I4
ssg83
g1768
sg76
(lp1775
S'True'
p1776
asbasbasbag69
(g85
g71
NtRp1777
(dp1778
g74
(dp1779
sg83
g834
sg76
(lp1780
g69
(g90
g71
NtRp1781
(dp1782
g74
(dp1783
g94
g95
ssg83
g1777
sg76
(lp1784
S'wsgi_run_once'
p1785
asbag69
(g90
g71
NtRp1786
(dp1787
g74
(dp1788
g101
g102
ssg83
g1777
sg76
(lp1789
S':'
asbag69
(g90
g71
NtRp1790
(dp1791
g74
(dp1792
sg83
g1777
sg76
(lp1793
g69
(g70
g71
NtRp1794
(dp1795
g74
(dp1796
g82
I4
ssg83
g1790
sg76
(lp1797
g112
asbasbasbag69
(g85
g71
NtRp1798
(dp1799
g74
(dp1800
sg83
g834
sg76
(lp1801
g69
(g90
g71
NtRp1802
(dp1803
g74
(dp1804
g94
g95
ssg83
g1798
sg76
(lp1805
S'wsgi_url_scheme'
p1806
asbag69
(g90
g71
NtRp1807
(dp1808
g74
(dp1809
g101
g102
ssg83
g1798
sg76
(lp1810
S':'
asbag69
(g90
g71
NtRp1811
(dp1812
g74
(dp1813
sg83
g1798
sg76
(lp1814
g69
(g70
g71
NtRp1815
(dp1816
g74
(dp1817
g82
I4
ssg83
g1811
sg76
(lp1818
S'http'
p1819
asbasbasbag69
(g85
g71
NtRp1820
(dp1821
g74
(dp1822
sg83
g834
sg76
(lp1823
g69
(g90
g71
NtRp1824
(dp1825
g74
(dp1826
g94
g95
ssg83
g1820
sg76
(lp1827
S'wsgi_version'
p1828
asbag69
(g90
g71
NtRp1829
(dp1830
g74
(dp1831
g101
g102
ssg83
g1820
sg76
(lp1832
S':'
asbag69
(g90
g71
NtRp1833
(dp1834
g74
(dp1835
sg83
g1820
sg76
(lp1836
g69
(g70
g71
NtRp1837
(dp1838
g74
(dp1839
g82
I4
ssg83
g1833
sg76
(lp1840
g69
(g78
g71
NtRp1841
(dp1842
g74
(dp1843
g82
I3
ssg83
Nsg76
(lp1844
g69
(g85
g71
NtRp1845
(dp1846
g74
(dp1847
sg83
g1841
sg76
(lp1848
g69
(g90
g71
NtRp1849
(dp1850
g74
(dp1851
sg83
g1845
sg76
(lp1852
g69
(g70
g71
NtRp1853
(dp1854
g74
(dp1855
g82
I3
ssg83
g1849
sg76
(lp1856
S'1'
asbasbasbag69
(g85
g71
NtRp1857
(dp1858
g74
(dp1859
sg83
g1841
sg76
(lp1860
g69
(g90
g71
NtRp1861
(dp1862
g74
(dp1863
sg83
g1857
sg76
(lp1864
g69
(g70
g71
NtRp1865
(dp1866
g74
(dp1867
g82
I3
ssg83
g1861
sg76
(lp1868
S'0'
asbasbasbasbasbasbasbasbasbasbasbag69
(g85
g71
NtRp1869
(dp1870
g74
(dp1871
sg83
g79
sg76
(lp1872
g69
(g90
g71
NtRp1873
(dp1874
g74
(dp1875
g94
g95
ssg83
g1869
sg76
(lp1876
S'extension'
p1877
asbag69
(g90
g71
NtRp1878
(dp1879
g74
(dp1880
g101
g102
ssg83
g1869
sg76
(lp1881
S':'
asbag69
(g90
g71
NtRp1882
(dp1883
g74
(dp1884
sg83
g1869
sg76
(lp1885
g69
(g70
g71
NtRp1886
(dp1887
g74
(dp1888
g82
I5
ssg83
g1882
sg76
(lp1889
S'html'
p1890
asbasbasbag69
(g85
g71
NtRp1891
(dp1892
g74
(dp1893
sg83
g79
sg76
(lp1894
g69
(g90
g71
NtRp1895
(dp1896
g74
(dp1897
g94
g95
ssg83
g1891
sg76
(lp1898
S'folder'
p1899
asbag69
(g90
g71
NtRp1900
(dp1901
g74
(dp1902
g101
g102
ssg83
g1891
sg76
(lp1903
S':'
asbag69
(g90
g71
NtRp1904
(dp1905
g74
(dp1906
sg83
g1891
sg76
(lp1907
g69
(g70
g71
NtRp1908
(dp1909
g74
(dp1910
g82
I5
ssg83
g1904
sg76
(lp1911
S'/web2py/applications/snapcop2/'
p1912
asbasbasbag69
(g85
g71
NtRp1913
(dp1914
g74
(dp1915
sg83
g79
sg76
(lp1916
g69
(g90
g71
NtRp1917
(dp1918
g74
(dp1919
g94
g95
ssg83
g1913
sg76
(lp1920
S'function'
p1921
asbag69
(g90
g71
NtRp1922
(dp1923
g74
(dp1924
g101
g102
ssg83
g1913
sg76
(lp1925
S':'
asbag69
(g90
g71
NtRp1926
(dp1927
g74
(dp1928
sg83
g1913
sg76
(lp1929
g69
(g70
g71
NtRp1930
(dp1931
g74
(dp1932
g82
I5
ssg83
g1926
sg76
(lp1933
S'form'
p1934
asbasbasbag69
(g85
g71
NtRp1935
(dp1936
g74
(dp1937
sg83
g79
sg76
(lp1938
g69
(g90
g71
NtRp1939
(dp1940
g74
(dp1941
g94
g95
ssg83
g1935
sg76
(lp1942
S'get_vars'
p1943
asbag69
(g90
g71
NtRp1944
(dp1945
g74
(dp1946
g101
g102
ssg83
g1935
sg76
(lp1947
S':'
asbag69
(g90
g71
NtRp1948
(dp1949
g74
(dp1950
sg83
g1935
sg76
(lp1951
g69
(g70
g71
NtRp1952
(dp1953
g74
(dp1954
g82
I5
ssg83
g1948
sg76
(lp1955
g69
(g78
g71
NtRp1956
(dp1957
g74
(dp1958
g82
I4
ssg83
Nsg76
(lp1959
sbasbasbasbag69
(g85
g71
NtRp1960
(dp1961
g74
(dp1962
sg83
g79
sg76
(lp1963
g69
(g90
g71
NtRp1964
(dp1965
g74
(dp1966
g94
g95
ssg83
g1960
sg76
(lp1967
S'global_settings'
p1968
asbag69
(g90
g71
NtRp1969
(dp1970
g74
(dp1971
g101
g102
ssg83
g1960
sg76
(lp1972
S':'
asbag69
(g90
g71
NtRp1973
(dp1974
g74
(dp1975
sg83
g1960
sg76
(lp1976
g69
(g70
g71
NtRp1977
(dp1978
g74
(dp1979
g82
I5
ssg83
g1973
sg76
(lp1980
g69
(g78
g71
NtRp1981
(dp1982
g74
(dp1983
g82
I4
ssg83
Nsg76
(lp1984
g69
(g85
g71
NtRp1985
(dp1986
g74
(dp1987
sg83
g1981
sg76
(lp1988
g69
(g90
g71
NtRp1989
(dp1990
g74
(dp1991
g94
g95
ssg83
g1985
sg76
(lp1992
g846
asbag69
(g90
g71
NtRp1993
(dp1994
g74
(dp1995
g101
g102
ssg83
g1985
sg76
(lp1996
S':'
asbag69
(g90
g71
NtRp1997
(dp1998
g74
(dp1999
sg83
g1985
sg76
(lp2000
g69
(g70
g71
NtRp2001
(dp2002
g74
(dp2003
g82
I4
ssg83
g1997
sg76
(lp2004
S"set(['/web2py/applications/admin/', '/web2py/applications/welcome/', '/web2py/applications/snapcop2/'])"
p2005
asbasbasbag69
(g85
g71
NtRp2006
(dp2007
g74
(dp2008
sg83
g1981
sg76
(lp2009
g69
(g90
g71
NtRp2010
(dp2011
g74
(dp2012
g94
g95
ssg83
g2006
sg76
(lp2013
g868
asbag69
(g90
g71
NtRp2014
(dp2015
g74
(dp2016
g101
g102
ssg83
g2006
sg76
(lp2017
S':'
asbag69
(g90
g71
NtRp2018
(dp2019
g74
(dp2020
sg83
g2006
sg76
(lp2021
g69
(g70
g71
NtRp2022
(dp2023
g74
(dp2024
g82
I4
ssg83
g2018
sg76
(lp2025
g881
asbasbasbag69
(g85
g71
NtRp2026
(dp2027
g74
(dp2028
sg83
g1981
sg76
(lp2029
g69
(g90
g71
NtRp2030
(dp2031
g74
(dp2032
g94
g95
ssg83
g2026
sg76
(lp2033
g890
asbag69
(g90
g71
NtRp2034
(dp2035
g74
(dp2036
g101
g102
ssg83
g2026
sg76
(lp2037
S':'
asbag69
(g90
g71
NtRp2038
(dp2039
g74
(dp2040
sg83
g2026
sg76
(lp2041
g69
(g70
g71
NtRp2042
(dp2043
g74
(dp2044
g82
I4
ssg83
g2038
sg76
(lp2045
g69
(g78
g71
NtRp2046
(dp2047
g74
(dp2048
g82
I3
ssg83
Nsg76
(lp2049
sbasbasbasbag69
(g85
g71
NtRp2050
(dp2051
g74
(dp2052
sg83
g1981
sg76
(lp2053
g69
(g90
g71
NtRp2054
(dp2055
g74
(dp2056
g94
g95
ssg83
g2050
sg76
(lp2057
g915
asbag69
(g90
g71
NtRp2058
(dp2059
g74
(dp2060
g101
g102
ssg83
g2050
sg76
(lp2061
S':'
asbag69
(g90
g71
NtRp2062
(dp2063
g74
(dp2064
sg83
g2050
sg76
(lp2065
g69
(g70
g71
NtRp2066
(dp2067
g74
(dp2068
g82
I4
ssg83
g2062
sg76
(lp2069
S"<Values at 0x2f62680: {'verbose': False, 'ip': '127.0.0.1', 'shutdown_timeout': 5, 'taskbar': False, 'nocron': False, 'pid_filename': 'httpserver.pid', 'maxthreads': None, 'softcron': False, 'server_name': 'declic-pc', 'bpython': False, 'nogui': False, 'port': 8000, 'extcron': False, 'debuglevel': 30, 'test': None, 'folder': '/web2py', 'config': '', 'import_models': False, 'winservice': '', 'shell': None, 'run': '', 'log_filename': 'httpserver.log', 'args': [''], 'socket_timeout': 5, 'ssl_ca_certificate': None, 'scheduler': None, 'profiler_filename': None, 'ssl_private_key': '', 'password': 'photos10', 'request_queue_size': 5, 'ssl_certificate': '', 'cronjob': False, 'numthreads': None, 'quiet': False, 'interfaces': None, 'minthreads': None, 'timeout': 10, 'plain': False, 'nobanner': False}>"
p2070
asbasbasbag69
(g85
g71
NtRp2071
(dp2072
g74
(dp2073
sg83
g1981
sg76
(lp2074
g69
(g90
g71
NtRp2075
(dp2076
g74
(dp2077
g94
g95
ssg83
g2071
sg76
(lp2078
g981
asbag69
(g90
g71
NtRp2079
(dp2080
g74
(dp2081
g101
g102
ssg83
g2071
sg76
(lp2082
S':'
asbag69
(g90
g71
NtRp2083
(dp2084
g74
(dp2085
sg83
g2071
sg76
(lp2086
g69
(g70
g71
NtRp2087
(dp2088
g74
(dp2089
g82
I4
ssg83
g2083
sg76
(lp2090
S'set([])'
p2091
asbasbasbag69
(g85
g71
NtRp2092
(dp2093
g74
(dp2094
sg83
g1981
sg76
(lp2095
g69
(g90
g71
NtRp2096
(dp2097
g74
(dp2098
g94
g95
ssg83
g2092
sg76
(lp2099
g1003
asbag69
(g90
g71
NtRp2100
(dp2101
g74
(dp2102
g101
g102
ssg83
g2092
sg76
(lp2103
S':'
asbag69
(g90
g71
NtRp2104
(dp2105
g74
(dp2106
sg83
g2092
sg76
(lp2107
g69
(g70
g71
NtRp2108
(dp2109
g74
(dp2110
g82
I4
ssg83
g2104
sg76
(lp2111
g112
asbasbasbag69
(g85
g71
NtRp2112
(dp2113
g74
(dp2114
sg83
g1981
sg76
(lp2115
g69
(g90
g71
NtRp2116
(dp2117
g74
(dp2118
g94
g95
ssg83
g2112
sg76
(lp2119
g1024
asbag69
(g90
g71
NtRp2120
(dp2121
g74
(dp2122
g101
g102
ssg83
g2112
sg76
(lp2123
S':'
asbag69
(g90
g71
NtRp2124
(dp2125
g74
(dp2126
sg83
g2112
sg76
(lp2127
g69
(g70
g71
NtRp2128
(dp2129
g74
(dp2130
g82
I4
ssg83
g2124
sg76
(lp2131
g1037
asbasbasbag69
(g85
g71
NtRp2132
(dp2133
g74
(dp2134
sg83
g1981
sg76
(lp2135
g69
(g90
g71
NtRp2136
(dp2137
g74
(dp2138
g94
g95
ssg83
g2132
sg76
(lp2139
g1286
asbag69
(g90
g71
NtRp2140
(dp2141
g74
(dp2142
g101
g102
ssg83
g2132
sg76
(lp2143
S':'
asbag69
(g90
g71
NtRp2144
(dp2145
g74
(dp2146
sg83
g2132
sg76
(lp2147
g69
(g70
g71
NtRp2148
(dp2149
g74
(dp2150
g82
I4
ssg83
g2144
sg76
(lp2151
g112
asbasbasbag69
(g85
g71
NtRp2152
(dp2153
g74
(dp2154
sg83
g1981
sg76
(lp2155
g69
(g90
g71
NtRp2156
(dp2157
g74
(dp2158
g94
g95
ssg83
g2152
sg76
(lp2159
g1307
asbag69
(g90
g71
NtRp2160
(dp2161
g74
(dp2162
g101
g102
ssg83
g2152
sg76
(lp2163
S':'
asbag69
(g90
g71
NtRp2164
(dp2165
g74
(dp2166
sg83
g2152
sg76
(lp2167
g69
(g70
g71
NtRp2168
(dp2169
g74
(dp2170
g82
I4
ssg83
g2164
sg76
(lp2171
g112
asbasbasbag69
(g85
g71
NtRp2172
(dp2173
g74
(dp2174
sg83
g1981
sg76
(lp2175
g69
(g90
g71
NtRp2176
(dp2177
g74
(dp2178
g94
g95
ssg83
g2172
sg76
(lp2179
g1545
asbag69
(g90
g71
NtRp2180
(dp2181
g74
(dp2182
g101
g102
ssg83
g2172
sg76
(lp2183
S':'
asbag69
(g90
g71
NtRp2184
(dp2185
g74
(dp2186
sg83
g2172
sg76
(lp2187
g69
(g70
g71
NtRp2188
(dp2189
g74
(dp2190
g82
I4
ssg83
g2184
sg76
(lp2191
g1558
asbasbasbag69
(g85
g71
NtRp2192
(dp2193
g74
(dp2194
sg83
g1981
sg76
(lp2195
g69
(g90
g71
NtRp2196
(dp2197
g74
(dp2198
g94
g95
ssg83
g2192
sg76
(lp2199
g1588
asbag69
(g90
g71
NtRp2200
(dp2201
g74
(dp2202
g101
g102
ssg83
g2192
sg76
(lp2203
S':'
asbag69
(g90
g71
NtRp2204
(dp2205
g74
(dp2206
sg83
g2192
sg76
(lp2207
g69
(g70
g71
NtRp2208
(dp2209
g74
(dp2210
g82
I4
ssg83
g2204
sg76
(lp2211
g69
(g78
g71
NtRp2212
(dp2213
g74
(dp2214
g82
I3
ssg83
Nsg76
(lp2215
g69
(g85
g71
NtRp2216
(dp2217
g74
(dp2218
sg83
g2212
sg76
(lp2219
g69
(g90
g71
NtRp2220
(dp2221
g74
(dp2222
sg83
g2216
sg76
(lp2223
g69
(g70
g71
NtRp2224
(dp2225
g74
(dp2226
g82
I3
ssg83
g2220
sg76
(lp2227
S'1'
asbasbasbag69
(g85
g71
NtRp2228
(dp2229
g74
(dp2230
sg83
g2212
sg76
(lp2231
g69
(g90
g71
NtRp2232
(dp2233
g74
(dp2234
sg83
g2228
sg76
(lp2235
g69
(g70
g71
NtRp2236
(dp2237
g74
(dp2238
g82
I3
ssg83
g2232
sg76
(lp2239
S'99'
p2240
asbasbasbag69
(g85
g71
NtRp2241
(dp2242
g74
(dp2243
sg83
g2212
sg76
(lp2244
g69
(g90
g71
NtRp2245
(dp2246
g74
(dp2247
sg83
g2241
sg76
(lp2248
g69
(g70
g71
NtRp2249
(dp2250
g74
(dp2251
g82
I3
ssg83
g2245
sg76
(lp2252
S'7'
asbasbasbag69
(g85
g71
NtRp2253
(dp2254
g74
(dp2255
sg83
g2212
sg76
(lp2256
g69
(g90
g71
NtRp2257
(dp2258
g74
(dp2259
sg83
g2253
sg76
(lp2260
g69
(g70
g71
NtRp2261
(dp2262
g74
(dp2263
g82
I3
ssg83
g2257
sg76
(lp2264
S'datetime.datetime(2012, 3, 4, 22, 12, 8)'
p2265
asbasbasbag69
(g85
g71
NtRp2266
(dp2267
g74
(dp2268
sg83
g2212
sg76
(lp2269
g69
(g90
g71
NtRp2270
(dp2271
g74
(dp2272
sg83
g2266
sg76
(lp2273
g69
(g70
g71
NtRp2274
(dp2275
g74
(dp2276
g82
I3
ssg83
g2270
sg76
(lp2277
g1667
asbasbasbasbasbasbasbasbasbasbasbag69
(g85
g71
NtRp2278
(dp2279
g74
(dp2280
sg83
g79
sg76
(lp2281
g69
(g90
g71
NtRp2282
(dp2283
g74
(dp2284
g94
g95
ssg83
g2278
sg76
(lp2285
S'is_https'
p2286
asbag69
(g90
g71
NtRp2287
(dp2288
g74
(dp2289
g101
g102
ssg83
g2278
sg76
(lp2290
S':'
asbag69
(g90
g71
NtRp2291
(dp2292
g74
(dp2293
sg83
g2278
sg76
(lp2294
g69
(g70
g71
NtRp2295
(dp2296
g74
(dp2297
g82
I5
ssg83
g2291
sg76
(lp2298
g112
asbasbasbag69
(g85
g71
NtRp2299
(dp2300
g74
(dp2301
sg83
g79
sg76
(lp2302
g69
(g90
g71
NtRp2303
(dp2304
g74
(dp2305
g94
g95
ssg83
g2299
sg76
(lp2306
S'is_local'
p2307
asbag69
(g90
g71
NtRp2308
(dp2309
g74
(dp2310
g101
g102
ssg83
g2299
sg76
(lp2311
S':'
asbag69
(g90
g71
NtRp2312
(dp2313
g74
(dp2314
sg83
g2299
sg76
(lp2315
g69
(g70
g71
NtRp2316
(dp2317
g74
(dp2318
g82
I5
ssg83
g2312
sg76
(lp2319
g1776
asbasbasbag69
(g85
g71
NtRp2320
(dp2321
g74
(dp2322
sg83
g79
sg76
(lp2323
g69
(g90
g71
NtRp2324
(dp2325
g74
(dp2326
g94
g95
ssg83
g2320
sg76
(lp2327
S'is_restful'
p2328
asbag69
(g90
g71
NtRp2329
(dp2330
g74
(dp2331
g101
g102
ssg83
g2320
sg76
(lp2332
S':'
asbag69
(g90
g71
NtRp2333
(dp2334
g74
(dp2335
sg83
g2320
sg76
(lp2336
g69
(g70
g71
NtRp2337
(dp2338
g74
(dp2339
g82
I5
ssg83
g2333
sg76
(lp2340
g112
asbasbasbag69
(g85
g71
NtRp2341
(dp2342
g74
(dp2343
sg83
g79
sg76
(lp2344
g69
(g90
g71
NtRp2345
(dp2346
g74
(dp2347
g94
g95
ssg83
g2341
sg76
(lp2348
S'now'
p2349
asbag69
(g90
g71
NtRp2350
(dp2351
g74
(dp2352
g101
g102
ssg83
g2341
sg76
(lp2353
S':'
asbag69
(g90
g71
NtRp2354
(dp2355
g74
(dp2356
sg83
g2341
sg76
(lp2357
g69
(g70
g71
NtRp2358
(dp2359
g74
(dp2360
g82
I5
ssg83
g2354
sg76
(lp2361
S'datetime.datetime(2012, 8, 24, 11, 25, 11, 624447)'
p2362
asbasbasbag69
(g85
g71
NtRp2363
(dp2364
g74
(dp2365
sg83
g79
sg76
(lp2366
g69
(g90
g71
NtRp2367
(dp2368
g74
(dp2369
g94
g95
ssg83
g2363
sg76
(lp2370
S'post_vars'
p2371
asbag69
(g90
g71
NtRp2372
(dp2373
g74
(dp2374
g101
g102
ssg83
g2363
sg76
(lp2375
S':'
asbag69
(g90
g71
NtRp2376
(dp2377
g74
(dp2378
sg83
g2363
sg76
(lp2379
g69
(g70
g71
NtRp2380
(dp2381
g74
(dp2382
g82
I5
ssg83
g2376
sg76
(lp2383
g69
(g78
g71
NtRp2384
(dp2385
g74
(dp2386
g82
I4
ssg83
Nsg76
(lp2387
g69
(g85
g71
NtRp2388
(dp2389
g74
(dp2390
sg83
g2384
sg76
(lp2391
g69
(g90
g71
NtRp2392
(dp2393
g74
(dp2394
g94
g95
ssg83
g2388
sg76
(lp2395
S'ferm'
p2396
asbag69
(g90
g71
NtRp2397
(dp2398
g74
(dp2399
g101
g102
ssg83
g2388
sg76
(lp2400
S':'
asbag69
(g90
g71
NtRp2401
(dp2402
g74
(dp2403
sg83
g2388
sg76
(lp2404
g69
(g70
g71
NtRp2405
(dp2406
g74
(dp2407
g82
I4
ssg83
g2401
sg76
(lp2408
S's'
asbasbasbag69
(g85
g71
NtRp2409
(dp2410
g74
(dp2411
sg83
g2384
sg76
(lp2412
g69
(g90
g71
NtRp2413
(dp2414
g74
(dp2415
g94
g95
ssg83
g2409
sg76
(lp2416
S'profile'
p2417
asbag69
(g90
g71
NtRp2418
(dp2419
g74
(dp2420
g101
g102
ssg83
g2409
sg76
(lp2421
S':'
asbag69
(g90
g71
NtRp2422
(dp2423
g74
(dp2424
sg83
g2409
sg76
(lp2425
g69
(g70
g71
NtRp2426
(dp2427
g74
(dp2428
g82
I4
ssg83
g2422
sg76
(lp2429
S'Ecrivez vos commentaires icis'
p2430
asbasbasbag69
(g85
g71
NtRp2431
(dp2432
g74
(dp2433
sg83
g2384
sg76
(lp2434
g69
(g90
g71
NtRp2435
(dp2436
g74
(dp2437
g94
g95
ssg83
g2431
sg76
(lp2438
S'souche'
p2439
asbag69
(g90
g71
NtRp2440
(dp2441
g74
(dp2442
g101
g102
ssg83
g2431
sg76
(lp2443
S':'
asbag69
(g90
g71
NtRp2444
(dp2445
g74
(dp2446
sg83
g2431
sg76
(lp2447
g69
(g70
g71
NtRp2448
(dp2449
g74
(dp2450
g82
I4
ssg83
g2444
sg76
(lp2451
S's'
asbasbasbag69
(g85
g71
NtRp2452
(dp2453
g74
(dp2454
sg83
g2384
sg76
(lp2455
g69
(g90
g71
NtRp2456
(dp2457
g74
(dp2458
g94
g95
ssg83
g2452
sg76
(lp2459
S'substrat'
p2460
asbag69
(g90
g71
NtRp2461
(dp2462
g74
(dp2463
g101
g102
ssg83
g2452
sg76
(lp2464
S':'
asbag69
(g90
g71
NtRp2465
(dp2466
g74
(dp2467
sg83
g2452
sg76
(lp2468
g69
(g70
g71
NtRp2469
(dp2470
g74
(dp2471
g82
I4
ssg83
g2465
sg76
(lp2472
S's'
asbasbasbasbasbasbasbag69
(g85
g71
NtRp2473
(dp2474
g74
(dp2475
sg83
g79
sg76
(lp2476
g69
(g90
g71
NtRp2477
(dp2478
g74
(dp2479
g94
g95
ssg83
g2473
sg76
(lp2480
S'url'
p2481
asbag69
(g90
g71
NtRp2482
(dp2483
g74
(dp2484
g101
g102
ssg83
g2473
sg76
(lp2485
S':'
asbag69
(g90
g71
NtRp2486
(dp2487
g74
(dp2488
sg83
g2473
sg76
(lp2489
g69
(g70
g71
NtRp2490
(dp2491
g74
(dp2492
g82
I5
ssg83
g2486
sg76
(lp2493
S'/snapcop2/form/form'
p2494
asbasbasbag69
(g85
g71
NtRp2495
(dp2496
g74
(dp2497
sg83
g79
sg76
(lp2498
g69
(g90
g71
NtRp2499
(dp2500
g74
(dp2501
g94
g95
ssg83
g2495
sg76
(lp2502
S'utcnow'
p2503
asbag69
(g90
g71
NtRp2504
(dp2505
g74
(dp2506
g101
g102
ssg83
g2495
sg76
(lp2507
S':'
asbag69
(g90
g71
NtRp2508
(dp2509
g74
(dp2510
sg83
g2495
sg76
(lp2511
g69
(g70
g71
NtRp2512
(dp2513
g74
(dp2514
g82
I5
ssg83
g2508
sg76
(lp2515
S'datetime.datetime(2012, 8, 24, 9, 25, 11, 624469)'
p2516
asbasbasbag69
(g85
g71
NtRp2517
(dp2518
g74
(dp2519
sg83
g79
sg76
(lp2520
g69
(g90
g71
NtRp2521
(dp2522
g74
(dp2523
g94
g95
ssg83
g2517
sg76
(lp2524
S'uuid'
p2525
asbag69
(g90
g71
NtRp2526
(dp2527
g74
(dp2528
g101
g102
ssg83
g2517
sg76
(lp2529
S':'
asbag69
(g90
g71
NtRp2530
(dp2531
g74
(dp2532
sg83
g2517
sg76
(lp2533
g69
(g70
g71
NtRp2534
(dp2535
g74
(dp2536
g82
I5
ssg83
g2530
sg76
(lp2537
S'snapcop2/127.0.0.1.2012-08-24.11-25-11.369fe793-bb53-4f9b-87a3-2b6169a8f9ce'
p2538
asbasbasbag69
(g85
g71
NtRp2539
(dp2540
g74
(dp2541
sg83
g79
sg76
(lp2542
g69
(g90
g71
NtRp2543
(dp2544
g74
(dp2545
g94
g95
ssg83
g2539
sg76
(lp2546
S'vars'
p2547
asbag69
(g90
g71
NtRp2548
(dp2549
g74
(dp2550
g101
g102
ssg83
g2539
sg76
(lp2551
S':'
asbag69
(g90
g71
NtRp2552
(dp2553
g74
(dp2554
sg83
g2539
sg76
(lp2555
g69
(g70
g71
NtRp2556
(dp2557
g74
(dp2558
g82
I5
ssg83
g2552
sg76
(lp2559
g69
(g78
g71
NtRp2560
(dp2561
g74
(dp2562
g82
I4
ssg83
Nsg76
(lp2563
g69
(g85
g71
NtRp2564
(dp2565
g74
(dp2566
sg83
g2560
sg76
(lp2567
g69
(g90
g71
NtRp2568
(dp2569
g74
(dp2570
g94
g95
ssg83
g2564
sg76
(lp2571
g2396
asbag69
(g90
g71
NtRp2572
(dp2573
g74
(dp2574
g101
g102
ssg83
g2564
sg76
(lp2575
S':'
asbag69
(g90
g71
NtRp2576
(dp2577
g74
(dp2578
sg83
g2564
sg76
(lp2579
g69
(g70
g71
NtRp2580
(dp2581
g74
(dp2582
g82
I4
ssg83
g2576
sg76
(lp2583
S's'
asbasbasbag69
(g85
g71
NtRp2584
(dp2585
g74
(dp2586
sg83
g2560
sg76
(lp2587
g69
(g90
g71
NtRp2588
(dp2589
g74
(dp2590
g94
g95
ssg83
g2584
sg76
(lp2591
g2417
asbag69
(g90
g71
NtRp2592
(dp2593
g74
(dp2594
g101
g102
ssg83
g2584
sg76
(lp2595
S':'
asbag69
(g90
g71
NtRp2596
(dp2597
g74
(dp2598
sg83
g2584
sg76
(lp2599
g69
(g70
g71
NtRp2600
(dp2601
g74
(dp2602
g82
I4
ssg83
g2596
sg76
(lp2603
g2430
asbasbasbag69
(g85
g71
NtRp2604
(dp2605
g74
(dp2606
sg83
g2560
sg76
(lp2607
g69
(g90
g71
NtRp2608
(dp2609
g74
(dp2610
g94
g95
ssg83
g2604
sg76
(lp2611
g2439
asbag69
(g90
g71
NtRp2612
(dp2613
g74
(dp2614
g101
g102
ssg83
g2604
sg76
(lp2615
S':'
asbag69
(g90
g71
NtRp2616
(dp2617
g74
(dp2618
sg83
g2604
sg76
(lp2619
g69
(g70
g71
NtRp2620
(dp2621
g74
(dp2622
g82
I4
ssg83
g2616
sg76
(lp2623
S's'
asbasbasbag69
(g85
g71
NtRp2624
(dp2625
g74
(dp2626
sg83
g2560
sg76
(lp2627
g69
(g90
g71
NtRp2628
(dp2629
g74
(dp2630
g94
g95
ssg83
g2624
sg76
(lp2631
g2460
asbag69
(g90
g71
NtRp2632
(dp2633
g74
(dp2634
g101
g102
ssg83
g2624
sg76
(lp2635
S':'
asbag69
(g90
g71
NtRp2636
(dp2637
g74
(dp2638
sg83
g2624
sg76
(lp2639
g69
(g70
g71
NtRp2640
(dp2641
g74
(dp2642
g82
I4
ssg83
g2636
sg76
(lp2643
S's'
asbasbasbasbasbasbasbag69
(g85
g71
NtRp2644
(dp2645
g74
(dp2646
sg83
g79
sg76
(lp2647
g69
(g90
g71
NtRp2648
(dp2649
g74
(dp2650
g94
g95
ssg83
g2644
sg76
(lp2651
S'wsgi'
p2652
asbag69
(g90
g71
NtRp2653
(dp2654
g74
(dp2655
g101
g102
ssg83
g2644
sg76
(lp2656
S':'
asbag69
(g90
g71
NtRp2657
(dp2658
g74
(dp2659
sg83
g2644
sg76
(lp2660
g69
(g70
g71
NtRp2661
(dp2662
g74
(dp2663
g82
I5
ssg83
g2657
sg76
(lp2664
g69
(g78
g71
NtRp2665
(dp2666
g74
(dp2667
g82
I4
ssg83
Nsg76
(lp2668
g69
(g85
g71
NtRp2669
(dp2670
g74
(dp2671
sg83
g2665
sg76
(lp2672
g69
(g90
g71
NtRp2673
(dp2674
g74
(dp2675
g94
g95
ssg83
g2669
sg76
(lp2676
S'environ'
p2677
asbag69
(g90
g71
NtRp2678
(dp2679
g74
(dp2680
g101
g102
ssg83
g2669
sg76
(lp2681
S':'
asbag69
(g90
g71
NtRp2682
(dp2683
g74
(dp2684
sg83
g2669
sg76
(lp2685
g69
(g70
g71
NtRp2686
(dp2687
g74
(dp2688
g82
I4
ssg83
g2682
sg76
(lp2689
g69
(g78
g71
NtRp2690
(dp2691
g74
(dp2692
g82
I3
ssg83
Nsg76
(lp2693
g69
(g85
g71
NtRp2694
(dp2695
g74
(dp2696
sg83
g2690
sg76
(lp2697
g69
(g90
g71
NtRp2698
(dp2699
g74
(dp2700
g94
g95
ssg83
g2694
sg76
(lp2701
S'CONTENT_LENGTH'
p2702
asbag69
(g90
g71
NtRp2703
(dp2704
g74
(dp2705
g101
g102
ssg83
g2694
sg76
(lp2706
S':'
asbag69
(g90
g71
NtRp2707
(dp2708
g74
(dp2709
sg83
g2694
sg76
(lp2710
g69
(g70
g71
NtRp2711
(dp2712
g74
(dp2713
g82
I3
ssg83
g2707
sg76
(lp2714
g950
asbasbasbag69
(g85
g71
NtRp2715
(dp2716
g74
(dp2717
sg83
g2690
sg76
(lp2718
g69
(g90
g71
NtRp2719
(dp2720
g74
(dp2721
g94
g95
ssg83
g2715
sg76
(lp2722
S'CONTENT_TYPE'
p2723
asbag69
(g90
g71
NtRp2724
(dp2725
g74
(dp2726
g101
g102
ssg83
g2715
sg76
(lp2727
S':'
asbag69
(g90
g71
NtRp2728
(dp2729
g74
(dp2730
sg83
g2715
sg76
(lp2731
g69
(g70
g71
NtRp2732
(dp2733
g74
(dp2734
g82
I3
ssg83
g2728
sg76
(lp2735
g972
asbasbasbag69
(g85
g71
NtRp2736
(dp2737
g74
(dp2738
sg83
g2690
sg76
(lp2739
g69
(g90
g71
NtRp2740
(dp2741
g74
(dp2742
g94
g95
ssg83
g2736
sg76
(lp2743
S'HTTP_ACCEPT'
p2744
asbag69
(g90
g71
NtRp2745
(dp2746
g74
(dp2747
g101
g102
ssg83
g2736
sg76
(lp2748
S':'
asbag69
(g90
g71
NtRp2749
(dp2750
g74
(dp2751
sg83
g2736
sg76
(lp2752
g69
(g70
g71
NtRp2753
(dp2754
g74
(dp2755
g82
I3
ssg83
g2749
sg76
(lp2756
g1059
asbasbasbag69
(g85
g71
NtRp2757
(dp2758
g74
(dp2759
sg83
g2690
sg76
(lp2760
g69
(g90
g71
NtRp2761
(dp2762
g74
(dp2763
g94
g95
ssg83
g2757
sg76
(lp2764
S'HTTP_ACCEPT_ENCODING'
p2765
asbag69
(g90
g71
NtRp2766
(dp2767
g74
(dp2768
g101
g102
ssg83
g2757
sg76
(lp2769
S':'
asbag69
(g90
g71
NtRp2770
(dp2771
g74
(dp2772
sg83
g2757
sg76
(lp2773
g69
(g70
g71
NtRp2774
(dp2775
g74
(dp2776
g82
I3
ssg83
g2770
sg76
(lp2777
g1081
asbasbasbag69
(g85
g71
NtRp2778
(dp2779
g74
(dp2780
sg83
g2690
sg76
(lp2781
g69
(g90
g71
NtRp2782
(dp2783
g74
(dp2784
g94
g95
ssg83
g2778
sg76
(lp2785
S'HTTP_ACCEPT_LANGUAGE'
p2786
asbag69
(g90
g71
NtRp2787
(dp2788
g74
(dp2789
g101
g102
ssg83
g2778
sg76
(lp2790
S':'
asbag69
(g90
g71
NtRp2791
(dp2792
g74
(dp2793
sg83
g2778
sg76
(lp2794
g69
(g70
g71
NtRp2795
(dp2796
g74
(dp2797
g82
I3
ssg83
g2791
sg76
(lp2798
g1103
asbasbasbag69
(g85
g71
NtRp2799
(dp2800
g74
(dp2801
sg83
g2690
sg76
(lp2802
g69
(g90
g71
NtRp2803
(dp2804
g74
(dp2805
g94
g95
ssg83
g2799
sg76
(lp2806
S'HTTP_CACHE_CONTROL'
p2807
asbag69
(g90
g71
NtRp2808
(dp2809
g74
(dp2810
g101
g102
ssg83
g2799
sg76
(lp2811
S':'
asbag69
(g90
g71
NtRp2812
(dp2813
g74
(dp2814
sg83
g2799
sg76
(lp2815
g69
(g70
g71
NtRp2816
(dp2817
g74
(dp2818
g82
I3
ssg83
g2812
sg76
(lp2819
g1125
asbasbasbag69
(g85
g71
NtRp2820
(dp2821
g74
(dp2822
sg83
g2690
sg76
(lp2823
g69
(g90
g71
NtRp2824
(dp2825
g74
(dp2826
g94
g95
ssg83
g2820
sg76
(lp2827
S'HTTP_CONNECTION'
p2828
asbag69
(g90
g71
NtRp2829
(dp2830
g74
(dp2831
g101
g102
ssg83
g2820
sg76
(lp2832
S':'
asbag69
(g90
g71
NtRp2833
(dp2834
g74
(dp2835
sg83
g2820
sg76
(lp2836
g69
(g70
g71
NtRp2837
(dp2838
g74
(dp2839
g82
I3
ssg83
g2833
sg76
(lp2840
g1147
asbasbasbag69
(g85
g71
NtRp2841
(dp2842
g74
(dp2843
sg83
g2690
sg76
(lp2844
g69
(g90
g71
NtRp2845
(dp2846
g74
(dp2847
g94
g95
ssg83
g2841
sg76
(lp2848
S'HTTP_CONTENT_LENGTH'
p2849
asbag69
(g90
g71
NtRp2850
(dp2851
g74
(dp2852
g101
g102
ssg83
g2841
sg76
(lp2853
S':'
asbag69
(g90
g71
NtRp2854
(dp2855
g74
(dp2856
sg83
g2841
sg76
(lp2857
g69
(g70
g71
NtRp2858
(dp2859
g74
(dp2860
g82
I3
ssg83
g2854
sg76
(lp2861
g950
asbasbasbag69
(g85
g71
NtRp2862
(dp2863
g74
(dp2864
sg83
g2690
sg76
(lp2865
g69
(g90
g71
NtRp2866
(dp2867
g74
(dp2868
g94
g95
ssg83
g2862
sg76
(lp2869
S'HTTP_CONTENT_TYPE'
p2870
asbag69
(g90
g71
NtRp2871
(dp2872
g74
(dp2873
g101
g102
ssg83
g2862
sg76
(lp2874
S':'
asbag69
(g90
g71
NtRp2875
(dp2876
g74
(dp2877
sg83
g2862
sg76
(lp2878
g69
(g70
g71
NtRp2879
(dp2880
g74
(dp2881
g82
I3
ssg83
g2875
sg76
(lp2882
g972
asbasbasbag69
(g85
g71
NtRp2883
(dp2884
g74
(dp2885
sg83
g2690
sg76
(lp2886
g69
(g90
g71
NtRp2887
(dp2888
g74
(dp2889
g94
g95
ssg83
g2883
sg76
(lp2890
S'HTTP_COOKIE'
p2891
asbag69
(g90
g71
NtRp2892
(dp2893
g74
(dp2894
g101
g102
ssg83
g2883
sg76
(lp2895
S':'
asbag69
(g90
g71
NtRp2896
(dp2897
g74
(dp2898
sg83
g2883
sg76
(lp2899
g69
(g70
g71
NtRp2900
(dp2901
g74
(dp2902
g82
I3
ssg83
g2896
sg76
(lp2903
g1211
asbasbasbag69
(g85
g71
NtRp2904
(dp2905
g74
(dp2906
sg83
g2690
sg76
(lp2907
g69
(g90
g71
NtRp2908
(dp2909
g74
(dp2910
g94
g95
ssg83
g2904
sg76
(lp2911
S'HTTP_HOST'
p2912
asbag69
(g90
g71
NtRp2913
(dp2914
g74
(dp2915
g101
g102
ssg83
g2904
sg76
(lp2916
S':'
asbag69
(g90
g71
NtRp2917
(dp2918
g74
(dp2919
sg83
g2904
sg76
(lp2920
g69
(g70
g71
NtRp2921
(dp2922
g74
(dp2923
g82
I3
ssg83
g2917
sg76
(lp2924
g1233
asbasbasbag69
(g85
g71
NtRp2925
(dp2926
g74
(dp2927
sg83
g2690
sg76
(lp2928
g69
(g90
g71
NtRp2929
(dp2930
g74
(dp2931
g94
g95
ssg83
g2925
sg76
(lp2932
S'HTTP_REFERER'
p2933
asbag69
(g90
g71
NtRp2934
(dp2935
g74
(dp2936
g101
g102
ssg83
g2925
sg76
(lp2937
S':'
asbag69
(g90
g71
NtRp2938
(dp2939
g74
(dp2940
sg83
g2925
sg76
(lp2941
g69
(g70
g71
NtRp2942
(dp2943
g74
(dp2944
g82
I3
ssg83
g2938
sg76
(lp2945
g1255
asbasbasbag69
(g85
g71
NtRp2946
(dp2947
g74
(dp2948
sg83
g2690
sg76
(lp2949
g69
(g90
g71
NtRp2950
(dp2951
g74
(dp2952
g94
g95
ssg83
g2946
sg76
(lp2953
S'HTTP_USER_AGENT'
p2954
asbag69
(g90
g71
NtRp2955
(dp2956
g74
(dp2957
g101
g102
ssg83
g2946
sg76
(lp2958
S':'
asbag69
(g90
g71
NtRp2959
(dp2960
g74
(dp2961
sg83
g2946
sg76
(lp2962
g69
(g70
g71
NtRp2963
(dp2964
g74
(dp2965
g82
I3
ssg83
g2959
sg76
(lp2966
g1277
asbasbasbag69
(g85
g71
NtRp2967
(dp2968
g74
(dp2969
sg83
g2690
sg76
(lp2970
g69
(g90
g71
NtRp2971
(dp2972
g74
(dp2973
g94
g95
ssg83
g2967
sg76
(lp2974
S'PATH_INFO'
p2975
asbag69
(g90
g71
NtRp2976
(dp2977
g74
(dp2978
g101
g102
ssg83
g2967
sg76
(lp2979
S':'
asbag69
(g90
g71
NtRp2980
(dp2981
g74
(dp2982
sg83
g2967
sg76
(lp2983
g69
(g70
g71
NtRp2984
(dp2985
g74
(dp2986
g82
I3
ssg83
g2980
sg76
(lp2987
g1341
asbasbasbag69
(g85
g71
NtRp2988
(dp2989
g74
(dp2990
sg83
g2690
sg76
(lp2991
g69
(g90
g71
NtRp2992
(dp2993
g74
(dp2994
g94
g95
ssg83
g2988
sg76
(lp2995
S'QUERY_STRING'
p2996
asbag69
(g90
g71
NtRp2997
(dp2998
g74
(dp2999
g101
g102
ssg83
g2988
sg76
(lp3000
S':'
asbag69
(g90
g71
NtRp3001
(dp3002
g74
(dp3003
sg83
g2988
sg76
(lp3004
g69
(g70
g71
NtRp3005
(dp3006
g74
(dp3007
g82
I3
ssg83
g3001
sg76
(lp3008
S''
asbasbasbag69
(g85
g71
NtRp3009
(dp3010
g74
(dp3011
sg83
g2690
sg76
(lp3012
g69
(g90
g71
NtRp3013
(dp3014
g74
(dp3015
g94
g95
ssg83
g3009
sg76
(lp3016
S'REMOTE_ADDR'
p3017
asbag69
(g90
g71
NtRp3018
(dp3019
g74
(dp3020
g101
g102
ssg83
g3009
sg76
(lp3021
S':'
asbag69
(g90
g71
NtRp3022
(dp3023
g74
(dp3024
sg83
g3009
sg76
(lp3025
g69
(g70
g71
NtRp3026
(dp3027
g74
(dp3028
g82
I3
ssg83
g3022
sg76
(lp3029
g202
asbasbasbag69
(g85
g71
NtRp3030
(dp3031
g74
(dp3032
sg83
g2690
sg76
(lp3033
g69
(g90
g71
NtRp3034
(dp3035
g74
(dp3036
g94
g95
ssg83
g3030
sg76
(lp3037
S'REMOTE_PORT'
p3038
asbag69
(g90
g71
NtRp3039
(dp3040
g74
(dp3041
g101
g102
ssg83
g3030
sg76
(lp3042
S':'
asbag69
(g90
g71
NtRp3043
(dp3044
g74
(dp3045
sg83
g3030
sg76
(lp3046
g69
(g70
g71
NtRp3047
(dp3048
g74
(dp3049
g82
I3
ssg83
g3043
sg76
(lp3050
g1405
asbasbasbag69
(g85
g71
NtRp3051
(dp3052
g74
(dp3053
sg83
g2690
sg76
(lp3054
g69
(g90
g71
NtRp3055
(dp3056
g74
(dp3057
g94
g95
ssg83
g3051
sg76
(lp3058
S'REQUEST_METHOD'
p3059
asbag69
(g90
g71
NtRp3060
(dp3061
g74
(dp3062
g101
g102
ssg83
g3051
sg76
(lp3063
S':'
asbag69
(g90
g71
NtRp3064
(dp3065
g74
(dp3066
sg83
g3051
sg76
(lp3067
g69
(g70
g71
NtRp3068
(dp3069
g74
(dp3070
g82
I3
ssg83
g3064
sg76
(lp3071
g1427
asbasbasbag69
(g85
g71
NtRp3072
(dp3073
g74
(dp3074
sg83
g2690
sg76
(lp3075
g69
(g90
g71
NtRp3076
(dp3077
g74
(dp3078
g94
g95
ssg83
g3072
sg76
(lp3079
S'SCRIPT_NAME'
p3080
asbag69
(g90
g71
NtRp3081
(dp3082
g74
(dp3083
g101
g102
ssg83
g3072
sg76
(lp3084
S':'
asbag69
(g90
g71
NtRp3085
(dp3086
g74
(dp3087
sg83
g3072
sg76
(lp3088
g69
(g70
g71
NtRp3089
(dp3090
g74
(dp3091
g82
I3
ssg83
g3085
sg76
(lp3092
S''
asbasbasbag69
(g85
g71
NtRp3093
(dp3094
g74
(dp3095
sg83
g2690
sg76
(lp3096
g69
(g90
g71
NtRp3097
(dp3098
g74
(dp3099
g94
g95
ssg83
g3093
sg76
(lp3100
S'SERVER_NAME'
p3101
asbag69
(g90
g71
NtRp3102
(dp3103
g74
(dp3104
g101
g102
ssg83
g3093
sg76
(lp3105
S':'
asbag69
(g90
g71
NtRp3106
(dp3107
g74
(dp3108
sg83
g3093
sg76
(lp3109
g69
(g70
g71
NtRp3110
(dp3111
g74
(dp3112
g82
I3
ssg83
g3106
sg76
(lp3113
g1470
asbasbasbag69
(g85
g71
NtRp3114
(dp3115
g74
(dp3116
sg83
g2690
sg76
(lp3117
g69
(g90
g71
NtRp3118
(dp3119
g74
(dp3120
g94
g95
ssg83
g3114
sg76
(lp3121
S'SERVER_PORT'
p3122
asbag69
(g90
g71
NtRp3123
(dp3124
g74
(dp3125
g101
g102
ssg83
g3114
sg76
(lp3126
S':'
asbag69
(g90
g71
NtRp3127
(dp3128
g74
(dp3129
sg83
g3114
sg76
(lp3130
g69
(g70
g71
NtRp3131
(dp3132
g74
(dp3133
g82
I3
ssg83
g3127
sg76
(lp3134
g1492
asbasbasbag69
(g85
g71
NtRp3135
(dp3136
g74
(dp3137
sg83
g2690
sg76
(lp3138
g69
(g90
g71
NtRp3139
(dp3140
g74
(dp3141
g94
g95
ssg83
g3135
sg76
(lp3142
S'SERVER_PROTOCOL'
p3143
asbag69
(g90
g71
NtRp3144
(dp3145
g74
(dp3146
g101
g102
ssg83
g3135
sg76
(lp3147
S':'
asbag69
(g90
g71
NtRp3148
(dp3149
g74
(dp3150
sg83
g3135
sg76
(lp3151
g69
(g70
g71
NtRp3152
(dp3153
g74
(dp3154
g82
I3
ssg83
g3148
sg76
(lp3155
g1514
asbasbasbag69
(g85
g71
NtRp3156
(dp3157
g74
(dp3158
sg83
g2690
sg76
(lp3159
g69
(g90
g71
NtRp3160
(dp3161
g74
(dp3162
g94
g95
ssg83
g3156
sg76
(lp3163
S'SERVER_SOFTWARE'
p3164
asbag69
(g90
g71
NtRp3165
(dp3166
g74
(dp3167
g101
g102
ssg83
g3156
sg76
(lp3168
S':'
asbag69
(g90
g71
NtRp3169
(dp3170
g74
(dp3171
sg83
g3156
sg76
(lp3172
g69
(g70
g71
NtRp3173
(dp3174
g74
(dp3175
g82
I3
ssg83
g3169
sg76
(lp3176
g1536
asbasbasbag69
(g85
g71
NtRp3177
(dp3178
g74
(dp3179
sg83
g2690
sg76
(lp3180
g69
(g90
g71
NtRp3181
(dp3182
g74
(dp3183
g94
g95
ssg83
g3177
sg76
(lp3184
S'wsgi.errors'
p3185
asbag69
(g90
g71
NtRp3186
(dp3187
g74
(dp3188
g101
g102
ssg83
g3177
sg76
(lp3189
S':'
asbag69
(g90
g71
NtRp3190
(dp3191
g74
(dp3192
sg83
g3177
sg76
(lp3193
g69
(g70
g71
NtRp3194
(dp3195
g74
(dp3196
g82
I3
ssg83
g3190
sg76
(lp3197
S"<open file '<stderr>', mode 'w' at 0x7f49ef740270>"
p3198
asbasbasbag69
(g85
g71
NtRp3199
(dp3200
g74
(dp3201
sg83
g2690
sg76
(lp3202
g69
(g90
g71
NtRp3203
(dp3204
g74
(dp3205
g94
g95
ssg83
g3199
sg76
(lp3206
S'wsgi.file_wrapper'
p3207
asbag69
(g90
g71
NtRp3208
(dp3209
g74
(dp3210
g101
g102
ssg83
g3199
sg76
(lp3211
S':'
asbag69
(g90
g71
NtRp3212
(dp3213
g74
(dp3214
sg83
g3199
sg76
(lp3215
g69
(g70
g71
NtRp3216
(dp3217
g74
(dp3218
g82
I3
ssg83
g3212
sg76
(lp3219
S'<class wsgiref.util.FileWrapper at 0x2e896d0>'
p3220
asbasbasbag69
(g85
g71
NtRp3221
(dp3222
g74
(dp3223
sg83
g2690
sg76
(lp3224
g69
(g90
g71
NtRp3225
(dp3226
g74
(dp3227
g94
g95
ssg83
g3221
sg76
(lp3228
S'wsgi.input'
p3229
asbag69
(g90
g71
NtRp3230
(dp3231
g74
(dp3232
g101
g102
ssg83
g3221
sg76
(lp3233
S':'
asbag69
(g90
g71
NtRp3234
(dp3235
g74
(dp3236
sg83
g3221
sg76
(lp3237
g69
(g70
g71
NtRp3238
(dp3239
g74
(dp3240
g82
I3
ssg83
g3234
sg76
(lp3241
S"<open file '<fdopen>', mode 'w+b' at 0x7f49dc1818a0>"
p3242
asbasbasbag69
(g85
g71
NtRp3243
(dp3244
g74
(dp3245
sg83
g2690
sg76
(lp3246
g69
(g90
g71
NtRp3247
(dp3248
g74
(dp3249
g94
g95
ssg83
g3243
sg76
(lp3250
S'wsgi.multiprocess'
p3251
asbag69
(g90
g71
NtRp3252
(dp3253
g74
(dp3254
g101
g102
ssg83
g3243
sg76
(lp3255
S':'
asbag69
(g90
g71
NtRp3256
(dp3257
g74
(dp3258
sg83
g3243
sg76
(lp3259
g69
(g70
g71
NtRp3260
(dp3261
g74
(dp3262
g82
I3
ssg83
g3256
sg76
(lp3263
g112
asbasbasbag69
(g85
g71
NtRp3264
(dp3265
g74
(dp3266
sg83
g2690
sg76
(lp3267
g69
(g90
g71
NtRp3268
(dp3269
g74
(dp3270
g94
g95
ssg83
g3264
sg76
(lp3271
S'wsgi.multithread'
p3272
asbag69
(g90
g71
NtRp3273
(dp3274
g74
(dp3275
g101
g102
ssg83
g3264
sg76
(lp3276
S':'
asbag69
(g90
g71
NtRp3277
(dp3278
g74
(dp3279
sg83
g3264
sg76
(lp3280
g69
(g70
g71
NtRp3281
(dp3282
g74
(dp3283
g82
I3
ssg83
g3277
sg76
(lp3284
g1776
asbasbasbag69
(g85
g71
NtRp3285
(dp3286
g74
(dp3287
sg83
g2690
sg76
(lp3288
g69
(g90
g71
NtRp3289
(dp3290
g74
(dp3291
g94
g95
ssg83
g3285
sg76
(lp3292
S'wsgi.run_once'
p3293
asbag69
(g90
g71
NtRp3294
(dp3295
g74
(dp3296
g101
g102
ssg83
g3285
sg76
(lp3297
S':'
asbag69
(g90
g71
NtRp3298
(dp3299
g74
(dp3300
sg83
g3285
sg76
(lp3301
g69
(g70
g71
NtRp3302
(dp3303
g74
(dp3304
g82
I3
ssg83
g3298
sg76
(lp3305
g112
asbasbasbag69
(g85
g71
NtRp3306
(dp3307
g74
(dp3308
sg83
g2690
sg76
(lp3309
g69
(g90
g71
NtRp3310
(dp3311
g74
(dp3312
g94
g95
ssg83
g3306
sg76
(lp3313
S'wsgi.url_scheme'
p3314
asbag69
(g90
g71
NtRp3315
(dp3316
g74
(dp3317
g101
g102
ssg83
g3306
sg76
(lp3318
S':'
asbag69
(g90
g71
NtRp3319
(dp3320
g74
(dp3321
sg83
g3306
sg76
(lp3322
g69
(g70
g71
NtRp3323
(dp3324
g74
(dp3325
g82
I3
ssg83
g3319
sg76
(lp3326
g1819
asbasbasbag69
(g85
g71
NtRp3327
(dp3328
g74
(dp3329
sg83
g2690
sg76
(lp3330
g69
(g90
g71
NtRp3331
(dp3332
g74
(dp3333
g94
g95
ssg83
g3327
sg76
(lp3334
S'wsgi.version'
p3335
asbag69
(g90
g71
NtRp3336
(dp3337
g74
(dp3338
g101
g102
ssg83
g3327
sg76
(lp3339
S':'
asbag69
(g90
g71
NtRp3340
(dp3341
g74
(dp3342
sg83
g3327
sg76
(lp3343
g69
(g70
g71
NtRp3344
(dp3345
g74
(dp3346
g82
I3
ssg83
g3340
sg76
(lp3347
S'1'
asbasbasbasbasbasbasbasbasbasbasbasbasbsS'frames'
p3348
(lp3349
(dp3350
S'file'
p3351
S'/web2py/gluon/restricted.py'
p3352
sS'dump'
p3353
(dp3354
S'code'
p3355
S"'# -*- coding: utf-8 -*-\\n\\ndef form():\\n    form=FO...m.vars=0)\\n\\nresponse._vars=response._caller(form)\\n'"
p3356
sS'layer'
p3357
S"'/web2py/applications/snapcop2/controllers/form.py'"
p3358
sS'global compile2'
p3359
S'<function compile2>'
p3360
sS'ccode'
p3361
S'undefined'
p3362
ssS'lnum'
p3363
I204
sS'lines'
p3364
(dp3365
I199
S"    environment['__name__'] = '__restricted__'"
p3366
sI200
S'    try:'
p3367
sI201
S'        if type(code) == types.CodeType:'
p3368
sI202
S'            ccode = code'
p3369
sI203
S'        else:'
p3370
sI204
S'            ccode = compile2(code,layer)'
p3371
sI205
S'        exec ccode in environment'
p3372
sI206
S'    except HTTP:'
p3373
sI207
S'        raise'
p3374
sI208
S'    except RestrictedError:'
p3375
ssS'call'
p3376
S"(code='# -*- coding: utf-8 -*-\\n\\ndef form():\\n    form=FO...m.vars=0)\\n\\nresponse._vars=response._caller(form)\\n', environment={'A': <class 'gluon.html.A'>, 'Auth': <class 'gluon.tools.Auth'>, 'B': <class 'gluon.html.B'>, 'BEAUTIFY': <class 'gluon.html.BEAUTIFY'>, 'BODY': <class 'gluon.html.BODY'>, 'BR': <class 'gluon.html.BR'>, 'BUTTON': <class 'gluon.html.BUTTON'>, 'CAT': <class 'gluon.html.CAT'>, 'CENTER': <class 'gluon.html.CENTER'>, 'CLEANUP': <class 'gluon.validators.CLEANUP'>, ...}, layer='/web2py/applications/snapcop2/controllers/form.py')"
p3377
sS'func'
p3378
S'restricted'
p3379
sa(dp3380
g3351
S'/web2py/gluon/restricted.py'
p3381
sg3353
(dp3382
S'builtincompile'
p3383
S'<built-in function compile>'
p3384
sS'code'
p3385
S"'# -*- coding: utf-8 -*-\\n\\ndef form():\\n    form=FO...m.vars=0)\\n\\nresponse._vars=response._caller(form)\\n'"
p3386
sS'code.rstrip'
p3387
S'<built-in method rstrip of str object>'
p3388
sS').replace'
p3389
g3362
sS'layer'
p3390
S"'/web2py/applications/snapcop2/controllers/form.py'"
p3391
ssg3363
I189
sg3364
(dp3392
I192
S'    """'
p3393
sI193
S'    runs code in environment and returns the output. if an exception occurs'
p3394
sI184
S''
sI185
S'def compile2(code,layer):'
p3395
sI186
S'    """'
p3396
sI187
S"    The +'\\n' is necessary else compile fails when code ends in a comment."
p3397
sI188
S'    """'
p3398
sI189
S"    return compile(code.rstrip().replace('\\r\\n','\\n')+'\\n', layer, 'exec')"
p3399
sI190
S''
sI191
S"def restricted(code, environment=None, layer='Unknown'):"
p3400
ssg3376
S"(code='# -*- coding: utf-8 -*-\\n\\ndef form():\\n    form=FO...m.vars=0)\\n\\nresponse._vars=response._caller(form)\\n', layer='/web2py/applications/snapcop2/controllers/form.py')"
p3401
sg3378
S'compile2'
p3402
sasS'pyver'
p3403
S'Python 2.7.3: /usr/bin/python'
p3404
sS'session'
p3405
g69
(g70
g71
NtRp3406
(dp3407
g74
(dp3408
sg76
(lp3409
g69
(g78
g71
NtRp3410
(dp3411
g74
(dp3412
g82
I5
ssg83
Nsg76
(lp3413
sbasbsS'etype'
p3414
S"<type 'exceptions.SyntaxError'>"
p3415
sS'date'
p3416
S'Fri Aug 24 11:25:11 2012'
p3417
sS'response'
p3418
g69
(g70
g71
NtRp3419
(dp3420
g74
(dp3421
sg76
(lp3422
g69
(g78
g71
NtRp3423
(dp3424
g74
(dp3425
g82
I5
ssg83
Nsg76
(lp3426
g69
(g85
g71
NtRp3427
(dp3428
g74
(dp3429
sg83
g3423
sg76
(lp3430
g69
(g90
g71
NtRp3431
(dp3432
g74
(dp3433
g94
g95
ssg83
g3427
sg76
(lp3434
g167
asbag69
(g90
g71
NtRp3435
(dp3436
g74
(dp3437
g101
g102
ssg83
g3427
sg76
(lp3438
S':'
asbag69
(g90
g71
NtRp3439
(dp3440
g74
(dp3441
sg83
g3427
sg76
(lp3442
g69
(g70
g71
NtRp3443
(dp3444
g74
(dp3445
g82
I5
ssg83
g3439
sg76
(lp3446
S'<cStringIO.StringO object at 0x7f49cc4a3c00>'
p3447
asbasbasbag69
(g85
g71
NtRp3448
(dp3449
g74
(dp3450
sg83
g3423
sg76
(lp3451
g69
(g90
g71
NtRp3452
(dp3453
g74
(dp3454
g94
g95
ssg83
g3448
sg76
(lp3455
g233
asbag69
(g90
g71
NtRp3456
(dp3457
g74
(dp3458
g101
g102
ssg83
g3448
sg76
(lp3459
S':'
asbag69
(g90
g71
NtRp3460
(dp3461
g74
(dp3462
sg83
g3448
sg76
(lp3463
g69
(g70
g71
NtRp3464
(dp3465
g74
(dp3466
g82
I5
ssg83
g3460
sg76
(lp3467
g69
(g78
g71
NtRp3468
(dp3469
g74
(dp3470
g82
I4
ssg83
Nsg76
(lp3471
g69
(g85
g71
NtRp3472
(dp3473
g74
(dp3474
sg83
g3468
sg76
(lp3475
g69
(g90
g71
NtRp3476
(dp3477
g74
(dp3478
g94
g95
ssg83
g3472
sg76
(lp3479
S'session_id_snapcop2'
p3480
asbag69
(g90
g71
NtRp3481
(dp3482
g74
(dp3483
g101
g102
ssg83
g3472
sg76
(lp3484
S':'
asbag69
(g90
g71
NtRp3485
(dp3486
g74
(dp3487
sg83
g3472
sg76
(lp3488
g69
(g70
g71
NtRp3489
(dp3490
g74
(dp3491
g82
I4
ssg83
g3485
sg76
(lp3492
g69
(g78
g71
NtRp3493
(dp3494
g74
(dp3495
g82
I3
ssg83
Nsg76
(lp3496
g69
(g85
g71
NtRp3497
(dp3498
g74
(dp3499
sg83
g3493
sg76
(lp3500
g69
(g90
g71
NtRp3501
(dp3502
g74
(dp3503
g94
g95
ssg83
g3497
sg76
(lp3504
g283
asbag69
(g90
g71
NtRp3505
(dp3506
g74
(dp3507
g101
g102
ssg83
g3497
sg76
(lp3508
S':'
asbag69
(g90
g71
NtRp3509
(dp3510
g74
(dp3511
sg83
g3497
sg76
(lp3512
g69
(g70
g71
NtRp3513
(dp3514
g74
(dp3515
g82
I3
ssg83
g3509
sg76
(lp3516
S''
asbasbasbag69
(g85
g71
NtRp3517
(dp3518
g74
(dp3519
sg83
g3493
sg76
(lp3520
g69
(g90
g71
NtRp3521
(dp3522
g74
(dp3523
g94
g95
ssg83
g3517
sg76
(lp3524
g304
asbag69
(g90
g71
NtRp3525
(dp3526
g74
(dp3527
g101
g102
ssg83
g3517
sg76
(lp3528
S':'
asbag69
(g90
g71
NtRp3529
(dp3530
g74
(dp3531
sg83
g3517
sg76
(lp3532
g69
(g70
g71
NtRp3533
(dp3534
g74
(dp3535
g82
I3
ssg83
g3529
sg76
(lp3536
S''
asbasbasbag69
(g85
g71
NtRp3537
(dp3538
g74
(dp3539
sg83
g3493
sg76
(lp3540
g69
(g90
g71
NtRp3541
(dp3542
g74
(dp3543
g94
g95
ssg83
g3537
sg76
(lp3544
g325
asbag69
(g90
g71
NtRp3545
(dp3546
g74
(dp3547
g101
g102
ssg83
g3537
sg76
(lp3548
S':'
asbag69
(g90
g71
NtRp3549
(dp3550
g74
(dp3551
sg83
g3537
sg76
(lp3552
g69
(g70
g71
NtRp3553
(dp3554
g74
(dp3555
g82
I3
ssg83
g3549
sg76
(lp3556
S''
asbasbasbag69
(g85
g71
NtRp3557
(dp3558
g74
(dp3559
sg83
g3493
sg76
(lp3560
g69
(g90
g71
NtRp3561
(dp3562
g74
(dp3563
g94
g95
ssg83
g3557
sg76
(lp3564
g346
asbag69
(g90
g71
NtRp3565
(dp3566
g74
(dp3567
g101
g102
ssg83
g3557
sg76
(lp3568
S':'
asbag69
(g90
g71
NtRp3569
(dp3570
g74
(dp3571
sg83
g3557
sg76
(lp3572
g69
(g70
g71
NtRp3573
(dp3574
g74
(dp3575
g82
I3
ssg83
g3569
sg76
(lp3576
S''
asbasbasbag69
(g85
g71
NtRp3577
(dp3578
g74
(dp3579
sg83
g3493
sg76
(lp3580
g69
(g90
g71
NtRp3581
(dp3582
g74
(dp3583
g94
g95
ssg83
g3577
sg76
(lp3584
g367
asbag69
(g90
g71
NtRp3585
(dp3586
g74
(dp3587
g101
g102
ssg83
g3577
sg76
(lp3588
S':'
asbag69
(g90
g71
NtRp3589
(dp3590
g74
(dp3591
sg83
g3577
sg76
(lp3592
g69
(g70
g71
NtRp3593
(dp3594
g74
(dp3595
g82
I3
ssg83
g3589
sg76
(lp3596
S''
asbasbasbag69
(g85
g71
NtRp3597
(dp3598
g74
(dp3599
sg83
g3493
sg76
(lp3600
g69
(g90
g71
NtRp3601
(dp3602
g74
(dp3603
g94
g95
ssg83
g3597
sg76
(lp3604
g388
asbag69
(g90
g71
NtRp3605
(dp3606
g74
(dp3607
g101
g102
ssg83
g3597
sg76
(lp3608
S':'
asbag69
(g90
g71
NtRp3609
(dp3610
g74
(dp3611
sg83
g3597
sg76
(lp3612
g69
(g70
g71
NtRp3613
(dp3614
g74
(dp3615
g82
I3
ssg83
g3609
sg76
(lp3616
S'/'
asbasbasbag69
(g85
g71
NtRp3617
(dp3618
g74
(dp3619
sg83
g3493
sg76
(lp3620
g69
(g90
g71
NtRp3621
(dp3622
g74
(dp3623
g94
g95
ssg83
g3617
sg76
(lp3624
g409
asbag69
(g90
g71
NtRp3625
(dp3626
g74
(dp3627
g101
g102
ssg83
g3617
sg76
(lp3628
S':'
asbag69
(g90
g71
NtRp3629
(dp3630
g74
(dp3631
sg83
g3617
sg76
(lp3632
g69
(g70
g71
NtRp3633
(dp3634
g74
(dp3635
g82
I3
ssg83
g3629
sg76
(lp3636
S''
asbasbasbag69
(g85
g71
NtRp3637
(dp3638
g74
(dp3639
sg83
g3493
sg76
(lp3640
g69
(g90
g71
NtRp3641
(dp3642
g74
(dp3643
g94
g95
ssg83
g3637
sg76
(lp3644
g430
asbag69
(g90
g71
NtRp3645
(dp3646
g74
(dp3647
g101
g102
ssg83
g3637
sg76
(lp3648
S':'
asbag69
(g90
g71
NtRp3649
(dp3650
g74
(dp3651
sg83
g3637
sg76
(lp3652
g69
(g70
g71
NtRp3653
(dp3654
g74
(dp3655
g82
I3
ssg83
g3649
sg76
(lp3656
S''
asbasbasbasbasbasbasbasbasbasbasbag69
(g85
g71
NtRp3657
(dp3658
g74
(dp3659
sg83
g3423
sg76
(lp3660
g69
(g90
g71
NtRp3661
(dp3662
g74
(dp3663
g94
g95
ssg83
g3657
sg76
(lp3664
S'delimiters'
p3665
asbag69
(g90
g71
NtRp3666
(dp3667
g74
(dp3668
g101
g102
ssg83
g3657
sg76
(lp3669
S':'
asbag69
(g90
g71
NtRp3670
(dp3671
g74
(dp3672
sg83
g3657
sg76
(lp3673
g69
(g70
g71
NtRp3674
(dp3675
g74
(dp3676
g82
I5
ssg83
g3670
sg76
(lp3677
g69
(g78
g71
NtRp3678
(dp3679
g74
(dp3680
g82
I4
ssg83
Nsg76
(lp3681
g69
(g85
g71
NtRp3682
(dp3683
g74
(dp3684
sg83
g3678
sg76
(lp3685
g69
(g90
g71
NtRp3686
(dp3687
g74
(dp3688
sg83
g3682
sg76
(lp3689
g69
(g70
g71
NtRp3690
(dp3691
g74
(dp3692
g82
I4
ssg83
g3686
sg76
(lp3693
S'{{'
p3694
asbasbasbag69
(g85
g71
NtRp3695
(dp3696
g74
(dp3697
sg83
g3678
sg76
(lp3698
g69
(g90
g71
NtRp3699
(dp3700
g74
(dp3701
sg83
g3695
sg76
(lp3702
g69
(g70
g71
NtRp3703
(dp3704
g74
(dp3705
g82
I4
ssg83
g3699
sg76
(lp3706
S'}}'
p3707
asbasbasbasbasbasbasbag69
(g85
g71
NtRp3708
(dp3709
g74
(dp3710
sg83
g3423
sg76
(lp3711
g69
(g90
g71
NtRp3712
(dp3713
g74
(dp3714
g94
g95
ssg83
g3708
sg76
(lp3715
S'files'
p3716
asbag69
(g90
g71
NtRp3717
(dp3718
g74
(dp3719
g101
g102
ssg83
g3708
sg76
(lp3720
S':'
asbag69
(g90
g71
NtRp3721
(dp3722
g74
(dp3723
sg83
g3708
sg76
(lp3724
g69
(g70
g71
NtRp3725
(dp3726
g74
(dp3727
g82
I5
ssg83
g3721
sg76
(lp3728
g69
(g78
g71
NtRp3729
(dp3730
g74
(dp3731
g82
I4
ssg83
Nsg76
(lp3732
sbasbasbasbag69
(g85
g71
NtRp3733
(dp3734
g74
(dp3735
sg83
g3423
sg76
(lp3736
g69
(g90
g71
NtRp3737
(dp3738
g74
(dp3739
g94
g95
ssg83
g3733
sg76
(lp3740
S'flash'
p3741
asbag69
(g90
g71
NtRp3742
(dp3743
g74
(dp3744
g101
g102
ssg83
g3733
sg76
(lp3745
S':'
asbag69
(g90
g71
NtRp3746
(dp3747
g74
(dp3748
sg83
g3733
sg76
(lp3749
g69
(g70
g71
NtRp3750
(dp3751
g74
(dp3752
g82
I5
ssg83
g3746
sg76
(lp3753
S''
asbasbasbag69
(g85
g71
NtRp3754
(dp3755
g74
(dp3756
sg83
g3423
sg76
(lp3757
g69
(g90
g71
NtRp3758
(dp3759
g74
(dp3760
g94
g95
ssg83
g3754
sg76
(lp3761
S'generic_patterns'
p3762
asbag69
(g90
g71
NtRp3763
(dp3764
g74
(dp3765
g101
g102
ssg83
g3754
sg76
(lp3766
S':'
asbag69
(g90
g71
NtRp3767
(dp3768
g74
(dp3769
sg83
g3754
sg76
(lp3770
g69
(g70
g71
NtRp3771
(dp3772
g74
(dp3773
g82
I5
ssg83
g3767
sg76
(lp3774
g69
(g78
g71
NtRp3775
(dp3776
g74
(dp3777
g82
I4
ssg83
Nsg76
(lp3778
g69
(g85
g71
NtRp3779
(dp3780
g74
(dp3781
sg83
g3775
sg76
(lp3782
g69
(g90
g71
NtRp3783
(dp3784
g74
(dp3785
sg83
g3779
sg76
(lp3786
g69
(g70
g71
NtRp3787
(dp3788
g74
(dp3789
g82
I4
ssg83
g3783
sg76
(lp3790
S'*'
asbasbasbasbasbasbasbag69
(g85
g71
NtRp3791
(dp3792
g74
(dp3793
sg83
g3423
sg76
(lp3794
g69
(g90
g71
NtRp3795
(dp3796
g74
(dp3797
g94
g95
ssg83
g3791
sg76
(lp3798
S'headers'
p3799
asbag69
(g90
g71
NtRp3800
(dp3801
g74
(dp3802
g101
g102
ssg83
g3791
sg76
(lp3803
S':'
asbag69
(g90
g71
NtRp3804
(dp3805
g74
(dp3806
sg83
g3791
sg76
(lp3807
g69
(g70
g71
NtRp3808
(dp3809
g74
(dp3810
g82
I5
ssg83
g3804
sg76
(lp3811
g69
(g78
g71
NtRp3812
(dp3813
g74
(dp3814
g82
I4
ssg83
Nsg76
(lp3815
g69
(g85
g71
NtRp3816
(dp3817
g74
(dp3818
sg83
g3812
sg76
(lp3819
g69
(g90
g71
NtRp3820
(dp3821
g74
(dp3822
g94
g95
ssg83
g3816
sg76
(lp3823
S'Cache-Control'
p3824
asbag69
(g90
g71
NtRp3825
(dp3826
g74
(dp3827
g101
g102
ssg83
g3816
sg76
(lp3828
S':'
asbag69
(g90
g71
NtRp3829
(dp3830
g74
(dp3831
sg83
g3816
sg76
(lp3832
g69
(g70
g71
NtRp3833
(dp3834
g74
(dp3835
g82
I4
ssg83
g3829
sg76
(lp3836
S'no-store, no-cache, must-revalidate, post-check=0, pre-check=0'
p3837
asbasbasbag69
(g85
g71
NtRp3838
(dp3839
g74
(dp3840
sg83
g3812
sg76
(lp3841
g69
(g90
g71
NtRp3842
(dp3843
g74
(dp3844
g94
g95
ssg83
g3838
sg76
(lp3845
S'Content-Type'
p3846
asbag69
(g90
g71
NtRp3847
(dp3848
g74
(dp3849
g101
g102
ssg83
g3838
sg76
(lp3850
S':'
asbag69
(g90
g71
NtRp3851
(dp3852
g74
(dp3853
sg83
g3838
sg76
(lp3854
g69
(g70
g71
NtRp3855
(dp3856
g74
(dp3857
g82
I4
ssg83
g3851
sg76
(lp3858
S'text/html; charset=utf-8'
p3859
asbasbasbag69
(g85
g71
NtRp3860
(dp3861
g74
(dp3862
sg83
g3812
sg76
(lp3863
g69
(g90
g71
NtRp3864
(dp3865
g74
(dp3866
g94
g95
ssg83
g3860
sg76
(lp3867
S'Expires'
p3868
asbag69
(g90
g71
NtRp3869
(dp3870
g74
(dp3871
g101
g102
ssg83
g3860
sg76
(lp3872
S':'
asbag69
(g90
g71
NtRp3873
(dp3874
g74
(dp3875
sg83
g3860
sg76
(lp3876
g69
(g70
g71
NtRp3877
(dp3878
g74
(dp3879
g82
I4
ssg83
g3873
sg76
(lp3880
S'Fri, 24 Aug 2012 09:25:11 GMT'
p3881
asbasbasbag69
(g85
g71
NtRp3882
(dp3883
g74
(dp3884
sg83
g3812
sg76
(lp3885
g69
(g90
g71
NtRp3886
(dp3887
g74
(dp3888
g94
g95
ssg83
g3882
sg76
(lp3889
S'Pragma'
p3890
asbag69
(g90
g71
NtRp3891
(dp3892
g74
(dp3893
g101
g102
ssg83
g3882
sg76
(lp3894
S':'
asbag69
(g90
g71
NtRp3895
(dp3896
g74
(dp3897
sg83
g3882
sg76
(lp3898
g69
(g70
g71
NtRp3899
(dp3900
g74
(dp3901
g82
I4
ssg83
g3895
sg76
(lp3902
S'no-cache'
p3903
asbasbasbag69
(g85
g71
NtRp3904
(dp3905
g74
(dp3906
sg83
g3812
sg76
(lp3907
g69
(g90
g71
NtRp3908
(dp3909
g74
(dp3910
g94
g95
ssg83
g3904
sg76
(lp3911
S'X-Powered-By'
p3912
asbag69
(g90
g71
NtRp3913
(dp3914
g74
(dp3915
g101
g102
ssg83
g3904
sg76
(lp3916
S':'
asbag69
(g90
g71
NtRp3917
(dp3918
g74
(dp3919
sg83
g3904
sg76
(lp3920
g69
(g70
g71
NtRp3921
(dp3922
g74
(dp3923
g82
I4
ssg83
g3917
sg76
(lp3924
S'web2py'
p3925
asbasbasbasbasbasbasbag69
(g85
g71
NtRp3926
(dp3927
g74
(dp3928
sg83
g3423
sg76
(lp3929
g69
(g90
g71
NtRp3930
(dp3931
g74
(dp3932
g94
g95
ssg83
g3926
sg76
(lp3933
S'menu'
p3934
asbag69
(g90
g71
NtRp3935
(dp3936
g74
(dp3937
g101
g102
ssg83
g3926
sg76
(lp3938
S':'
asbag69
(g90
g71
NtRp3939
(dp3940
g74
(dp3941
sg83
g3926
sg76
(lp3942
g69
(g70
g71
NtRp3943
(dp3944
g74
(dp3945
g82
I5
ssg83
g3939
sg76
(lp3946
g69
(g78
g71
NtRp3947
(dp3948
g74
(dp3949
g82
I4
ssg83
Nsg76
(lp3950
g69
(g85
g71
NtRp3951
(dp3952
g74
(dp3953
sg83
g3947
sg76
(lp3954
g69
(g90
g71
NtRp3955
(dp3956
g74
(dp3957
sg83
g3951
sg76
(lp3958
g69
(g70
g71
NtRp3959
(dp3960
g74
(dp3961
g82
I4
ssg83
g3955
sg76
(lp3962
g69
(g78
g71
NtRp3963
(dp3964
g74
(dp3965
g82
I3
ssg83
Nsg76
(lp3966
g69
(g85
g71
NtRp3967
(dp3968
g74
(dp3969
sg83
g3963
sg76
(lp3970
g69
(g90
g71
NtRp3971
(dp3972
g74
(dp3973
sg83
g3967
sg76
(lp3974
g69
(g70
g71
NtRp3975
(dp3976
g74
(dp3977
g82
I3
ssg83
g3971
sg76
(lp3978
cgluon.languages
lazyT_unpickle
p3979
(S't\x07\x00\x00\x00Accueil'
tRp3980
asbasbasbag69
(g85
g71
NtRp3981
(dp3982
g74
(dp3983
sg83
g3963
sg76
(lp3984
g69
(g90
g71
NtRp3985
(dp3986
g74
(dp3987
sg83
g3981
sg76
(lp3988
g69
(g70
g71
NtRp3989
(dp3990
g74
(dp3991
g82
I3
ssg83
g3985
sg76
(lp3992
g112
asbasbasbag69
(g85
g71
NtRp3993
(dp3994
g74
(dp3995
sg83
g3963
sg76
(lp3996
g69
(g90
g71
NtRp3997
(dp3998
g74
(dp3999
sg83
g3993
sg76
(lp4000
g69
(g70
g71
NtRp4001
(dp4002
g74
(dp4003
g82
I3
ssg83
g3997
sg76
(lp4004
S'/snapcop2/default/index'
p4005
asbasbasbag69
(g85
g71
NtRp4006
(dp4007
g74
(dp4008
sg83
g3963
sg76
(lp4009
g69
(g90
g71
NtRp4010
(dp4011
g74
(dp4012
sg83
g4006
sg76
(lp4013
g69
(g70
g71
NtRp4014
(dp4015
g74
(dp4016
g82
I3
ssg83
g4010
sg76
(lp4017
g69
(g78
g71
NtRp4018
(dp4019
g74
(dp4020
g82
I2
ssg83
Nsg76
(lp4021
sbasbasbasbasbasbasbasbag69
(g85
g71
NtRp4022
(dp4023
g74
(dp4024
sg83
g3947
sg76
(lp4025
g69
(g90
g71
NtRp4026
(dp4027
g74
(dp4028
sg83
g4022
sg76
(lp4029
g69
(g70
g71
NtRp4030
(dp4031
g74
(dp4032
g82
I4
ssg83
g4026
sg76
(lp4033
g69
(g78
g71
NtRp4034
(dp4035
g74
(dp4036
g82
I3
ssg83
Nsg76
(lp4037
g69
(g85
g71
NtRp4038
(dp4039
g74
(dp4040
sg83
g4034
sg76
(lp4041
g69
(g90
g71
NtRp4042
(dp4043
g74
(dp4044
sg83
g4038
sg76
(lp4045
g69
(g70
g71
NtRp4046
(dp4047
g74
(dp4048
g82
I3
ssg83
g4042
sg76
(lp4049
g69
(cgluon.html
SPAN
p4050
g71
NtRp4051
(dp4052
g74
(dp4053
g94
S'color:yellow'
p4054
ssg83
Nsg76
(lp4055
g3925
asbasbasbasbag69
(g85
g71
NtRp4056
(dp4057
g74
(dp4058
sg83
g4034
sg76
(lp4059
g69
(g90
g71
NtRp4060
(dp4061
g74
(dp4062
sg83
g4056
sg76
(lp4063
g69
(g70
g71
NtRp4064
(dp4065
g74
(dp4066
g82
I3
ssg83
g4060
sg76
(lp4067
g112
asbasbasbag69
(g85
g71
NtRp4068
(dp4069
g74
(dp4070
sg83
g4034
sg76
(lp4071
g69
(g90
g71
NtRp4072
(dp4073
g74
(dp4074
sg83
g4068
sg76
(lp4075
g69
(g70
g71
NtRp4076
(dp4077
g74
(dp4078
g82
I3
ssg83
g4072
sg76
(lp4079
S'None'
p4080
asbasbasbag69
(g85
g71
NtRp4081
(dp4082
g74
(dp4083
sg83
g4034
sg76
(lp4084
g69
(g90
g71
NtRp4085
(dp4086
g74
(dp4087
sg83
g4081
sg76
(lp4088
g69
(g70
g71
NtRp4089
(dp4090
g74
(dp4091
g82
I3
ssg83
g4085
sg76
(lp4092
g69
(g78
g71
NtRp4093
(dp4094
g74
(dp4095
g82
I2
ssg83
Nsg76
(lp4096
g69
(g85
g71
NtRp4097
(dp4098
g74
(dp4099
sg83
g4093
sg76
(lp4100
g69
(g90
g71
NtRp4101
(dp4102
g74
(dp4103
sg83
g4097
sg76
(lp4104
g69
(g70
g71
NtRp4105
(dp4106
g74
(dp4107
g82
I2
ssg83
g4101
sg76
(lp4108
g69
(g78
g71
NtRp4109
(dp4110
g74
(dp4111
g82
I1
ssg83
Nsg76
(lp4112
g69
(g85
g71
NtRp4113
(dp4114
g74
(dp4115
sg83
g4109
sg76
(lp4116
g69
(g90
g71
NtRp4117
(dp4118
g74
(dp4119
sg83
g4113
sg76
(lp4120
g69
(g70
g71
NtRp4121
(dp4122
g74
(dp4123
g82
I1
ssg83
g4117
sg76
(lp4124
g3979
(S's\x08\x00\x00\x00My Sites'
tRp4125
asbasbasbag69
(g85
g71
NtRp4126
(dp4127
g74
(dp4128
sg83
g4109
sg76
(lp4129
g69
(g90
g71
NtRp4130
(dp4131
g74
(dp4132
sg83
g4126
sg76
(lp4133
g69
(g70
g71
NtRp4134
(dp4135
g74
(dp4136
g82
I1
ssg83
g4130
sg76
(lp4137
I00
asbasbasbag69
(g85
g71
NtRp4138
(dp4139
g74
(dp4140
sg83
g4109
sg76
(lp4141
g69
(g90
g71
NtRp4142
(dp4143
g74
(dp4144
sg83
g4138
sg76
(lp4145
g69
(g70
g71
NtRp4146
(dp4147
g74
(dp4148
g82
I1
ssg83
g4142
sg76
(lp4149
S'/admin/default/site'
p4150
asbasbasbasbasbasbasbag69
(g85
g71
NtRp4151
(dp4152
g74
(dp4153
sg83
g4093
sg76
(lp4154
g69
(g90
g71
NtRp4155
(dp4156
g74
(dp4157
sg83
g4151
sg76
(lp4158
g69
(g70
g71
NtRp4159
(dp4160
g74
(dp4161
g82
I2
ssg83
g4155
sg76
(lp4162
g69
(g78
g71
NtRp4163
(dp4164
g74
(dp4165
g82
I1
ssg83
Nsg76
(lp4166
g69
(g85
g71
NtRp4167
(dp4168
g74
(dp4169
sg83
g4163
sg76
(lp4170
g69
(g90
g71
NtRp4171
(dp4172
g74
(dp4173
sg83
g4167
sg76
(lp4174
g69
(g70
g71
NtRp4175
(dp4176
g74
(dp4177
g82
I1
ssg83
g4171
sg76
(lp4178
g3979
(S's\x0b\x00\x00\x00Cette Appli'
tRp4179
asbasbasbag69
(g85
g71
NtRp4180
(dp4181
g74
(dp4182
sg83
g4163
sg76
(lp4183
g69
(g90
g71
NtRp4184
(dp4185
g74
(dp4186
sg83
g4180
sg76
(lp4187
g69
(g70
g71
NtRp4188
(dp4189
g74
(dp4190
g82
I1
ssg83
g4184
sg76
(lp4191
I00
asbasbasbag69
(g85
g71
NtRp4192
(dp4193
g74
(dp4194
sg83
g4163
sg76
(lp4195
g69
(g90
g71
NtRp4196
(dp4197
g74
(dp4198
sg83
g4192
sg76
(lp4199
g69
(g70
g71
NtRp4200
(dp4201
g74
(dp4202
g82
I1
ssg83
g4196
sg76
(lp4203
S'/admin/default/design/snapcop2'
p4204
asbasbasbag69
(g85
g71
NtRp4205
(dp4206
g74
(dp4207
sg83
g4163
sg76
(lp4208
g69
(g90
g71
NtRp4209
(dp4210
g74
(dp4211
sg83
g4205
sg76
(lp4212
g69
(g70
g71
NtRp4213
(dp4214
g74
(dp4215
g82
I1
ssg83
g4209
sg76
(lp4216
(lp4217
(g3979
(S's\x0b\x00\x00\x00Contr\xc3\xb4leur'
tRp4218
I00
S'/admin/default/edit/snapcop2/controllers/form.py'
tp4219
a(g3979
(S's\r\x00\x00\x00Pr\xc3\xa9sentation'
tRp4220
I00
S'/admin/default/edit/snapcop2/views/form/form.html'
tp4221
a(g3979
(S's\x0c\x00\x00\x00Mise en page'
tRp4222
I00
S'/admin/default/edit/snapcop2/views/layout.html'
tp4223
a(g3979
(S's\x10\x00\x00\x00Feuille de style'
tRp4224
I00
S'/admin/default/edit/snapcop2/static/css/web2py.css'
tp4225
a(g3979
(S's\n\x00\x00\x00Mod\xc3\xa8le DB'
tRp4226
I00
S'/admin/default/edit/snapcop2/models/db.py'
tp4227
a(g3979
(S's\x0c\x00\x00\x00Menu mod\xc3\xa8le'
tRp4228
I00
S'/admin/default/edit/snapcop2/models/menu.py'
tp4229
a(g3979
(S's\x10\x00\x00\x00Base de donn\xc3\xa9es'
tRp4230
I00
S'/snapcop2/appadmin/index'
tp4231
a(g3979
(S't\x07\x00\x00\x00Erreurs'
tRp4232
I00
S'/admin/default/errors/snapcop2'
tp4233
a(g3979
(S's\t\x00\x00\x00\xc3\x80 propos'
tRp4234
I00
S'/admin/default/about/snapcop2'
tp4235
aasbasbasbasbasbasbasbag69
(g85
g71
NtRp4236
(dp4237
g74
(dp4238
sg83
g4093
sg76
(lp4239
g69
(g90
g71
NtRp4240
(dp4241
g74
(dp4242
sg83
g4236
sg76
(lp4243
g69
(g70
g71
NtRp4244
(dp4245
g74
(dp4246
g82
I2
ssg83
g4240
sg76
(lp4247
g69
(g78
g71
NtRp4248
(dp4249
g74
(dp4250
g82
I1
ssg83
Nsg76
(lp4251
g69
(g85
g71
NtRp4252
(dp4253
g74
(dp4254
sg83
g4248
sg76
(lp4255
g69
(g90
g71
NtRp4256
(dp4257
g74
(dp4258
sg83
g4252
sg76
(lp4259
g69
(g70
g71
NtRp4260
(dp4261
g74
(dp4262
g82
I1
ssg83
g4256
sg76
(lp4263
S'web2py.com'
p4264
asbasbasbag69
(g85
g71
NtRp4265
(dp4266
g74
(dp4267
sg83
g4248
sg76
(lp4268
g69
(g90
g71
NtRp4269
(dp4270
g74
(dp4271
sg83
g4265
sg76
(lp4272
g69
(g70
g71
NtRp4273
(dp4274
g74
(dp4275
g82
I1
ssg83
g4269
sg76
(lp4276
I00
asbasbasbag69
(g85
g71
NtRp4277
(dp4278
g74
(dp4279
sg83
g4248
sg76
(lp4280
g69
(g90
g71
NtRp4281
(dp4282
g74
(dp4283
sg83
g4277
sg76
(lp4284
g69
(g70
g71
NtRp4285
(dp4286
g74
(dp4287
g82
I1
ssg83
g4281
sg76
(lp4288
S'http://www.web2py.com'
p4289
asbasbasbag69
(g85
g71
NtRp4290
(dp4291
g74
(dp4292
sg83
g4248
sg76
(lp4293
g69
(g90
g71
NtRp4294
(dp4295
g74
(dp4296
sg83
g4290
sg76
(lp4297
g69
(g70
g71
NtRp4298
(dp4299
g74
(dp4300
g82
I1
ssg83
g4294
sg76
(lp4301
(lp4302
(g3979
(S's\x10\x00\x00\x00T\xc3\xa9l\xc3\xa9chargement'
tRp4303
I00
S'http://www.web2py.com/examples/default/download'
p4304
tp4305
a(g3979
(S't\x07\x00\x00\x00Support'
tRp4306
I00
S'http://www.web2py.com/examples/default/support'
p4307
tp4308
a(g3979
(S's\x05\x00\x00\x00D\xc3\xa9mo'
tRp4309
I00
S'http://web2py.com/demo_admin'
p4310
tp4311
a(g3979
(S's\x10\x00\x00\x00Examples Rapides'
tRp4312
I00
S'http://web2py.com/examples/default/examples'
p4313
tp4314
a(g3979
(S't\x03\x00\x00\x00FAQ'
tRp4315
I00
S'http://web2py.com/AlterEgo'
p4316
tp4317
a(g3979
(S's\x07\x00\x00\x00Vid\xc3\xa9os'
tRp4318
I00
S'http://www.web2py.com/examples/default/videos/'
p4319
tp4320
a(g3979
(S's\x16\x00\x00\x00Applications gratuites'
tRp4321
I00
S'http://web2py.com/appliances'
p4322
tp4323
a(g3979
(S't\n\x00\x00\x00Plugiciels'
tRp4324
I00
S'http://web2py.com/plugins'
p4325
tp4326
a(g3979
(S't\x07\x00\x00\x00Layouts'
tRp4327
I00
S'http://web2py.com/layouts'
p4328
tp4329
a(g3979
(S't\x08\x00\x00\x00Recettes'
tRp4330
I00
S'http://web2pyslices.com/'
p4331
tp4332
a(g3979
(S's\x0b\x00\x00\x00S\xc3\xa9mantique'
tRp4333
I00
S'http://web2py.com/semantic'
p4334
tp4335
aasbasbasbasbasbasbasbag69
(g85
g71
NtRp4336
(dp4337
g74
(dp4338
sg83
g4093
sg76
(lp4339
g69
(g90
g71
NtRp4340
(dp4341
g74
(dp4342
sg83
g4336
sg76
(lp4343
g69
(g70
g71
NtRp4344
(dp4345
g74
(dp4346
g82
I2
ssg83
g4340
sg76
(lp4347
g69
(g78
g71
NtRp4348
(dp4349
g74
(dp4350
g82
I1
ssg83
Nsg76
(lp4351
g69
(g85
g71
NtRp4352
(dp4353
g74
(dp4354
sg83
g4348
sg76
(lp4355
g69
(g90
g71
NtRp4356
(dp4357
g74
(dp4358
sg83
g4352
sg76
(lp4359
g69
(g70
g71
NtRp4360
(dp4361
g74
(dp4362
g82
I1
ssg83
g4356
sg76
(lp4363
g3979
(S't\r\x00\x00\x00Documentation'
tRp4364
asbasbasbag69
(g85
g71
NtRp4365
(dp4366
g74
(dp4367
sg83
g4348
sg76
(lp4368
g69
(g90
g71
NtRp4369
(dp4370
g74
(dp4371
sg83
g4365
sg76
(lp4372
g69
(g70
g71
NtRp4373
(dp4374
g74
(dp4375
g82
I1
ssg83
g4369
sg76
(lp4376
I00
asbasbasbag69
(g85
g71
NtRp4377
(dp4378
g74
(dp4379
sg83
g4348
sg76
(lp4380
g69
(g90
g71
NtRp4381
(dp4382
g74
(dp4383
sg83
g4377
sg76
(lp4384
g69
(g70
g71
NtRp4385
(dp4386
g74
(dp4387
g82
I1
ssg83
g4381
sg76
(lp4388
S'http://www.web2py.com/book'
p4389
asbasbasbag69
(g85
g71
NtRp4390
(dp4391
g74
(dp4392
sg83
g4348
sg76
(lp4393
g69
(g90
g71
NtRp4394
(dp4395
g74
(dp4396
sg83
g4390
sg76
(lp4397
g69
(g70
g71
NtRp4398
(dp4399
g74
(dp4400
g82
I1
ssg83
g4394
sg76
(lp4401
(lp4402
(g3979
(S's\x08\x00\x00\x00Pr\xc3\xa9face'
tRp4403
I00
S'http://www.web2py.com/book/default/chapter/00'
p4404
tp4405
a(g3979
(S't\x0c\x00\x00\x00Introduction'
tRp4406
I00
S'http://www.web2py.com/book/default/chapter/01'
p4407
tp4408
a(g3979
(S't\x06\x00\x00\x00Python'
tRp4409
I00
S'http://www.web2py.com/book/default/chapter/02'
p4410
tp4411
a(g3979
(S's\r\x00\x00\x00Pr\xc3\xa9sentation'
tRp4412
I00
S'http://www.web2py.com/book/default/chapter/03'
p4413
tp4414
a(g3979
(S's\x08\x00\x00\x00Le noyau'
tRp4415
I00
S'http://www.web2py.com/book/default/chapter/04'
p4416
tp4417
a(g3979
(S's\x08\x00\x00\x00Les Vues'
tRp4418
I00
S'http://www.web2py.com/book/default/chapter/05'
p4419
tp4420
a(g3979
(S's\x10\x00\x00\x00Base de donn\xc3\xa9es'
tRp4421
I00
S'http://www.web2py.com/book/default/chapter/06'
p4422
tp4423
a(g3979
(S's\x1a\x00\x00\x00Formulaires et Validateurs'
tRp4424
I00
S'http://www.web2py.com/book/default/chapter/07'
p4425
tp4426
a(g3979
(S's\r\x00\x00\x00Email and SMS'
tRp4427
I00
S'http://www.web2py.com/book/default/chapter/08'
p4428
tp4429
a(g3979
(S"s\x12\x00\x00\x00Contr\xc3\xb4le d'acc\xc3\xa8s"
tRp4430
I00
S'http://www.web2py.com/book/default/chapter/09'
p4431
tp4432
a(g3979
(S't\x08\x00\x00\x00Services'
tRp4433
I00
S'http://www.web2py.com/book/default/chapter/10'
p4434
tp4435
a(g3979
(S's\r\x00\x00\x00Recettes Ajax'
tRp4436
I00
S'http://www.web2py.com/book/default/chapter/11'
p4437
tp4438
a(g3979
(S's\x16\x00\x00\x00Components and Plugins'
tRp4439
I00
S'http://www.web2py.com/book/default/chapter/12'
p4440
tp4441
a(g3979
(S's\x18\x00\x00\x00Recettes de d\xc3\xa9ploiement'
tRp4442
I00
S'http://www.web2py.com/book/default/chapter/13'
p4443
tp4444
a(g3979
(S's\x0f\x00\x00\x00Autres recettes'
tRp4445
I00
S'http://www.web2py.com/book/default/chapter/14'
p4446
tp4447
a(g3979
(S's\x10\x00\x00\x00Acheter ce livre'
tRp4448
I00
S'http://stores.lulu.com/web2py'
p4449
tp4450
aasbasbasbasbasbasbasbag69
(g85
g71
NtRp4451
(dp4452
g74
(dp4453
sg83
g4093
sg76
(lp4454
g69
(g90
g71
NtRp4455
(dp4456
g74
(dp4457
sg83
g4451
sg76
(lp4458
g69
(g70
g71
NtRp4459
(dp4460
g74
(dp4461
g82
I2
ssg83
g4455
sg76
(lp4462
g69
(g78
g71
NtRp4463
(dp4464
g74
(dp4465
g82
I1
ssg83
Nsg76
(lp4466
g69
(g85
g71
NtRp4467
(dp4468
g74
(dp4469
sg83
g4463
sg76
(lp4470
g69
(g90
g71
NtRp4471
(dp4472
g74
(dp4473
sg83
g4467
sg76
(lp4474
g69
(g70
g71
NtRp4475
(dp4476
g74
(dp4477
g82
I1
ssg83
g4471
sg76
(lp4478
g3979
(S's\x0b\x00\x00\x00Communaut\xc3\xa9'
tRp4479
asbasbasbag69
(g85
g71
NtRp4480
(dp4481
g74
(dp4482
sg83
g4463
sg76
(lp4483
g69
(g90
g71
NtRp4484
(dp4485
g74
(dp4486
sg83
g4480
sg76
(lp4487
g69
(g70
g71
NtRp4488
(dp4489
g74
(dp4490
g82
I1
ssg83
g4484
sg76
(lp4491
I00
asbasbasbag69
(g85
g71
NtRp4492
(dp4493
g74
(dp4494
sg83
g4463
sg76
(lp4495
g69
(g90
g71
NtRp4496
(dp4497
g74
(dp4498
sg83
g4492
sg76
(lp4499
g69
(g70
g71
NtRp4500
(dp4501
g74
(dp4502
g82
I1
ssg83
g4496
sg76
(lp4503
Nasbasbasbag69
(g85
g71
NtRp4504
(dp4505
g74
(dp4506
sg83
g4463
sg76
(lp4507
g69
(g90
g71
NtRp4508
(dp4509
g74
(dp4510
sg83
g4504
sg76
(lp4511
g69
(g70
g71
NtRp4512
(dp4513
g74
(dp4514
g82
I1
ssg83
g4508
sg76
(lp4515
(lp4516
(g3979
(S't\x06\x00\x00\x00Groups'
tRp4517
I00
S'http://www.web2py.com/examples/default/usergroups'
p4518
tp4519
a(g3979
(S't\x07\x00\x00\x00Twitter'
tRp4520
I00
S'http://twitter.com/web2py'
p4521
tp4522
a(g3979
(S's\t\x00\x00\x00Live Chat'
tRp4523
I00
S'http://webchat.freenode.net/?channels=web2py'
p4524
tp4525
aasbasbasbasbasbasbasbag69
(g85
g71
NtRp4526
(dp4527
g74
(dp4528
sg83
g4093
sg76
(lp4529
g69
(g90
g71
NtRp4530
(dp4531
g74
(dp4532
sg83
g4526
sg76
(lp4533
g69
(g70
g71
NtRp4534
(dp4535
g74
(dp4536
g82
I2
ssg83
g4530
sg76
(lp4537
g69
(g78
g71
NtRp4538
(dp4539
g74
(dp4540
g82
I1
ssg83
Nsg76
(lp4541
g69
(g85
g71
NtRp4542
(dp4543
g74
(dp4544
sg83
g4538
sg76
(lp4545
g69
(g90
g71
NtRp4546
(dp4547
g74
(dp4548
sg83
g4542
sg76
(lp4549
g69
(g70
g71
NtRp4550
(dp4551
g74
(dp4552
g82
I1
ssg83
g4546
sg76
(lp4553
g3979
(S't\n\x00\x00\x00Plugiciels'
tRp4554
asbasbasbag69
(g85
g71
NtRp4555
(dp4556
g74
(dp4557
sg83
g4538
sg76
(lp4558
g69
(g90
g71
NtRp4559
(dp4560
g74
(dp4561
sg83
g4555
sg76
(lp4562
g69
(g70
g71
NtRp4563
(dp4564
g74
(dp4565
g82
I1
ssg83
g4559
sg76
(lp4566
I00
asbasbasbag69
(g85
g71
NtRp4567
(dp4568
g74
(dp4569
sg83
g4538
sg76
(lp4570
g69
(g90
g71
NtRp4571
(dp4572
g74
(dp4573
sg83
g4567
sg76
(lp4574
g69
(g70
g71
NtRp4575
(dp4576
g74
(dp4577
g82
I1
ssg83
g4571
sg76
(lp4578
Nasbasbasbag69
(g85
g71
NtRp4579
(dp4580
g74
(dp4581
sg83
g4538
sg76
(lp4582
g69
(g90
g71
NtRp4583
(dp4584
g74
(dp4585
sg83
g4579
sg76
(lp4586
g69
(g70
g71
NtRp4587
(dp4588
g74
(dp4589
g82
I1
ssg83
g4583
sg76
(lp4590
(lp4591
(S'plugin_wiki'
p4592
I00
S'http://web2py.com/examples/default/download'
p4593
tp4594
a(g3979
(S's\r\x00\x00\x00Other Plugins'
tRp4595
I00
g4325
tp4596
a(g3979
(S's\x0e\x00\x00\x00Layout Plugins'
tRp4597
I00
g4328
tp4598
aasbasbasbasbasbasbasbasbasbasbasbasbasbasbasbasbasbasbasbag69
(g85
g71
NtRp4599
(dp4600
g74
(dp4601
sg83
g3423
sg76
(lp4602
g69
(g90
g71
NtRp4603
(dp4604
g74
(dp4605
g94
g95
ssg83
g4599
sg76
(lp4606
S'meta'
p4607
asbag69
(g90
g71
NtRp4608
(dp4609
g74
(dp4610
g101
g102
ssg83
g4599
sg76
(lp4611
S':'
asbag69
(g90
g71
NtRp4612
(dp4613
g74
(dp4614
sg83
g4599
sg76
(lp4615
g69
(g70
g71
NtRp4616
(dp4617
g74
(dp4618
g82
I5
ssg83
g4612
sg76
(lp4619
g69
(g78
g71
NtRp4620
(dp4621
g74
(dp4622
g82
I4
ssg83
Nsg76
(lp4623
g69
(g85
g71
NtRp4624
(dp4625
g74
(dp4626
sg83
g4620
sg76
(lp4627
g69
(g90
g71
NtRp4628
(dp4629
g74
(dp4630
g94
g95
ssg83
g4624
sg76
(lp4631
S'author'
p4632
asbag69
(g90
g71
NtRp4633
(dp4634
g74
(dp4635
g101
g102
ssg83
g4624
sg76
(lp4636
S':'
asbag69
(g90
g71
NtRp4637
(dp4638
g74
(dp4639
sg83
g4624
sg76
(lp4640
g69
(g70
g71
NtRp4641
(dp4642
g74
(dp4643
g82
I4
ssg83
g4637
sg76
(lp4644
S'Your Name <you@example.com>'
p4645
asbasbasbag69
(g85
g71
NtRp4646
(dp4647
g74
(dp4648
sg83
g4620
sg76
(lp4649
g69
(g90
g71
NtRp4650
(dp4651
g74
(dp4652
g94
g95
ssg83
g4646
sg76
(lp4653
S'copyright'
p4654
asbag69
(g90
g71
NtRp4655
(dp4656
g74
(dp4657
g101
g102
ssg83
g4646
sg76
(lp4658
S':'
asbag69
(g90
g71
NtRp4659
(dp4660
g74
(dp4661
sg83
g4646
sg76
(lp4662
g69
(g70
g71
NtRp4663
(dp4664
g74
(dp4665
g82
I4
ssg83
g4659
sg76
(lp4666
S'Copyright 2011'
p4667
asbasbasbag69
(g85
g71
NtRp4668
(dp4669
g74
(dp4670
sg83
g4620
sg76
(lp4671
g69
(g90
g71
NtRp4672
(dp4673
g74
(dp4674
g94
g95
ssg83
g4668
sg76
(lp4675
S'description'
p4676
asbag69
(g90
g71
NtRp4677
(dp4678
g74
(dp4679
g101
g102
ssg83
g4668
sg76
(lp4680
S':'
asbag69
(g90
g71
NtRp4681
(dp4682
g74
(dp4683
sg83
g4668
sg76
(lp4684
g69
(g70
g71
NtRp4685
(dp4686
g74
(dp4687
g82
I4
ssg83
g4681
sg76
(lp4688
S'a cool new app'
p4689
asbasbasbag69
(g85
g71
NtRp4690
(dp4691
g74
(dp4692
sg83
g4620
sg76
(lp4693
g69
(g90
g71
NtRp4694
(dp4695
g74
(dp4696
g94
g95
ssg83
g4690
sg76
(lp4697
S'generator'
p4698
asbag69
(g90
g71
NtRp4699
(dp4700
g74
(dp4701
g101
g102
ssg83
g4690
sg76
(lp4702
S':'
asbag69
(g90
g71
NtRp4703
(dp4704
g74
(dp4705
sg83
g4690
sg76
(lp4706
g69
(g70
g71
NtRp4707
(dp4708
g74
(dp4709
g82
I4
ssg83
g4703
sg76
(lp4710
S'Web2py Web Framework'
p4711
asbasbasbag69
(g85
g71
NtRp4712
(dp4713
g74
(dp4714
sg83
g4620
sg76
(lp4715
g69
(g90
g71
NtRp4716
(dp4717
g74
(dp4718
g94
g95
ssg83
g4712
sg76
(lp4719
S'keywords'
p4720
asbag69
(g90
g71
NtRp4721
(dp4722
g74
(dp4723
g101
g102
ssg83
g4712
sg76
(lp4724
S':'
asbag69
(g90
g71
NtRp4725
(dp4726
g74
(dp4727
sg83
g4712
sg76
(lp4728
g69
(g70
g71
NtRp4729
(dp4730
g74
(dp4731
g82
I4
ssg83
g4725
sg76
(lp4732
S'web2py, python, framework'
p4733
asbasbasbasbasbasbasbag69
(g85
g71
NtRp4734
(dp4735
g74
(dp4736
sg83
g3423
sg76
(lp4737
g69
(g90
g71
NtRp4738
(dp4739
g74
(dp4740
g94
g95
ssg83
g4734
sg76
(lp4741
S'postprocessing'
p4742
asbag69
(g90
g71
NtRp4743
(dp4744
g74
(dp4745
g101
g102
ssg83
g4734
sg76
(lp4746
S':'
asbag69
(g90
g71
NtRp4747
(dp4748
g74
(dp4749
sg83
g4734
sg76
(lp4750
g69
(g70
g71
NtRp4751
(dp4752
g74
(dp4753
g82
I5
ssg83
g4747
sg76
(lp4754
g69
(g78
g71
NtRp4755
(dp4756
g74
(dp4757
g82
I4
ssg83
Nsg76
(lp4758
sbasbasbasbag69
(g85
g71
NtRp4759
(dp4760
g74
(dp4761
sg83
g3423
sg76
(lp4762
g69
(g90
g71
NtRp4763
(dp4764
g74
(dp4765
g94
g95
ssg83
g4759
sg76
(lp4766
S'session_file'
p4767
asbag69
(g90
g71
NtRp4768
(dp4769
g74
(dp4770
g101
g102
ssg83
g4759
sg76
(lp4771
S':'
asbag69
(g90
g71
NtRp4772
(dp4773
g74
(dp4774
sg83
g4759
sg76
(lp4775
g69
(g70
g71
NtRp4776
(dp4777
g74
(dp4778
g82
I5
ssg83
g4772
sg76
(lp4779
S"<open file '/web2py/applications/snapcop2/sessions/127.0.0.1-0073d425-a119-4e19-84f5-89d928efdc66', mode 'rb+' at 0x7f49dc1816f0>"
p4780
asbasbasbag69
(g85
g71
NtRp4781
(dp4782
g74
(dp4783
sg83
g3423
sg76
(lp4784
g69
(g90
g71
NtRp4785
(dp4786
g74
(dp4787
g94
g95
ssg83
g4781
sg76
(lp4788
S'session_filename'
p4789
asbag69
(g90
g71
NtRp4790
(dp4791
g74
(dp4792
g101
g102
ssg83
g4781
sg76
(lp4793
S':'
asbag69
(g90
g71
NtRp4794
(dp4795
g74
(dp4796
sg83
g4781
sg76
(lp4797
g69
(g70
g71
NtRp4798
(dp4799
g74
(dp4800
g82
I5
ssg83
g4794
sg76
(lp4801
S'/web2py/applications/snapcop2/sessions/127.0.0.1-0073d425-a119-4e19-84f5-89d928efdc66'
p4802
asbasbasbag69
(g85
g71
NtRp4803
(dp4804
g74
(dp4805
sg83
g3423
sg76
(lp4806
g69
(g90
g71
NtRp4807
(dp4808
g74
(dp4809
g94
g95
ssg83
g4803
sg76
(lp4810
S'session_id'
p4811
asbag69
(g90
g71
NtRp4812
(dp4813
g74
(dp4814
g101
g102
ssg83
g4803
sg76
(lp4815
S':'
asbag69
(g90
g71
NtRp4816
(dp4817
g74
(dp4818
sg83
g4803
sg76
(lp4819
g69
(g70
g71
NtRp4820
(dp4821
g74
(dp4822
g82
I5
ssg83
g4816
sg76
(lp4823
S'127.0.0.1-0073d425-a119-4e19-84f5-89d928efdc66'
p4824
asbasbasbag69
(g85
g71
NtRp4825
(dp4826
g74
(dp4827
sg83
g3423
sg76
(lp4828
g69
(g90
g71
NtRp4829
(dp4830
g74
(dp4831
g94
g95
ssg83
g4825
sg76
(lp4832
S'session_id_name'
p4833
asbag69
(g90
g71
NtRp4834
(dp4835
g74
(dp4836
g101
g102
ssg83
g4825
sg76
(lp4837
S':'
asbag69
(g90
g71
NtRp4838
(dp4839
g74
(dp4840
sg83
g4825
sg76
(lp4841
g69
(g70
g71
NtRp4842
(dp4843
g74
(dp4844
g82
I5
ssg83
g4838
sg76
(lp4845
g3480
asbasbasbag69
(g85
g71
NtRp4846
(dp4847
g74
(dp4848
sg83
g3423
sg76
(lp4849
g69
(g90
g71
NtRp4850
(dp4851
g74
(dp4852
g94
g95
ssg83
g4846
sg76
(lp4853
S'session_locked'
p4854
asbag69
(g90
g71
NtRp4855
(dp4856
g74
(dp4857
g101
g102
ssg83
g4846
sg76
(lp4858
S':'
asbag69
(g90
g71
NtRp4859
(dp4860
g74
(dp4861
sg83
g4846
sg76
(lp4862
g69
(g70
g71
NtRp4863
(dp4864
g74
(dp4865
g82
I5
ssg83
g4859
sg76
(lp4866
g1776
asbasbasbag69
(g85
g71
NtRp4867
(dp4868
g74
(dp4869
sg83
g3423
sg76
(lp4870
g69
(g90
g71
NtRp4871
(dp4872
g74
(dp4873
g94
g95
ssg83
g4867
sg76
(lp4874
S'session_new'
p4875
asbag69
(g90
g71
NtRp4876
(dp4877
g74
(dp4878
g101
g102
ssg83
g4867
sg76
(lp4879
S':'
asbag69
(g90
g71
NtRp4880
(dp4881
g74
(dp4882
sg83
g4867
sg76
(lp4883
g69
(g70
g71
NtRp4884
(dp4885
g74
(dp4886
g82
I5
ssg83
g4880
sg76
(lp4887
g112
asbasbasbag69
(g85
g71
NtRp4888
(dp4889
g74
(dp4890
sg83
g3423
sg76
(lp4891
g69
(g90
g71
NtRp4892
(dp4893
g74
(dp4894
g94
g95
ssg83
g4888
sg76
(lp4895
S'status'
p4896
asbag69
(g90
g71
NtRp4897
(dp4898
g74
(dp4899
g101
g102
ssg83
g4888
sg76
(lp4900
S':'
asbag69
(g90
g71
NtRp4901
(dp4902
g74
(dp4903
sg83
g4888
sg76
(lp4904
g69
(g70
g71
NtRp4905
(dp4906
g74
(dp4907
g82
I5
ssg83
g4901
sg76
(lp4908
S'200'
p4909
asbasbasbag69
(g85
g71
NtRp4910
(dp4911
g74
(dp4912
sg83
g3423
sg76
(lp4913
g69
(g90
g71
NtRp4914
(dp4915
g74
(dp4916
g94
g95
ssg83
g4910
sg76
(lp4917
S'subtitle'
p4918
asbag69
(g90
g71
NtRp4919
(dp4920
g74
(dp4921
g101
g102
ssg83
g4910
sg76
(lp4922
S':'
asbag69
(g90
g71
NtRp4923
(dp4924
g74
(dp4925
sg83
g4910
sg76
(lp4926
g69
(g70
g71
NtRp4927
(dp4928
g74
(dp4929
g82
I5
ssg83
g4923
sg76
(lp4930
g3979
(S's\x12\x00\x00\x00personnalisez-moi!'
tRp4931
asbasbasbag69
(g85
g71
NtRp4932
(dp4933
g74
(dp4934
sg83
g3423
sg76
(lp4935
g69
(g90
g71
NtRp4936
(dp4937
g74
(dp4938
g94
g95
ssg83
g4932
sg76
(lp4939
S'title'
p4940
asbag69
(g90
g71
NtRp4941
(dp4942
g74
(dp4943
g101
g102
ssg83
g4932
sg76
(lp4944
S':'
asbag69
(g90
g71
NtRp4945
(dp4946
g74
(dp4947
sg83
g4932
sg76
(lp4948
g69
(g70
g71
NtRp4949
(dp4950
g74
(dp4951
g82
I5
ssg83
g4945
sg76
(lp4952
S'Snapcop2'
p4953
asbasbasbag69
(g85
g71
NtRp4954
(dp4955
g74
(dp4956
sg83
g3423
sg76
(lp4957
g69
(g90
g71
NtRp4958
(dp4959
g74
(dp4960
g94
g95
ssg83
g4954
sg76
(lp4961
g2525
asbag69
(g90
g71
NtRp4962
(dp4963
g74
(dp4964
g101
g102
ssg83
g4954
sg76
(lp4965
S':'
asbag69
(g90
g71
NtRp4966
(dp4967
g74
(dp4968
sg83
g4954
sg76
(lp4969
g69
(g70
g71
NtRp4970
(dp4971
g74
(dp4972
g82
I5
ssg83
g4966
sg76
(lp4973
g2538
asbasbasbag69
(g85
g71
NtRp4974
(dp4975
g74
(dp4976
sg83
g3423
sg76
(lp4977
g69
(g90
g71
NtRp4978
(dp4979
g74
(dp4980
g94
g95
ssg83
g4974
sg76
(lp4981
S'view'
p4982
asbag69
(g90
g71
NtRp4983
(dp4984
g74
(dp4985
g101
g102
ssg83
g4974
sg76
(lp4986
S':'
asbag69
(g90
g71
NtRp4987
(dp4988
g74
(dp4989
sg83
g4974
sg76
(lp4990
g69
(g70
g71
NtRp4991
(dp4992
g74
(dp4993
g82
I5
ssg83
g4987
sg76
(lp4994
S'form/form.html'
p4995
asbasbasbasbasbsS'locals'
p4996
(dp4997
g4
S"'/web2py/applications/snapcop2/controllers/form.py'"
p4998
sg6
S"'# -*- coding: utf-8 -*-\\n\\ndef form():\\n    form=FO...m.vars=0)\\n\\nresponse._vars=response._caller(form)\\n'"
p4999
sssS'traceback'
p5000
S'Traceback (most recent call last):\n  File "/web2py/gluon/restricted.py", line 204, in restricted\n    ccode = compile2(code,layer)\n  File "/web2py/gluon/restricted.py", line 189, in compile2\n    return compile(code.rstrip().replace(\'\\r\\n\',\'\\n\')+\'\\n\', layer, \'exec\')\n  File "/web2py/applications/snapcop2/controllers/form.py", line 16\n    return dict(form.vars=0)\nSyntaxError: keyword can\'t be an expression\n'
p5001
s.