(dp1
S'output'
p2
S"<type 'exceptions.IndentationError'> expected an indented block (form.py, line 9)"
p3
sS'layer'
p4
S'/web2py/applications/snapcop2_web2py/controllers/form.py'
p5
sS'code'
p6
S'# -*- coding: utf-8 -*-\n\nimport redis\ncx = redis.Redis()\n\n\ndef first():\n    def form():\n    form=FORM(TABLE(TR("Your name:",INPUT(_type="text",_name="name",requires=IS_NOT_EMPTY())),\n                    TR("Your email:",INPUT(_type="text",_name="email",requires=IS_EMAIL())),\n                    TR("Admin",INPUT(_type="checkbox",_name="admin")),\n                    TR("Sure?",SELECT(\'yes\',\'no\',_name="sure",requires=IS_IN_SET([\'yes\',\'no\']))),\n                    TR("Profile",TEXTAREA(_name="profile",value="write something here")),\n                    TR("",INPUT(_type="submit",_value="SUBMIT"))))\n    if form.accepts(request,session):\n        response.flash="form accepted"\n    elif form.errors:\n        response.flash="form is invalid"\n    else:\n        response.flash="please fill the form"\n    souche = str(request.vars.souche)\n    substrat = str(request.vars.substrat)\n    ferm = str(request.vars.ferm)\n    cx.publish(\'souche\', souche)\n    cx.publish(\'substrat\', substrat)\n    cx.publish(\'ferm\', ferm)\n    return dict(form=form,vars=form.vars)\n\nresponse._vars=response._caller(first)\n'
p7
sS'snapshot'
p8
(dp9
S'exception'
p10
(dp11
S'__getslice__'
p12
S"<method-wrapper '__getslice__' of exceptions.IndentationError object>"
p13
sS'text'
p14
S'\'    form=FORM(TABLE(TR("Your name:",INPUT(_type="text",_name="name",requires=IS_NOT_EMPTY())),\\n\''
p15
sS'__str__'
p16
S"<method-wrapper '__str__' of exceptions.IndentationError object>"
p17
sS'__reduce__'
p18
S'<built-in method __reduce__ of exceptions.IndentationError object>'
p19
sS'__dict__'
p20
S'{}'
p21
sS'__sizeof__'
p22
S'<built-in method __sizeof__ of exceptions.IndentationError object>'
p23
sS'__init__'
p24
S"<method-wrapper '__init__' of exceptions.IndentationError object>"
p25
sS'__setattr__'
p26
S"<method-wrapper '__setattr__' of exceptions.IndentationError object>"
p27
sS'__reduce_ex__'
p28
S'<built-in method __reduce_ex__ of exceptions.IndentationError object>'
p29
sS'__new__'
p30
S'<built-in method __new__ of type object>'
p31
sS'__format__'
p32
S'<built-in method __format__ of exceptions.IndentationError object>'
p33
sS'__class__'
p34
S"<type 'exceptions.IndentationError'>"
p35
sS'filename'
p36
S"'/web2py/applications/snapcop2_web2py/controllers/form.py'"
p37
sS'lineno'
p38
S'9'
sS'msg'
p39
S"'expected an indented block'"
p40
sS'__doc__'
p41
S"'Improper indentation.'"
p42
sS'__getitem__'
p43
S"<method-wrapper '__getitem__' of exceptions.IndentationError object>"
p44
sS'__setstate__'
p45
S'<built-in method __setstate__ of exceptions.IndentationError object>'
p46
sS'__getattribute__'
p47
S"<method-wrapper '__getattribute__' of exceptions.IndentationError object>"
p48
sS'print_file_and_line'
p49
S'None'
p50
sS'args'
p51
S'(\'expected an indented block\', (\'/web2py/applications/snapcop2_web2py/controllers/form.py\', 9, 8, \'    form=FORM(TABLE(TR("Your name:",INPUT(_type="text",_name="name",requires=IS_NOT_EMPTY())),\\n\'))'
p52
sS'__subclasshook__'
p53
S'<built-in method __subclasshook__ of type object>'
p54
sS'offset'
p55
S'8'
sS'__unicode__'
p56
S'<built-in method __unicode__ of exceptions.IndentationError object>'
p57
sS'__delattr__'
p58
S"<method-wrapper '__delattr__' of exceptions.IndentationError object>"
p59
sS'__repr__'
p60
S"<method-wrapper '__repr__' of exceptions.IndentationError object>"
p61
sS'__hash__'
p62
S"<method-wrapper '__hash__' of exceptions.IndentationError object>"
p63
ssS'evalue'
p64
S'expected an indented block (form.py, line 9)'
p65
sS'request'
p66
ccopy_reg
_reconstructor
p67
(cgluon.html
BEAUTIFY
p68
c__builtin__
object
p69
NtRp70
(dp71
S'attributes'
p72
(dp73
sS'components'
p74
(lp75
g67
(cgluon.html
TABLE
p76
g69
NtRp77
(dp78
g72
(dp79
S'level'
p80
I5
ssS'parent'
p81
Nsg74
(lp82
g67
(cgluon.html
TR
p83
g69
NtRp84
(dp85
g72
(dp86
sg81
g77
sg74
(lp87
g67
(cgluon.html
TD
p88
g69
NtRp89
(dp90
g72
(dp91
S'_style'
p92
S'font-weight:bold;vertical-align:top'
p93
ssg81
g84
sg74
(lp94
S'ajax'
p95
asbag67
(g88
g69
NtRp96
(dp97
g72
(dp98
S'_valign'
p99
S'top'
p100
ssg81
g84
sg74
(lp101
S':'
asbag67
(g88
g69
NtRp102
(dp103
g72
(dp104
sg81
g84
sg74
(lp105
g67
(g68
g69
NtRp106
(dp107
g72
(dp108
g80
I5
ssg81
g102
sg74
(lp109
S'False'
p110
asbasbasbag67
(g83
g69
NtRp111
(dp112
g72
(dp113
sg81
g77
sg74
(lp114
g67
(g88
g69
NtRp115
(dp116
g72
(dp117
g92
g93
ssg81
g111
sg74
(lp118
S'application'
p119
asbag67
(g88
g69
NtRp120
(dp121
g72
(dp122
g99
g100
ssg81
g111
sg74
(lp123
S':'
asbag67
(g88
g69
NtRp124
(dp125
g72
(dp126
sg81
g111
sg74
(lp127
g67
(g68
g69
NtRp128
(dp129
g72
(dp130
g80
I5
ssg81
g124
sg74
(lp131
S'snapcop2_web2py'
p132
asbasbasbag67
(g83
g69
NtRp133
(dp134
g72
(dp135
sg81
g77
sg74
(lp136
g67
(g88
g69
NtRp137
(dp138
g72
(dp139
g92
g93
ssg81
g133
sg74
(lp140
g51
asbag67
(g88
g69
NtRp141
(dp142
g72
(dp143
g99
g100
ssg81
g133
sg74
(lp144
S':'
asbag67
(g88
g69
NtRp145
(dp146
g72
(dp147
sg81
g133
sg74
(lp148
g67
(g68
g69
NtRp149
(dp150
g72
(dp151
g80
I5
ssg81
g145
sg74
(lp152
g67
(g76
g69
NtRp153
(dp154
g72
(dp155
g80
I4
ssg81
Nsg74
(lp156
sbasbasbasbag67
(g83
g69
NtRp157
(dp158
g72
(dp159
sg81
g77
sg74
(lp160
g67
(g88
g69
NtRp161
(dp162
g72
(dp163
g92
g93
ssg81
g157
sg74
(lp164
S'body'
p165
asbag67
(g88
g69
NtRp166
(dp167
g72
(dp168
g99
g100
ssg81
g157
sg74
(lp169
S':'
asbag67
(g88
g69
NtRp170
(dp171
g72
(dp172
sg81
g157
sg74
(lp173
g67
(g68
g69
NtRp174
(dp175
g72
(dp176
g80
I5
ssg81
g170
sg74
(lp177
S'<cStringIO.StringO object at 0x7f49dc177d50>'
p178
asbasbasbag67
(g83
g69
NtRp179
(dp180
g72
(dp181
sg81
g77
sg74
(lp182
g67
(g88
g69
NtRp183
(dp184
g72
(dp185
g92
g93
ssg81
g179
sg74
(lp186
S'client'
p187
asbag67
(g88
g69
NtRp188
(dp189
g72
(dp190
g99
g100
ssg81
g179
sg74
(lp191
S':'
asbag67
(g88
g69
NtRp192
(dp193
g72
(dp194
sg81
g179
sg74
(lp195
g67
(g68
g69
NtRp196
(dp197
g72
(dp198
g80
I5
ssg81
g192
sg74
(lp199
S'127.0.0.1'
p200
asbasbasbag67
(g83
g69
NtRp201
(dp202
g72
(dp203
sg81
g77
sg74
(lp204
g67
(g88
g69
NtRp205
(dp206
g72
(dp207
g92
g93
ssg81
g201
sg74
(lp208
S'controller'
p209
asbag67
(g88
g69
NtRp210
(dp211
g72
(dp212
g99
g100
ssg81
g201
sg74
(lp213
S':'
asbag67
(g88
g69
NtRp214
(dp215
g72
(dp216
sg81
g201
sg74
(lp217
g67
(g68
g69
NtRp218
(dp219
g72
(dp220
g80
I5
ssg81
g214
sg74
(lp221
S'form'
p222
asbasbasbag67
(g83
g69
NtRp223
(dp224
g72
(dp225
sg81
g77
sg74
(lp226
g67
(g88
g69
NtRp227
(dp228
g72
(dp229
g92
g93
ssg81
g223
sg74
(lp230
S'cookies'
p231
asbag67
(g88
g69
NtRp232
(dp233
g72
(dp234
g99
g100
ssg81
g223
sg74
(lp235
S':'
asbag67
(g88
g69
NtRp236
(dp237
g72
(dp238
sg81
g223
sg74
(lp239
g67
(g68
g69
NtRp240
(dp241
g72
(dp242
g80
I5
ssg81
g236
sg74
(lp243
g67
(g76
g69
NtRp244
(dp245
g72
(dp246
g80
I4
ssg81
Nsg74
(lp247
g67
(g83
g69
NtRp248
(dp249
g72
(dp250
sg81
g244
sg74
(lp251
g67
(g88
g69
NtRp252
(dp253
g72
(dp254
g92
g93
ssg81
g248
sg74
(lp255
S'session_id_admin'
p256
asbag67
(g88
g69
NtRp257
(dp258
g72
(dp259
g99
g100
ssg81
g248
sg74
(lp260
S':'
asbag67
(g88
g69
NtRp261
(dp262
g72
(dp263
sg81
g248
sg74
(lp264
g67
(g68
g69
NtRp265
(dp266
g72
(dp267
g80
I4
ssg81
g261
sg74
(lp268
g67
(g76
g69
NtRp269
(dp270
g72
(dp271
g80
I3
ssg81
Nsg74
(lp272
g67
(g83
g69
NtRp273
(dp274
g72
(dp275
sg81
g269
sg74
(lp276
g67
(g88
g69
NtRp277
(dp278
g72
(dp279
g92
g93
ssg81
g273
sg74
(lp280
S'comment'
p281
asbag67
(g88
g69
NtRp282
(dp283
g72
(dp284
g99
g100
ssg81
g273
sg74
(lp285
S':'
asbag67
(g88
g69
NtRp286
(dp287
g72
(dp288
sg81
g273
sg74
(lp289
g67
(g68
g69
NtRp290
(dp291
g72
(dp292
g80
I3
ssg81
g286
sg74
(lp293
S''
asbasbasbag67
(g83
g69
NtRp294
(dp295
g72
(dp296
sg81
g269
sg74
(lp297
g67
(g88
g69
NtRp298
(dp299
g72
(dp300
g92
g93
ssg81
g294
sg74
(lp301
S'domain'
p302
asbag67
(g88
g69
NtRp303
(dp304
g72
(dp305
g99
g100
ssg81
g294
sg74
(lp306
S':'
asbag67
(g88
g69
NtRp307
(dp308
g72
(dp309
sg81
g294
sg74
(lp310
g67
(g68
g69
NtRp311
(dp312
g72
(dp313
g80
I3
ssg81
g307
sg74
(lp314
S''
asbasbasbag67
(g83
g69
NtRp315
(dp316
g72
(dp317
sg81
g269
sg74
(lp318
g67
(g88
g69
NtRp319
(dp320
g72
(dp321
g92
g93
ssg81
g315
sg74
(lp322
S'expires'
p323
asbag67
(g88
g69
NtRp324
(dp325
g72
(dp326
g99
g100
ssg81
g315
sg74
(lp327
S':'
asbag67
(g88
g69
NtRp328
(dp329
g72
(dp330
sg81
g315
sg74
(lp331
g67
(g68
g69
NtRp332
(dp333
g72
(dp334
g80
I3
ssg81
g328
sg74
(lp335
S''
asbasbasbag67
(g83
g69
NtRp336
(dp337
g72
(dp338
sg81
g269
sg74
(lp339
g67
(g88
g69
NtRp340
(dp341
g72
(dp342
g92
g93
ssg81
g336
sg74
(lp343
S'httponly'
p344
asbag67
(g88
g69
NtRp345
(dp346
g72
(dp347
g99
g100
ssg81
g336
sg74
(lp348
S':'
asbag67
(g88
g69
NtRp349
(dp350
g72
(dp351
sg81
g336
sg74
(lp352
g67
(g68
g69
NtRp353
(dp354
g72
(dp355
g80
I3
ssg81
g349
sg74
(lp356
S''
asbasbasbag67
(g83
g69
NtRp357
(dp358
g72
(dp359
sg81
g269
sg74
(lp360
g67
(g88
g69
NtRp361
(dp362
g72
(dp363
g92
g93
ssg81
g357
sg74
(lp364
S'max-age'
p365
asbag67
(g88
g69
NtRp366
(dp367
g72
(dp368
g99
g100
ssg81
g357
sg74
(lp369
S':'
asbag67
(g88
g69
NtRp370
(dp371
g72
(dp372
sg81
g357
sg74
(lp373
g67
(g68
g69
NtRp374
(dp375
g72
(dp376
g80
I3
ssg81
g370
sg74
(lp377
S''
asbasbasbag67
(g83
g69
NtRp378
(dp379
g72
(dp380
sg81
g269
sg74
(lp381
g67
(g88
g69
NtRp382
(dp383
g72
(dp384
g92
g93
ssg81
g378
sg74
(lp385
S'path'
p386
asbag67
(g88
g69
NtRp387
(dp388
g72
(dp389
g99
g100
ssg81
g378
sg74
(lp390
S':'
asbag67
(g88
g69
NtRp391
(dp392
g72
(dp393
sg81
g378
sg74
(lp394
g67
(g68
g69
NtRp395
(dp396
g72
(dp397
g80
I3
ssg81
g391
sg74
(lp398
S''
asbasbasbag67
(g83
g69
NtRp399
(dp400
g72
(dp401
sg81
g269
sg74
(lp402
g67
(g88
g69
NtRp403
(dp404
g72
(dp405
g92
g93
ssg81
g399
sg74
(lp406
S'secure'
p407
asbag67
(g88
g69
NtRp408
(dp409
g72
(dp410
g99
g100
ssg81
g399
sg74
(lp411
S':'
asbag67
(g88
g69
NtRp412
(dp413
g72
(dp414
sg81
g399
sg74
(lp415
g67
(g68
g69
NtRp416
(dp417
g72
(dp418
g80
I3
ssg81
g412
sg74
(lp419
S''
asbasbasbag67
(g83
g69
NtRp420
(dp421
g72
(dp422
sg81
g269
sg74
(lp423
g67
(g88
g69
NtRp424
(dp425
g72
(dp426
g92
g93
ssg81
g420
sg74
(lp427
S'version'
p428
asbag67
(g88
g69
NtRp429
(dp430
g72
(dp431
g99
g100
ssg81
g420
sg74
(lp432
S':'
asbag67
(g88
g69
NtRp433
(dp434
g72
(dp435
sg81
g420
sg74
(lp436
g67
(g68
g69
NtRp437
(dp438
g72
(dp439
g80
I3
ssg81
g433
sg74
(lp440
S''
asbasbasbasbasbasbasbag67
(g83
g69
NtRp441
(dp442
g72
(dp443
sg81
g244
sg74
(lp444
g67
(g88
g69
NtRp445
(dp446
g72
(dp447
g92
g93
ssg81
g441
sg74
(lp448
S'session_id_snapcop2'
p449
asbag67
(g88
g69
NtRp450
(dp451
g72
(dp452
g99
g100
ssg81
g441
sg74
(lp453
S':'
asbag67
(g88
g69
NtRp454
(dp455
g72
(dp456
sg81
g441
sg74
(lp457
g67
(g68
g69
NtRp458
(dp459
g72
(dp460
g80
I4
ssg81
g454
sg74
(lp461
g67
(g76
g69
NtRp462
(dp463
g72
(dp464
g80
I3
ssg81
Nsg74
(lp465
g67
(g83
g69
NtRp466
(dp467
g72
(dp468
sg81
g462
sg74
(lp469
g67
(g88
g69
NtRp470
(dp471
g72
(dp472
g92
g93
ssg81
g466
sg74
(lp473
g281
asbag67
(g88
g69
NtRp474
(dp475
g72
(dp476
g99
g100
ssg81
g466
sg74
(lp477
S':'
asbag67
(g88
g69
NtRp478
(dp479
g72
(dp480
sg81
g466
sg74
(lp481
g67
(g68
g69
NtRp482
(dp483
g72
(dp484
g80
I3
ssg81
g478
sg74
(lp485
S''
asbasbasbag67
(g83
g69
NtRp486
(dp487
g72
(dp488
sg81
g462
sg74
(lp489
g67
(g88
g69
NtRp490
(dp491
g72
(dp492
g92
g93
ssg81
g486
sg74
(lp493
g302
asbag67
(g88
g69
NtRp494
(dp495
g72
(dp496
g99
g100
ssg81
g486
sg74
(lp497
S':'
asbag67
(g88
g69
NtRp498
(dp499
g72
(dp500
sg81
g486
sg74
(lp501
g67
(g68
g69
NtRp502
(dp503
g72
(dp504
g80
I3
ssg81
g498
sg74
(lp505
S''
asbasbasbag67
(g83
g69
NtRp506
(dp507
g72
(dp508
sg81
g462
sg74
(lp509
g67
(g88
g69
NtRp510
(dp511
g72
(dp512
g92
g93
ssg81
g506
sg74
(lp513
g323
asbag67
(g88
g69
NtRp514
(dp515
g72
(dp516
g99
g100
ssg81
g506
sg74
(lp517
S':'
asbag67
(g88
g69
NtRp518
(dp519
g72
(dp520
sg81
g506
sg74
(lp521
g67
(g68
g69
NtRp522
(dp523
g72
(dp524
g80
I3
ssg81
g518
sg74
(lp525
S''
asbasbasbag67
(g83
g69
NtRp526
(dp527
g72
(dp528
sg81
g462
sg74
(lp529
g67
(g88
g69
NtRp530
(dp531
g72
(dp532
g92
g93
ssg81
g526
sg74
(lp533
g344
asbag67
(g88
g69
NtRp534
(dp535
g72
(dp536
g99
g100
ssg81
g526
sg74
(lp537
S':'
asbag67
(g88
g69
NtRp538
(dp539
g72
(dp540
sg81
g526
sg74
(lp541
g67
(g68
g69
NtRp542
(dp543
g72
(dp544
g80
I3
ssg81
g538
sg74
(lp545
S''
asbasbasbag67
(g83
g69
NtRp546
(dp547
g72
(dp548
sg81
g462
sg74
(lp549
g67
(g88
g69
NtRp550
(dp551
g72
(dp552
g92
g93
ssg81
g546
sg74
(lp553
g365
asbag67
(g88
g69
NtRp554
(dp555
g72
(dp556
g99
g100
ssg81
g546
sg74
(lp557
S':'
asbag67
(g88
g69
NtRp558
(dp559
g72
(dp560
sg81
g546
sg74
(lp561
g67
(g68
g69
NtRp562
(dp563
g72
(dp564
g80
I3
ssg81
g558
sg74
(lp565
S''
asbasbasbag67
(g83
g69
NtRp566
(dp567
g72
(dp568
sg81
g462
sg74
(lp569
g67
(g88
g69
NtRp570
(dp571
g72
(dp572
g92
g93
ssg81
g566
sg74
(lp573
g386
asbag67
(g88
g69
NtRp574
(dp575
g72
(dp576
g99
g100
ssg81
g566
sg74
(lp577
S':'
asbag67
(g88
g69
NtRp578
(dp579
g72
(dp580
sg81
g566
sg74
(lp581
g67
(g68
g69
NtRp582
(dp583
g72
(dp584
g80
I3
ssg81
g578
sg74
(lp585
S''
asbasbasbag67
(g83
g69
NtRp586
(dp587
g72
(dp588
sg81
g462
sg74
(lp589
g67
(g88
g69
NtRp590
(dp591
g72
(dp592
g92
g93
ssg81
g586
sg74
(lp593
g407
asbag67
(g88
g69
NtRp594
(dp595
g72
(dp596
g99
g100
ssg81
g586
sg74
(lp597
S':'
asbag67
(g88
g69
NtRp598
(dp599
g72
(dp600
sg81
g586
sg74
(lp601
g67
(g68
g69
NtRp602
(dp603
g72
(dp604
g80
I3
ssg81
g598
sg74
(lp605
S''
asbasbasbag67
(g83
g69
NtRp606
(dp607
g72
(dp608
sg81
g462
sg74
(lp609
g67
(g88
g69
NtRp610
(dp611
g72
(dp612
g92
g93
ssg81
g606
sg74
(lp613
g428
asbag67
(g88
g69
NtRp614
(dp615
g72
(dp616
g99
g100
ssg81
g606
sg74
(lp617
S':'
asbag67
(g88
g69
NtRp618
(dp619
g72
(dp620
sg81
g606
sg74
(lp621
g67
(g68
g69
NtRp622
(dp623
g72
(dp624
g80
I3
ssg81
g618
sg74
(lp625
S''
asbasbasbasbasbasbasbag67
(g83
g69
NtRp626
(dp627
g72
(dp628
sg81
g244
sg74
(lp629
g67
(g88
g69
NtRp630
(dp631
g72
(dp632
g92
g93
ssg81
g626
sg74
(lp633
S'session_id_snapcop2_web2py'
p634
asbag67
(g88
g69
NtRp635
(dp636
g72
(dp637
g99
g100
ssg81
g626
sg74
(lp638
S':'
asbag67
(g88
g69
NtRp639
(dp640
g72
(dp641
sg81
g626
sg74
(lp642
g67
(g68
g69
NtRp643
(dp644
g72
(dp645
g80
I4
ssg81
g639
sg74
(lp646
g67
(g76
g69
NtRp647
(dp648
g72
(dp649
g80
I3
ssg81
Nsg74
(lp650
g67
(g83
g69
NtRp651
(dp652
g72
(dp653
sg81
g647
sg74
(lp654
g67
(g88
g69
NtRp655
(dp656
g72
(dp657
g92
g93
ssg81
g651
sg74
(lp658
g281
asbag67
(g88
g69
NtRp659
(dp660
g72
(dp661
g99
g100
ssg81
g651
sg74
(lp662
S':'
asbag67
(g88
g69
NtRp663
(dp664
g72
(dp665
sg81
g651
sg74
(lp666
g67
(g68
g69
NtRp667
(dp668
g72
(dp669
g80
I3
ssg81
g663
sg74
(lp670
S''
asbasbasbag67
(g83
g69
NtRp671
(dp672
g72
(dp673
sg81
g647
sg74
(lp674
g67
(g88
g69
NtRp675
(dp676
g72
(dp677
g92
g93
ssg81
g671
sg74
(lp678
g302
asbag67
(g88
g69
NtRp679
(dp680
g72
(dp681
g99
g100
ssg81
g671
sg74
(lp682
S':'
asbag67
(g88
g69
NtRp683
(dp684
g72
(dp685
sg81
g671
sg74
(lp686
g67
(g68
g69
NtRp687
(dp688
g72
(dp689
g80
I3
ssg81
g683
sg74
(lp690
S''
asbasbasbag67
(g83
g69
NtRp691
(dp692
g72
(dp693
sg81
g647
sg74
(lp694
g67
(g88
g69
NtRp695
(dp696
g72
(dp697
g92
g93
ssg81
g691
sg74
(lp698
g323
asbag67
(g88
g69
NtRp699
(dp700
g72
(dp701
g99
g100
ssg81
g691
sg74
(lp702
S':'
asbag67
(g88
g69
NtRp703
(dp704
g72
(dp705
sg81
g691
sg74
(lp706
g67
(g68
g69
NtRp707
(dp708
g72
(dp709
g80
I3
ssg81
g703
sg74
(lp710
S''
asbasbasbag67
(g83
g69
NtRp711
(dp712
g72
(dp713
sg81
g647
sg74
(lp714
g67
(g88
g69
NtRp715
(dp716
g72
(dp717
g92
g93
ssg81
g711
sg74
(lp718
g344
asbag67
(g88
g69
NtRp719
(dp720
g72
(dp721
g99
g100
ssg81
g711
sg74
(lp722
S':'
asbag67
(g88
g69
NtRp723
(dp724
g72
(dp725
sg81
g711
sg74
(lp726
g67
(g68
g69
NtRp727
(dp728
g72
(dp729
g80
I3
ssg81
g723
sg74
(lp730
S''
asbasbasbag67
(g83
g69
NtRp731
(dp732
g72
(dp733
sg81
g647
sg74
(lp734
g67
(g88
g69
NtRp735
(dp736
g72
(dp737
g92
g93
ssg81
g731
sg74
(lp738
g365
asbag67
(g88
g69
NtRp739
(dp740
g72
(dp741
g99
g100
ssg81
g731
sg74
(lp742
S':'
asbag67
(g88
g69
NtRp743
(dp744
g72
(dp745
sg81
g731
sg74
(lp746
g67
(g68
g69
NtRp747
(dp748
g72
(dp749
g80
I3
ssg81
g743
sg74
(lp750
S''
asbasbasbag67
(g83
g69
NtRp751
(dp752
g72
(dp753
sg81
g647
sg74
(lp754
g67
(g88
g69
NtRp755
(dp756
g72
(dp757
g92
g93
ssg81
g751
sg74
(lp758
g386
asbag67
(g88
g69
NtRp759
(dp760
g72
(dp761
g99
g100
ssg81
g751
sg74
(lp762
S':'
asbag67
(g88
g69
NtRp763
(dp764
g72
(dp765
sg81
g751
sg74
(lp766
g67
(g68
g69
NtRp767
(dp768
g72
(dp769
g80
I3
ssg81
g763
sg74
(lp770
S''
asbasbasbag67
(g83
g69
NtRp771
(dp772
g72
(dp773
sg81
g647
sg74
(lp774
g67
(g88
g69
NtRp775
(dp776
g72
(dp777
g92
g93
ssg81
g771
sg74
(lp778
g407
asbag67
(g88
g69
NtRp779
(dp780
g72
(dp781
g99
g100
ssg81
g771
sg74
(lp782
S':'
asbag67
(g88
g69
NtRp783
(dp784
g72
(dp785
sg81
g771
sg74
(lp786
g67
(g68
g69
NtRp787
(dp788
g72
(dp789
g80
I3
ssg81
g783
sg74
(lp790
S''
asbasbasbag67
(g83
g69
NtRp791
(dp792
g72
(dp793
sg81
g647
sg74
(lp794
g67
(g88
g69
NtRp795
(dp796
g72
(dp797
g92
g93
ssg81
g791
sg74
(lp798
g428
asbag67
(g88
g69
NtRp799
(dp800
g72
(dp801
g99
g100
ssg81
g791
sg74
(lp802
S':'
asbag67
(g88
g69
NtRp803
(dp804
g72
(dp805
sg81
g791
sg74
(lp806
g67
(g68
g69
NtRp807
(dp808
g72
(dp809
g80
I3
ssg81
g803
sg74
(lp810
S''
asbasbasbasbasbasbasbag67
(g83
g69
NtRp811
(dp812
g72
(dp813
sg81
g244
sg74
(lp814
g67
(g88
g69
NtRp815
(dp816
g72
(dp817
g92
g93
ssg81
g811
sg74
(lp818
S'session_id_welcome'
p819
asbag67
(g88
g69
NtRp820
(dp821
g72
(dp822
g99
g100
ssg81
g811
sg74
(lp823
S':'
asbag67
(g88
g69
NtRp824
(dp825
g72
(dp826
sg81
g811
sg74
(lp827
g67
(g68
g69
NtRp828
(dp829
g72
(dp830
g80
I4
ssg81
g824
sg74
(lp831
g67
(g76
g69
NtRp832
(dp833
g72
(dp834
g80
I3
ssg81
Nsg74
(lp835
g67
(g83
g69
NtRp836
(dp837
g72
(dp838
sg81
g832
sg74
(lp839
g67
(g88
g69
NtRp840
(dp841
g72
(dp842
g92
g93
ssg81
g836
sg74
(lp843
g281
asbag67
(g88
g69
NtRp844
(dp845
g72
(dp846
g99
g100
ssg81
g836
sg74
(lp847
S':'
asbag67
(g88
g69
NtRp848
(dp849
g72
(dp850
sg81
g836
sg74
(lp851
g67
(g68
g69
NtRp852
(dp853
g72
(dp854
g80
I3
ssg81
g848
sg74
(lp855
S''
asbasbasbag67
(g83
g69
NtRp856
(dp857
g72
(dp858
sg81
g832
sg74
(lp859
g67
(g88
g69
NtRp860
(dp861
g72
(dp862
g92
g93
ssg81
g856
sg74
(lp863
g302
asbag67
(g88
g69
NtRp864
(dp865
g72
(dp866
g99
g100
ssg81
g856
sg74
(lp867
S':'
asbag67
(g88
g69
NtRp868
(dp869
g72
(dp870
sg81
g856
sg74
(lp871
g67
(g68
g69
NtRp872
(dp873
g72
(dp874
g80
I3
ssg81
g868
sg74
(lp875
S''
asbasbasbag67
(g83
g69
NtRp876
(dp877
g72
(dp878
sg81
g832
sg74
(lp879
g67
(g88
g69
NtRp880
(dp881
g72
(dp882
g92
g93
ssg81
g876
sg74
(lp883
g323
asbag67
(g88
g69
NtRp884
(dp885
g72
(dp886
g99
g100
ssg81
g876
sg74
(lp887
S':'
asbag67
(g88
g69
NtRp888
(dp889
g72
(dp890
sg81
g876
sg74
(lp891
g67
(g68
g69
NtRp892
(dp893
g72
(dp894
g80
I3
ssg81
g888
sg74
(lp895
S''
asbasbasbag67
(g83
g69
NtRp896
(dp897
g72
(dp898
sg81
g832
sg74
(lp899
g67
(g88
g69
NtRp900
(dp901
g72
(dp902
g92
g93
ssg81
g896
sg74
(lp903
g344
asbag67
(g88
g69
NtRp904
(dp905
g72
(dp906
g99
g100
ssg81
g896
sg74
(lp907
S':'
asbag67
(g88
g69
NtRp908
(dp909
g72
(dp910
sg81
g896
sg74
(lp911
g67
(g68
g69
NtRp912
(dp913
g72
(dp914
g80
I3
ssg81
g908
sg74
(lp915
S''
asbasbasbag67
(g83
g69
NtRp916
(dp917
g72
(dp918
sg81
g832
sg74
(lp919
g67
(g88
g69
NtRp920
(dp921
g72
(dp922
g92
g93
ssg81
g916
sg74
(lp923
g365
asbag67
(g88
g69
NtRp924
(dp925
g72
(dp926
g99
g100
ssg81
g916
sg74
(lp927
S':'
asbag67
(g88
g69
NtRp928
(dp929
g72
(dp930
sg81
g916
sg74
(lp931
g67
(g68
g69
NtRp932
(dp933
g72
(dp934
g80
I3
ssg81
g928
sg74
(lp935
S''
asbasbasbag67
(g83
g69
NtRp936
(dp937
g72
(dp938
sg81
g832
sg74
(lp939
g67
(g88
g69
NtRp940
(dp941
g72
(dp942
g92
g93
ssg81
g936
sg74
(lp943
g386
asbag67
(g88
g69
NtRp944
(dp945
g72
(dp946
g99
g100
ssg81
g936
sg74
(lp947
S':'
asbag67
(g88
g69
NtRp948
(dp949
g72
(dp950
sg81
g936
sg74
(lp951
g67
(g68
g69
NtRp952
(dp953
g72
(dp954
g80
I3
ssg81
g948
sg74
(lp955
S''
asbasbasbag67
(g83
g69
NtRp956
(dp957
g72
(dp958
sg81
g832
sg74
(lp959
g67
(g88
g69
NtRp960
(dp961
g72
(dp962
g92
g93
ssg81
g956
sg74
(lp963
g407
asbag67
(g88
g69
NtRp964
(dp965
g72
(dp966
g99
g100
ssg81
g956
sg74
(lp967
S':'
asbag67
(g88
g69
NtRp968
(dp969
g72
(dp970
sg81
g956
sg74
(lp971
g67
(g68
g69
NtRp972
(dp973
g72
(dp974
g80
I3
ssg81
g968
sg74
(lp975
S''
asbasbasbag67
(g83
g69
NtRp976
(dp977
g72
(dp978
sg81
g832
sg74
(lp979
g67
(g88
g69
NtRp980
(dp981
g72
(dp982
g92
g93
ssg81
g976
sg74
(lp983
g428
asbag67
(g88
g69
NtRp984
(dp985
g72
(dp986
g99
g100
ssg81
g976
sg74
(lp987
S':'
asbag67
(g88
g69
NtRp988
(dp989
g72
(dp990
sg81
g976
sg74
(lp991
g67
(g68
g69
NtRp992
(dp993
g72
(dp994
g80
I3
ssg81
g988
sg74
(lp995
S''
asbasbasbasbasbasbasbasbasbasbasbag67
(g83
g69
NtRp996
(dp997
g72
(dp998
sg81
g77
sg74
(lp999
g67
(g88
g69
NtRp1000
(dp1001
g72
(dp1002
g92
g93
ssg81
g996
sg74
(lp1003
S'env'
p1004
asbag67
(g88
g69
NtRp1005
(dp1006
g72
(dp1007
g99
g100
ssg81
g996
sg74
(lp1008
S':'
asbag67
(g88
g69
NtRp1009
(dp1010
g72
(dp1011
sg81
g996
sg74
(lp1012
g67
(g68
g69
NtRp1013
(dp1014
g72
(dp1015
g80
I5
ssg81
g1009
sg74
(lp1016
g67
(g76
g69
NtRp1017
(dp1018
g72
(dp1019
g80
I4
ssg81
Nsg74
(lp1020
g67
(g83
g69
NtRp1021
(dp1022
g72
(dp1023
sg81
g1017
sg74
(lp1024
g67
(g88
g69
NtRp1025
(dp1026
g72
(dp1027
g92
g93
ssg81
g1021
sg74
(lp1028
S'app_folders'
p1029
asbag67
(g88
g69
NtRp1030
(dp1031
g72
(dp1032
g99
g100
ssg81
g1021
sg74
(lp1033
S':'
asbag67
(g88
g69
NtRp1034
(dp1035
g72
(dp1036
sg81
g1021
sg74
(lp1037
g67
(g68
g69
NtRp1038
(dp1039
g72
(dp1040
g80
I4
ssg81
g1034
sg74
(lp1041
S"set(['/web2py/applications/admin/', '/web2py/applications/welcome/', '/web2py/applications/snapcop2_web2py/', '/web2py/applications/snapcop2/'])"
p1042
asbasbasbag67
(g83
g69
NtRp1043
(dp1044
g72
(dp1045
sg81
g1017
sg74
(lp1046
g67
(g88
g69
NtRp1047
(dp1048
g72
(dp1049
g92
g93
ssg81
g1043
sg74
(lp1050
S'applications_parent'
p1051
asbag67
(g88
g69
NtRp1052
(dp1053
g72
(dp1054
g99
g100
ssg81
g1043
sg74
(lp1055
S':'
asbag67
(g88
g69
NtRp1056
(dp1057
g72
(dp1058
sg81
g1043
sg74
(lp1059
g67
(g68
g69
NtRp1060
(dp1061
g72
(dp1062
g80
I4
ssg81
g1056
sg74
(lp1063
S'/web2py'
p1064
asbasbasbag67
(g83
g69
NtRp1065
(dp1066
g72
(dp1067
sg81
g1017
sg74
(lp1068
g67
(g88
g69
NtRp1069
(dp1070
g72
(dp1071
g92
g93
ssg81
g1065
sg74
(lp1072
S'cmd_args'
p1073
asbag67
(g88
g69
NtRp1074
(dp1075
g72
(dp1076
g99
g100
ssg81
g1065
sg74
(lp1077
S':'
asbag67
(g88
g69
NtRp1078
(dp1079
g72
(dp1080
sg81
g1065
sg74
(lp1081
g67
(g68
g69
NtRp1082
(dp1083
g72
(dp1084
g80
I4
ssg81
g1078
sg74
(lp1085
g67
(g76
g69
NtRp1086
(dp1087
g72
(dp1088
g80
I3
ssg81
Nsg74
(lp1089
sbasbasbasbag67
(g83
g69
NtRp1090
(dp1091
g72
(dp1092
sg81
g1017
sg74
(lp1093
g67
(g88
g69
NtRp1094
(dp1095
g72
(dp1096
g92
g93
ssg81
g1090
sg74
(lp1097
S'cmd_options'
p1098
asbag67
(g88
g69
NtRp1099
(dp1100
g72
(dp1101
g99
g100
ssg81
g1090
sg74
(lp1102
S':'
asbag67
(g88
g69
NtRp1103
(dp1104
g72
(dp1105
sg81
g1090
sg74
(lp1106
g67
(g68
g69
NtRp1107
(dp1108
g72
(dp1109
g80
I4
ssg81
g1103
sg74
(lp1110
S"<Values at 0x2f62680: {'verbose': False, 'ip': '127.0.0.1', 'shutdown_timeout': 5, 'taskbar': False, 'nocron': False, 'pid_filename': 'httpserver.pid', 'maxthreads': None, 'softcron': False, 'server_name': 'declic-pc', 'bpython': False, 'nogui': False, 'port': 8000, 'extcron': False, 'debuglevel': 30, 'test': None, 'folder': '/web2py', 'config': '', 'import_models': False, 'winservice': '', 'shell': None, 'run': '', 'log_filename': 'httpserver.log', 'args': [''], 'socket_timeout': 5, 'ssl_ca_certificate': None, 'scheduler': None, 'profiler_filename': None, 'ssl_private_key': '', 'password': 'photos10', 'request_queue_size': 5, 'ssl_certificate': '', 'cronjob': False, 'numthreads': None, 'quiet': False, 'interfaces': None, 'minthreads': None, 'timeout': 10, 'plain': False, 'nobanner': False}>"
p1111
asbasbasbag67
(g83
g69
NtRp1112
(dp1113
g72
(dp1114
sg81
g1017
sg74
(lp1115
g67
(g88
g69
NtRp1116
(dp1117
g72
(dp1118
g92
g93
ssg81
g1112
sg74
(lp1119
S'db_sessions'
p1120
asbag67
(g88
g69
NtRp1121
(dp1122
g72
(dp1123
g99
g100
ssg81
g1112
sg74
(lp1124
S':'
asbag67
(g88
g69
NtRp1125
(dp1126
g72
(dp1127
sg81
g1112
sg74
(lp1128
g67
(g68
g69
NtRp1129
(dp1130
g72
(dp1131
g80
I4
ssg81
g1125
sg74
(lp1132
S'set([])'
p1133
asbasbasbag67
(g83
g69
NtRp1134
(dp1135
g72
(dp1136
sg81
g1017
sg74
(lp1137
g67
(g88
g69
NtRp1138
(dp1139
g72
(dp1140
g92
g93
ssg81
g1134
sg74
(lp1141
S'debugging'
p1142
asbag67
(g88
g69
NtRp1143
(dp1144
g72
(dp1145
g99
g100
ssg81
g1134
sg74
(lp1146
S':'
asbag67
(g88
g69
NtRp1147
(dp1148
g72
(dp1149
sg81
g1134
sg74
(lp1150
g67
(g68
g69
NtRp1151
(dp1152
g72
(dp1153
g80
I4
ssg81
g1147
sg74
(lp1154
g110
asbasbasbag67
(g83
g69
NtRp1155
(dp1156
g72
(dp1157
sg81
g1017
sg74
(lp1158
g67
(g88
g69
NtRp1159
(dp1160
g72
(dp1161
g92
g93
ssg81
g1155
sg74
(lp1162
S'gluon_parent'
p1163
asbag67
(g88
g69
NtRp1164
(dp1165
g72
(dp1166
g99
g100
ssg81
g1155
sg74
(lp1167
S':'
asbag67
(g88
g69
NtRp1168
(dp1169
g72
(dp1170
sg81
g1155
sg74
(lp1171
g67
(g68
g69
NtRp1172
(dp1173
g72
(dp1174
g80
I4
ssg81
g1168
sg74
(lp1175
S'/web2py'
p1176
asbasbasbag67
(g83
g69
NtRp1177
(dp1178
g72
(dp1179
sg81
g1017
sg74
(lp1180
g67
(g88
g69
NtRp1181
(dp1182
g72
(dp1183
g92
g93
ssg81
g1177
sg74
(lp1184
S'http_accept'
p1185
asbag67
(g88
g69
NtRp1186
(dp1187
g72
(dp1188
g99
g100
ssg81
g1177
sg74
(lp1189
S':'
asbag67
(g88
g69
NtRp1190
(dp1191
g72
(dp1192
sg81
g1177
sg74
(lp1193
g67
(g68
g69
NtRp1194
(dp1195
g72
(dp1196
g80
I4
ssg81
g1190
sg74
(lp1197
S'text/html,application/xhtml+xml,application/xml;q=0.9,*/*;q=0.8'
p1198
asbasbasbag67
(g83
g69
NtRp1199
(dp1200
g72
(dp1201
sg81
g1017
sg74
(lp1202
g67
(g88
g69
NtRp1203
(dp1204
g72
(dp1205
g92
g93
ssg81
g1199
sg74
(lp1206
S'http_accept_encoding'
p1207
asbag67
(g88
g69
NtRp1208
(dp1209
g72
(dp1210
g99
g100
ssg81
g1199
sg74
(lp1211
S':'
asbag67
(g88
g69
NtRp1212
(dp1213
g72
(dp1214
sg81
g1199
sg74
(lp1215
g67
(g68
g69
NtRp1216
(dp1217
g72
(dp1218
g80
I4
ssg81
g1212
sg74
(lp1219
S'gzip, deflate'
p1220
asbasbasbag67
(g83
g69
NtRp1221
(dp1222
g72
(dp1223
sg81
g1017
sg74
(lp1224
g67
(g88
g69
NtRp1225
(dp1226
g72
(dp1227
g92
g93
ssg81
g1221
sg74
(lp1228
S'http_accept_language'
p1229
asbag67
(g88
g69
NtRp1230
(dp1231
g72
(dp1232
g99
g100
ssg81
g1221
sg74
(lp1233
S':'
asbag67
(g88
g69
NtRp1234
(dp1235
g72
(dp1236
sg81
g1221
sg74
(lp1237
g67
(g68
g69
NtRp1238
(dp1239
g72
(dp1240
g80
I4
ssg81
g1234
sg74
(lp1241
S'fr,fr-fr;q=0.8,en-us;q=0.5,en;q=0.3'
p1242
asbasbasbag67
(g83
g69
NtRp1243
(dp1244
g72
(dp1245
sg81
g1017
sg74
(lp1246
g67
(g88
g69
NtRp1247
(dp1248
g72
(dp1249
g92
g93
ssg81
g1243
sg74
(lp1250
S'http_cache_control'
p1251
asbag67
(g88
g69
NtRp1252
(dp1253
g72
(dp1254
g99
g100
ssg81
g1243
sg74
(lp1255
S':'
asbag67
(g88
g69
NtRp1256
(dp1257
g72
(dp1258
sg81
g1243
sg74
(lp1259
g67
(g68
g69
NtRp1260
(dp1261
g72
(dp1262
g80
I4
ssg81
g1256
sg74
(lp1263
S'max-age=0'
p1264
asbasbasbag67
(g83
g69
NtRp1265
(dp1266
g72
(dp1267
sg81
g1017
sg74
(lp1268
g67
(g88
g69
NtRp1269
(dp1270
g72
(dp1271
g92
g93
ssg81
g1265
sg74
(lp1272
S'http_connection'
p1273
asbag67
(g88
g69
NtRp1274
(dp1275
g72
(dp1276
g99
g100
ssg81
g1265
sg74
(lp1277
S':'
asbag67
(g88
g69
NtRp1278
(dp1279
g72
(dp1280
sg81
g1265
sg74
(lp1281
g67
(g68
g69
NtRp1282
(dp1283
g72
(dp1284
g80
I4
ssg81
g1278
sg74
(lp1285
S'keep-alive'
p1286
asbasbasbag67
(g83
g69
NtRp1287
(dp1288
g72
(dp1289
sg81
g1017
sg74
(lp1290
g67
(g88
g69
NtRp1291
(dp1292
g72
(dp1293
g92
g93
ssg81
g1287
sg74
(lp1294
S'http_cookie'
p1295
asbag67
(g88
g69
NtRp1296
(dp1297
g72
(dp1298
g99
g100
ssg81
g1287
sg74
(lp1299
S':'
asbag67
(g88
g69
NtRp1300
(dp1301
g72
(dp1302
sg81
g1287
sg74
(lp1303
g67
(g68
g69
NtRp1304
(dp1305
g72
(dp1306
g80
I4
ssg81
g1300
sg74
(lp1307
S'session_id_welcome=127.0.0.1-a8bcafbc-45f6-4ba0-98e1-6be63f0a0fc3; session_id_admin=127.0.0.1-43762b74-1a5a-44ad-a373-f87d82a464fe; session_id_snapcop2=127.0.0.1-0073d425-a119-4e19-84f5-89d928efdc66; session_id_snapcop2_web2py=127.0.0.1-cef799a3-e7ef-4267-81c1-6c89039dd232'
p1308
asbasbasbag67
(g83
g69
NtRp1309
(dp1310
g72
(dp1311
sg81
g1017
sg74
(lp1312
g67
(g88
g69
NtRp1313
(dp1314
g72
(dp1315
g92
g93
ssg81
g1309
sg74
(lp1316
S'http_host'
p1317
asbag67
(g88
g69
NtRp1318
(dp1319
g72
(dp1320
g99
g100
ssg81
g1309
sg74
(lp1321
S':'
asbag67
(g88
g69
NtRp1322
(dp1323
g72
(dp1324
sg81
g1309
sg74
(lp1325
g67
(g68
g69
NtRp1326
(dp1327
g72
(dp1328
g80
I4
ssg81
g1322
sg74
(lp1329
S'127.0.0.1:8000'
p1330
asbasbasbag67
(g83
g69
NtRp1331
(dp1332
g72
(dp1333
sg81
g1017
sg74
(lp1334
g67
(g88
g69
NtRp1335
(dp1336
g72
(dp1337
g92
g93
ssg81
g1331
sg74
(lp1338
S'http_user_agent'
p1339
asbag67
(g88
g69
NtRp1340
(dp1341
g72
(dp1342
g99
g100
ssg81
g1331
sg74
(lp1343
S':'
asbag67
(g88
g69
NtRp1344
(dp1345
g72
(dp1346
sg81
g1331
sg74
(lp1347
g67
(g68
g69
NtRp1348
(dp1349
g72
(dp1350
g80
I4
ssg81
g1344
sg74
(lp1351
S'Mozilla/5.0 (X11; Ubuntu; Linux x86_64; rv:14.0) Gecko/20100101 Firefox/14.0.1'
p1352
asbasbasbag67
(g83
g69
NtRp1353
(dp1354
g72
(dp1355
sg81
g1017
sg74
(lp1356
g67
(g88
g69
NtRp1357
(dp1358
g72
(dp1359
g92
g93
ssg81
g1353
sg74
(lp1360
S'is_jython'
p1361
asbag67
(g88
g69
NtRp1362
(dp1363
g72
(dp1364
g99
g100
ssg81
g1353
sg74
(lp1365
S':'
asbag67
(g88
g69
NtRp1366
(dp1367
g72
(dp1368
sg81
g1353
sg74
(lp1369
g67
(g68
g69
NtRp1370
(dp1371
g72
(dp1372
g80
I4
ssg81
g1366
sg74
(lp1373
g110
asbasbasbag67
(g83
g69
NtRp1374
(dp1375
g72
(dp1376
sg81
g1017
sg74
(lp1377
g67
(g88
g69
NtRp1378
(dp1379
g72
(dp1380
g92
g93
ssg81
g1374
sg74
(lp1381
S'is_pypy'
p1382
asbag67
(g88
g69
NtRp1383
(dp1384
g72
(dp1385
g99
g100
ssg81
g1374
sg74
(lp1386
S':'
asbag67
(g88
g69
NtRp1387
(dp1388
g72
(dp1389
sg81
g1374
sg74
(lp1390
g67
(g68
g69
NtRp1391
(dp1392
g72
(dp1393
g80
I4
ssg81
g1387
sg74
(lp1394
g110
asbasbasbag67
(g83
g69
NtRp1395
(dp1396
g72
(dp1397
sg81
g1017
sg74
(lp1398
g67
(g88
g69
NtRp1399
(dp1400
g72
(dp1401
g92
g93
ssg81
g1395
sg74
(lp1402
S'path_info'
p1403
asbag67
(g88
g69
NtRp1404
(dp1405
g72
(dp1406
g99
g100
ssg81
g1395
sg74
(lp1407
S':'
asbag67
(g88
g69
NtRp1408
(dp1409
g72
(dp1410
sg81
g1395
sg74
(lp1411
g67
(g68
g69
NtRp1412
(dp1413
g72
(dp1414
g80
I4
ssg81
g1408
sg74
(lp1415
S'/snapcop2_web2py/form/first'
p1416
asbasbasbag67
(g83
g69
NtRp1417
(dp1418
g72
(dp1419
sg81
g1017
sg74
(lp1420
g67
(g88
g69
NtRp1421
(dp1422
g72
(dp1423
g92
g93
ssg81
g1417
sg74
(lp1424
S'query_string'
p1425
asbag67
(g88
g69
NtRp1426
(dp1427
g72
(dp1428
g99
g100
ssg81
g1417
sg74
(lp1429
S':'
asbag67
(g88
g69
NtRp1430
(dp1431
g72
(dp1432
sg81
g1417
sg74
(lp1433
g67
(g68
g69
NtRp1434
(dp1435
g72
(dp1436
g80
I4
ssg81
g1430
sg74
(lp1437
S''
asbasbasbag67
(g83
g69
NtRp1438
(dp1439
g72
(dp1440
sg81
g1017
sg74
(lp1441
g67
(g88
g69
NtRp1442
(dp1443
g72
(dp1444
g92
g93
ssg81
g1438
sg74
(lp1445
S'remote_addr'
p1446
asbag67
(g88
g69
NtRp1447
(dp1448
g72
(dp1449
g99
g100
ssg81
g1438
sg74
(lp1450
S':'
asbag67
(g88
g69
NtRp1451
(dp1452
g72
(dp1453
sg81
g1438
sg74
(lp1454
g67
(g68
g69
NtRp1455
(dp1456
g72
(dp1457
g80
I4
ssg81
g1451
sg74
(lp1458
g200
asbasbasbag67
(g83
g69
NtRp1459
(dp1460
g72
(dp1461
sg81
g1017
sg74
(lp1462
g67
(g88
g69
NtRp1463
(dp1464
g72
(dp1465
g92
g93
ssg81
g1459
sg74
(lp1466
S'remote_port'
p1467
asbag67
(g88
g69
NtRp1468
(dp1469
g72
(dp1470
g99
g100
ssg81
g1459
sg74
(lp1471
S':'
asbag67
(g88
g69
NtRp1472
(dp1473
g72
(dp1474
sg81
g1459
sg74
(lp1475
g67
(g68
g69
NtRp1476
(dp1477
g72
(dp1478
g80
I4
ssg81
g1472
sg74
(lp1479
S'53051'
p1480
asbasbasbag67
(g83
g69
NtRp1481
(dp1482
g72
(dp1483
sg81
g1017
sg74
(lp1484
g67
(g88
g69
NtRp1485
(dp1486
g72
(dp1487
g92
g93
ssg81
g1481
sg74
(lp1488
S'request_method'
p1489
asbag67
(g88
g69
NtRp1490
(dp1491
g72
(dp1492
g99
g100
ssg81
g1481
sg74
(lp1493
S':'
asbag67
(g88
g69
NtRp1494
(dp1495
g72
(dp1496
sg81
g1481
sg74
(lp1497
g67
(g68
g69
NtRp1498
(dp1499
g72
(dp1500
g80
I4
ssg81
g1494
sg74
(lp1501
S'GET'
p1502
asbasbasbag67
(g83
g69
NtRp1503
(dp1504
g72
(dp1505
sg81
g1017
sg74
(lp1506
g67
(g88
g69
NtRp1507
(dp1508
g72
(dp1509
g92
g93
ssg81
g1503
sg74
(lp1510
S'script_name'
p1511
asbag67
(g88
g69
NtRp1512
(dp1513
g72
(dp1514
g99
g100
ssg81
g1503
sg74
(lp1515
S':'
asbag67
(g88
g69
NtRp1516
(dp1517
g72
(dp1518
sg81
g1503
sg74
(lp1519
g67
(g68
g69
NtRp1520
(dp1521
g72
(dp1522
g80
I4
ssg81
g1516
sg74
(lp1523
S''
asbasbasbag67
(g83
g69
NtRp1524
(dp1525
g72
(dp1526
sg81
g1017
sg74
(lp1527
g67
(g88
g69
NtRp1528
(dp1529
g72
(dp1530
g92
g93
ssg81
g1524
sg74
(lp1531
S'server_name'
p1532
asbag67
(g88
g69
NtRp1533
(dp1534
g72
(dp1535
g99
g100
ssg81
g1524
sg74
(lp1536
S':'
asbag67
(g88
g69
NtRp1537
(dp1538
g72
(dp1539
sg81
g1524
sg74
(lp1540
g67
(g68
g69
NtRp1541
(dp1542
g72
(dp1543
g80
I4
ssg81
g1537
sg74
(lp1544
S'declic-pc'
p1545
asbasbasbag67
(g83
g69
NtRp1546
(dp1547
g72
(dp1548
sg81
g1017
sg74
(lp1549
g67
(g88
g69
NtRp1550
(dp1551
g72
(dp1552
g92
g93
ssg81
g1546
sg74
(lp1553
S'server_port'
p1554
asbag67
(g88
g69
NtRp1555
(dp1556
g72
(dp1557
g99
g100
ssg81
g1546
sg74
(lp1558
S':'
asbag67
(g88
g69
NtRp1559
(dp1560
g72
(dp1561
sg81
g1546
sg74
(lp1562
g67
(g68
g69
NtRp1563
(dp1564
g72
(dp1565
g80
I4
ssg81
g1559
sg74
(lp1566
S'8000'
p1567
asbasbasbag67
(g83
g69
NtRp1568
(dp1569
g72
(dp1570
sg81
g1017
sg74
(lp1571
g67
(g88
g69
NtRp1572
(dp1573
g72
(dp1574
g92
g93
ssg81
g1568
sg74
(lp1575
S'server_protocol'
p1576
asbag67
(g88
g69
NtRp1577
(dp1578
g72
(dp1579
g99
g100
ssg81
g1568
sg74
(lp1580
S':'
asbag67
(g88
g69
NtRp1581
(dp1582
g72
(dp1583
sg81
g1568
sg74
(lp1584
g67
(g68
g69
NtRp1585
(dp1586
g72
(dp1587
g80
I4
ssg81
g1581
sg74
(lp1588
S'HTTP/1.1'
p1589
asbasbasbag67
(g83
g69
NtRp1590
(dp1591
g72
(dp1592
sg81
g1017
sg74
(lp1593
g67
(g88
g69
NtRp1594
(dp1595
g72
(dp1596
g92
g93
ssg81
g1590
sg74
(lp1597
S'server_software'
p1598
asbag67
(g88
g69
NtRp1599
(dp1600
g72
(dp1601
g99
g100
ssg81
g1590
sg74
(lp1602
S':'
asbag67
(g88
g69
NtRp1603
(dp1604
g72
(dp1605
sg81
g1590
sg74
(lp1606
g67
(g68
g69
NtRp1607
(dp1608
g72
(dp1609
g80
I4
ssg81
g1603
sg74
(lp1610
S'Rocket 1.2.4'
p1611
asbasbasbag67
(g83
g69
NtRp1612
(dp1613
g72
(dp1614
sg81
g1017
sg74
(lp1615
g67
(g88
g69
NtRp1616
(dp1617
g72
(dp1618
g92
g93
ssg81
g1612
sg74
(lp1619
S'web2py_crontype'
p1620
asbag67
(g88
g69
NtRp1621
(dp1622
g72
(dp1623
g99
g100
ssg81
g1612
sg74
(lp1624
S':'
asbag67
(g88
g69
NtRp1625
(dp1626
g72
(dp1627
sg81
g1612
sg74
(lp1628
g67
(g68
g69
NtRp1629
(dp1630
g72
(dp1631
g80
I4
ssg81
g1625
sg74
(lp1632
S'hard'
p1633
asbasbasbag67
(g83
g69
NtRp1634
(dp1635
g72
(dp1636
sg81
g1017
sg74
(lp1637
g67
(g88
g69
NtRp1638
(dp1639
g72
(dp1640
g92
g93
ssg81
g1634
sg74
(lp1641
S'web2py_path'
p1642
asbag67
(g88
g69
NtRp1643
(dp1644
g72
(dp1645
g99
g100
ssg81
g1634
sg74
(lp1646
S':'
asbag67
(g88
g69
NtRp1647
(dp1648
g72
(dp1649
sg81
g1634
sg74
(lp1650
g67
(g68
g69
NtRp1651
(dp1652
g72
(dp1653
g80
I4
ssg81
g1647
sg74
(lp1654
g1064
asbasbasbag67
(g83
g69
NtRp1655
(dp1656
g72
(dp1657
sg81
g1017
sg74
(lp1658
g67
(g88
g69
NtRp1659
(dp1660
g72
(dp1661
g92
g93
ssg81
g1655
sg74
(lp1662
S'web2py_version'
p1663
asbag67
(g88
g69
NtRp1664
(dp1665
g72
(dp1666
g99
g100
ssg81
g1655
sg74
(lp1667
S':'
asbag67
(g88
g69
NtRp1668
(dp1669
g72
(dp1670
sg81
g1655
sg74
(lp1671
g67
(g68
g69
NtRp1672
(dp1673
g72
(dp1674
g80
I4
ssg81
g1668
sg74
(lp1675
g67
(g76
g69
NtRp1676
(dp1677
g72
(dp1678
g80
I3
ssg81
Nsg74
(lp1679
g67
(g83
g69
NtRp1680
(dp1681
g72
(dp1682
sg81
g1676
sg74
(lp1683
g67
(g88
g69
NtRp1684
(dp1685
g72
(dp1686
sg81
g1680
sg74
(lp1687
g67
(g68
g69
NtRp1688
(dp1689
g72
(dp1690
g80
I3
ssg81
g1684
sg74
(lp1691
S'1'
asbasbasbag67
(g83
g69
NtRp1692
(dp1693
g72
(dp1694
sg81
g1676
sg74
(lp1695
g67
(g88
g69
NtRp1696
(dp1697
g72
(dp1698
sg81
g1692
sg74
(lp1699
g67
(g68
g69
NtRp1700
(dp1701
g72
(dp1702
g80
I3
ssg81
g1696
sg74
(lp1703
S'99'
p1704
asbasbasbag67
(g83
g69
NtRp1705
(dp1706
g72
(dp1707
sg81
g1676
sg74
(lp1708
g67
(g88
g69
NtRp1709
(dp1710
g72
(dp1711
sg81
g1705
sg74
(lp1712
g67
(g68
g69
NtRp1713
(dp1714
g72
(dp1715
g80
I3
ssg81
g1709
sg74
(lp1716
S'7'
asbasbasbag67
(g83
g69
NtRp1717
(dp1718
g72
(dp1719
sg81
g1676
sg74
(lp1720
g67
(g88
g69
NtRp1721
(dp1722
g72
(dp1723
sg81
g1717
sg74
(lp1724
g67
(g68
g69
NtRp1725
(dp1726
g72
(dp1727
g80
I3
ssg81
g1721
sg74
(lp1728
S'datetime.datetime(2012, 3, 4, 22, 12, 8)'
p1729
asbasbasbag67
(g83
g69
NtRp1730
(dp1731
g72
(dp1732
sg81
g1676
sg74
(lp1733
g67
(g88
g69
NtRp1734
(dp1735
g72
(dp1736
sg81
g1730
sg74
(lp1737
g67
(g68
g69
NtRp1738
(dp1739
g72
(dp1740
g80
I3
ssg81
g1734
sg74
(lp1741
S'stable'
p1742
asbasbasbasbasbasbasbag67
(g83
g69
NtRp1743
(dp1744
g72
(dp1745
sg81
g1017
sg74
(lp1746
g67
(g88
g69
NtRp1747
(dp1748
g72
(dp1749
g92
g93
ssg81
g1743
sg74
(lp1750
S'wsgi_errors'
p1751
asbag67
(g88
g69
NtRp1752
(dp1753
g72
(dp1754
g99
g100
ssg81
g1743
sg74
(lp1755
S':'
asbag67
(g88
g69
NtRp1756
(dp1757
g72
(dp1758
sg81
g1743
sg74
(lp1759
g67
(g68
g69
NtRp1760
(dp1761
g72
(dp1762
g80
I4
ssg81
g1756
sg74
(lp1763
S"<open file '<stderr>', mode 'w' at 0x7f49ef740270>"
p1764
asbasbasbag67
(g83
g69
NtRp1765
(dp1766
g72
(dp1767
sg81
g1017
sg74
(lp1768
g67
(g88
g69
NtRp1769
(dp1770
g72
(dp1771
g92
g93
ssg81
g1765
sg74
(lp1772
S'wsgi_file_wrapper'
p1773
asbag67
(g88
g69
NtRp1774
(dp1775
g72
(dp1776
g99
g100
ssg81
g1765
sg74
(lp1777
S':'
asbag67
(g88
g69
NtRp1778
(dp1779
g72
(dp1780
sg81
g1765
sg74
(lp1781
g67
(g68
g69
NtRp1782
(dp1783
g72
(dp1784
g80
I4
ssg81
g1778
sg74
(lp1785
S'<class wsgiref.util.FileWrapper at 0x2e896d0>'
p1786
asbasbasbag67
(g83
g69
NtRp1787
(dp1788
g72
(dp1789
sg81
g1017
sg74
(lp1790
g67
(g88
g69
NtRp1791
(dp1792
g72
(dp1793
g92
g93
ssg81
g1787
sg74
(lp1794
S'wsgi_input'
p1795
asbag67
(g88
g69
NtRp1796
(dp1797
g72
(dp1798
g99
g100
ssg81
g1787
sg74
(lp1799
S':'
asbag67
(g88
g69
NtRp1800
(dp1801
g72
(dp1802
sg81
g1787
sg74
(lp1803
g67
(g68
g69
NtRp1804
(dp1805
g72
(dp1806
g80
I4
ssg81
g1800
sg74
(lp1807
S'<socket._fileobject object at 0x7f49cc512350>'
p1808
asbasbasbag67
(g83
g69
NtRp1809
(dp1810
g72
(dp1811
sg81
g1017
sg74
(lp1812
g67
(g88
g69
NtRp1813
(dp1814
g72
(dp1815
g92
g93
ssg81
g1809
sg74
(lp1816
S'wsgi_multiprocess'
p1817
asbag67
(g88
g69
NtRp1818
(dp1819
g72
(dp1820
g99
g100
ssg81
g1809
sg74
(lp1821
S':'
asbag67
(g88
g69
NtRp1822
(dp1823
g72
(dp1824
sg81
g1809
sg74
(lp1825
g67
(g68
g69
NtRp1826
(dp1827
g72
(dp1828
g80
I4
ssg81
g1822
sg74
(lp1829
g110
asbasbasbag67
(g83
g69
NtRp1830
(dp1831
g72
(dp1832
sg81
g1017
sg74
(lp1833
g67
(g88
g69
NtRp1834
(dp1835
g72
(dp1836
g92
g93
ssg81
g1830
sg74
(lp1837
S'wsgi_multithread'
p1838
asbag67
(g88
g69
NtRp1839
(dp1840
g72
(dp1841
g99
g100
ssg81
g1830
sg74
(lp1842
S':'
asbag67
(g88
g69
NtRp1843
(dp1844
g72
(dp1845
sg81
g1830
sg74
(lp1846
g67
(g68
g69
NtRp1847
(dp1848
g72
(dp1849
g80
I4
ssg81
g1843
sg74
(lp1850
S'True'
p1851
asbasbasbag67
(g83
g69
NtRp1852
(dp1853
g72
(dp1854
sg81
g1017
sg74
(lp1855
g67
(g88
g69
NtRp1856
(dp1857
g72
(dp1858
g92
g93
ssg81
g1852
sg74
(lp1859
S'wsgi_run_once'
p1860
asbag67
(g88
g69
NtRp1861
(dp1862
g72
(dp1863
g99
g100
ssg81
g1852
sg74
(lp1864
S':'
asbag67
(g88
g69
NtRp1865
(dp1866
g72
(dp1867
sg81
g1852
sg74
(lp1868
g67
(g68
g69
NtRp1869
(dp1870
g72
(dp1871
g80
I4
ssg81
g1865
sg74
(lp1872
g110
asbasbasbag67
(g83
g69
NtRp1873
(dp1874
g72
(dp1875
sg81
g1017
sg74
(lp1876
g67
(g88
g69
NtRp1877
(dp1878
g72
(dp1879
g92
g93
ssg81
g1873
sg74
(lp1880
S'wsgi_url_scheme'
p1881
asbag67
(g88
g69
NtRp1882
(dp1883
g72
(dp1884
g99
g100
ssg81
g1873
sg74
(lp1885
S':'
asbag67
(g88
g69
NtRp1886
(dp1887
g72
(dp1888
sg81
g1873
sg74
(lp1889
g67
(g68
g69
NtRp1890
(dp1891
g72
(dp1892
g80
I4
ssg81
g1886
sg74
(lp1893
S'http'
p1894
asbasbasbag67
(g83
g69
NtRp1895
(dp1896
g72
(dp1897
sg81
g1017
sg74
(lp1898
g67
(g88
g69
NtRp1899
(dp1900
g72
(dp1901
g92
g93
ssg81
g1895
sg74
(lp1902
S'wsgi_version'
p1903
asbag67
(g88
g69
NtRp1904
(dp1905
g72
(dp1906
g99
g100
ssg81
g1895
sg74
(lp1907
S':'
asbag67
(g88
g69
NtRp1908
(dp1909
g72
(dp1910
sg81
g1895
sg74
(lp1911
g67
(g68
g69
NtRp1912
(dp1913
g72
(dp1914
g80
I4
ssg81
g1908
sg74
(lp1915
g67
(g76
g69
NtRp1916
(dp1917
g72
(dp1918
g80
I3
ssg81
Nsg74
(lp1919
g67
(g83
g69
NtRp1920
(dp1921
g72
(dp1922
sg81
g1916
sg74
(lp1923
g67
(g88
g69
NtRp1924
(dp1925
g72
(dp1926
sg81
g1920
sg74
(lp1927
g67
(g68
g69
NtRp1928
(dp1929
g72
(dp1930
g80
I3
ssg81
g1924
sg74
(lp1931
S'1'
asbasbasbag67
(g83
g69
NtRp1932
(dp1933
g72
(dp1934
sg81
g1916
sg74
(lp1935
g67
(g88
g69
NtRp1936
(dp1937
g72
(dp1938
sg81
g1932
sg74
(lp1939
g67
(g68
g69
NtRp1940
(dp1941
g72
(dp1942
g80
I3
ssg81
g1936
sg74
(lp1943
S'0'
asbasbasbasbasbasbasbasbasbasbasbag67
(g83
g69
NtRp1944
(dp1945
g72
(dp1946
sg81
g77
sg74
(lp1947
g67
(g88
g69
NtRp1948
(dp1949
g72
(dp1950
g92
g93
ssg81
g1944
sg74
(lp1951
S'extension'
p1952
asbag67
(g88
g69
NtRp1953
(dp1954
g72
(dp1955
g99
g100
ssg81
g1944
sg74
(lp1956
S':'
asbag67
(g88
g69
NtRp1957
(dp1958
g72
(dp1959
sg81
g1944
sg74
(lp1960
g67
(g68
g69
NtRp1961
(dp1962
g72
(dp1963
g80
I5
ssg81
g1957
sg74
(lp1964
S'html'
p1965
asbasbasbag67
(g83
g69
NtRp1966
(dp1967
g72
(dp1968
sg81
g77
sg74
(lp1969
g67
(g88
g69
NtRp1970
(dp1971
g72
(dp1972
g92
g93
ssg81
g1966
sg74
(lp1973
S'folder'
p1974
asbag67
(g88
g69
NtRp1975
(dp1976
g72
(dp1977
g99
g100
ssg81
g1966
sg74
(lp1978
S':'
asbag67
(g88
g69
NtRp1979
(dp1980
g72
(dp1981
sg81
g1966
sg74
(lp1982
g67
(g68
g69
NtRp1983
(dp1984
g72
(dp1985
g80
I5
ssg81
g1979
sg74
(lp1986
S'/web2py/applications/snapcop2_web2py/'
p1987
asbasbasbag67
(g83
g69
NtRp1988
(dp1989
g72
(dp1990
sg81
g77
sg74
(lp1991
g67
(g88
g69
NtRp1992
(dp1993
g72
(dp1994
g92
g93
ssg81
g1988
sg74
(lp1995
S'function'
p1996
asbag67
(g88
g69
NtRp1997
(dp1998
g72
(dp1999
g99
g100
ssg81
g1988
sg74
(lp2000
S':'
asbag67
(g88
g69
NtRp2001
(dp2002
g72
(dp2003
sg81
g1988
sg74
(lp2004
g67
(g68
g69
NtRp2005
(dp2006
g72
(dp2007
g80
I5
ssg81
g2001
sg74
(lp2008
S'first'
p2009
asbasbasbag67
(g83
g69
NtRp2010
(dp2011
g72
(dp2012
sg81
g77
sg74
(lp2013
g67
(g88
g69
NtRp2014
(dp2015
g72
(dp2016
g92
g93
ssg81
g2010
sg74
(lp2017
S'get_vars'
p2018
asbag67
(g88
g69
NtRp2019
(dp2020
g72
(dp2021
g99
g100
ssg81
g2010
sg74
(lp2022
S':'
asbag67
(g88
g69
NtRp2023
(dp2024
g72
(dp2025
sg81
g2010
sg74
(lp2026
g67
(g68
g69
NtRp2027
(dp2028
g72
(dp2029
g80
I5
ssg81
g2023
sg74
(lp2030
g67
(g76
g69
NtRp2031
(dp2032
g72
(dp2033
g80
I4
ssg81
Nsg74
(lp2034
sbasbasbasbag67
(g83
g69
NtRp2035
(dp2036
g72
(dp2037
sg81
g77
sg74
(lp2038
g67
(g88
g69
NtRp2039
(dp2040
g72
(dp2041
g92
g93
ssg81
g2035
sg74
(lp2042
S'global_settings'
p2043
asbag67
(g88
g69
NtRp2044
(dp2045
g72
(dp2046
g99
g100
ssg81
g2035
sg74
(lp2047
S':'
asbag67
(g88
g69
NtRp2048
(dp2049
g72
(dp2050
sg81
g2035
sg74
(lp2051
g67
(g68
g69
NtRp2052
(dp2053
g72
(dp2054
g80
I5
ssg81
g2048
sg74
(lp2055
g67
(g76
g69
NtRp2056
(dp2057
g72
(dp2058
g80
I4
ssg81
Nsg74
(lp2059
g67
(g83
g69
NtRp2060
(dp2061
g72
(dp2062
sg81
g2056
sg74
(lp2063
g67
(g88
g69
NtRp2064
(dp2065
g72
(dp2066
g92
g93
ssg81
g2060
sg74
(lp2067
g1029
asbag67
(g88
g69
NtRp2068
(dp2069
g72
(dp2070
g99
g100
ssg81
g2060
sg74
(lp2071
S':'
asbag67
(g88
g69
NtRp2072
(dp2073
g72
(dp2074
sg81
g2060
sg74
(lp2075
g67
(g68
g69
NtRp2076
(dp2077
g72
(dp2078
g80
I4
ssg81
g2072
sg74
(lp2079
S"set(['/web2py/applications/admin/', '/web2py/applications/welcome/', '/web2py/applications/snapcop2_web2py/', '/web2py/applications/snapcop2/'])"
p2080
asbasbasbag67
(g83
g69
NtRp2081
(dp2082
g72
(dp2083
sg81
g2056
sg74
(lp2084
g67
(g88
g69
NtRp2085
(dp2086
g72
(dp2087
g92
g93
ssg81
g2081
sg74
(lp2088
g1051
asbag67
(g88
g69
NtRp2089
(dp2090
g72
(dp2091
g99
g100
ssg81
g2081
sg74
(lp2092
S':'
asbag67
(g88
g69
NtRp2093
(dp2094
g72
(dp2095
sg81
g2081
sg74
(lp2096
g67
(g68
g69
NtRp2097
(dp2098
g72
(dp2099
g80
I4
ssg81
g2093
sg74
(lp2100
g1064
asbasbasbag67
(g83
g69
NtRp2101
(dp2102
g72
(dp2103
sg81
g2056
sg74
(lp2104
g67
(g88
g69
NtRp2105
(dp2106
g72
(dp2107
g92
g93
ssg81
g2101
sg74
(lp2108
g1073
asbag67
(g88
g69
NtRp2109
(dp2110
g72
(dp2111
g99
g100
ssg81
g2101
sg74
(lp2112
S':'
asbag67
(g88
g69
NtRp2113
(dp2114
g72
(dp2115
sg81
g2101
sg74
(lp2116
g67
(g68
g69
NtRp2117
(dp2118
g72
(dp2119
g80
I4
ssg81
g2113
sg74
(lp2120
g67
(g76
g69
NtRp2121
(dp2122
g72
(dp2123
g80
I3
ssg81
Nsg74
(lp2124
sbasbasbasbag67
(g83
g69
NtRp2125
(dp2126
g72
(dp2127
sg81
g2056
sg74
(lp2128
g67
(g88
g69
NtRp2129
(dp2130
g72
(dp2131
g92
g93
ssg81
g2125
sg74
(lp2132
g1098
asbag67
(g88
g69
NtRp2133
(dp2134
g72
(dp2135
g99
g100
ssg81
g2125
sg74
(lp2136
S':'
asbag67
(g88
g69
NtRp2137
(dp2138
g72
(dp2139
sg81
g2125
sg74
(lp2140
g67
(g68
g69
NtRp2141
(dp2142
g72
(dp2143
g80
I4
ssg81
g2137
sg74
(lp2144
S"<Values at 0x2f62680: {'verbose': False, 'ip': '127.0.0.1', 'shutdown_timeout': 5, 'taskbar': False, 'nocron': False, 'pid_filename': 'httpserver.pid', 'maxthreads': None, 'softcron': False, 'server_name': 'declic-pc', 'bpython': False, 'nogui': False, 'port': 8000, 'extcron': False, 'debuglevel': 30, 'test': None, 'folder': '/web2py', 'config': '', 'import_models': False, 'winservice': '', 'shell': None, 'run': '', 'log_filename': 'httpserver.log', 'args': [''], 'socket_timeout': 5, 'ssl_ca_certificate': None, 'scheduler': None, 'profiler_filename': None, 'ssl_private_key': '', 'password': 'photos10', 'request_queue_size': 5, 'ssl_certificate': '', 'cronjob': False, 'numthreads': None, 'quiet': False, 'interfaces': None, 'minthreads': None, 'timeout': 10, 'plain': False, 'nobanner': False}>"
p2145
asbasbasbag67
(g83
g69
NtRp2146
(dp2147
g72
(dp2148
sg81
g2056
sg74
(lp2149
g67
(g88
g69
NtRp2150
(dp2151
g72
(dp2152
g92
g93
ssg81
g2146
sg74
(lp2153
g1120
asbag67
(g88
g69
NtRp2154
(dp2155
g72
(dp2156
g99
g100
ssg81
g2146
sg74
(lp2157
S':'
asbag67
(g88
g69
NtRp2158
(dp2159
g72
(dp2160
sg81
g2146
sg74
(lp2161
g67
(g68
g69
NtRp2162
(dp2163
g72
(dp2164
g80
I4
ssg81
g2158
sg74
(lp2165
S'set([])'
p2166
asbasbasbag67
(g83
g69
NtRp2167
(dp2168
g72
(dp2169
sg81
g2056
sg74
(lp2170
g67
(g88
g69
NtRp2171
(dp2172
g72
(dp2173
g92
g93
ssg81
g2167
sg74
(lp2174
g1142
asbag67
(g88
g69
NtRp2175
(dp2176
g72
(dp2177
g99
g100
ssg81
g2167
sg74
(lp2178
S':'
asbag67
(g88
g69
NtRp2179
(dp2180
g72
(dp2181
sg81
g2167
sg74
(lp2182
g67
(g68
g69
NtRp2183
(dp2184
g72
(dp2185
g80
I4
ssg81
g2179
sg74
(lp2186
g110
asbasbasbag67
(g83
g69
NtRp2187
(dp2188
g72
(dp2189
sg81
g2056
sg74
(lp2190
g67
(g88
g69
NtRp2191
(dp2192
g72
(dp2193
g92
g93
ssg81
g2187
sg74
(lp2194
g1163
asbag67
(g88
g69
NtRp2195
(dp2196
g72
(dp2197
g99
g100
ssg81
g2187
sg74
(lp2198
S':'
asbag67
(g88
g69
NtRp2199
(dp2200
g72
(dp2201
sg81
g2187
sg74
(lp2202
g67
(g68
g69
NtRp2203
(dp2204
g72
(dp2205
g80
I4
ssg81
g2199
sg74
(lp2206
g1176
asbasbasbag67
(g83
g69
NtRp2207
(dp2208
g72
(dp2209
sg81
g2056
sg74
(lp2210
g67
(g88
g69
NtRp2211
(dp2212
g72
(dp2213
g92
g93
ssg81
g2207
sg74
(lp2214
g1361
asbag67
(g88
g69
NtRp2215
(dp2216
g72
(dp2217
g99
g100
ssg81
g2207
sg74
(lp2218
S':'
asbag67
(g88
g69
NtRp2219
(dp2220
g72
(dp2221
sg81
g2207
sg74
(lp2222
g67
(g68
g69
NtRp2223
(dp2224
g72
(dp2225
g80
I4
ssg81
g2219
sg74
(lp2226
g110
asbasbasbag67
(g83
g69
NtRp2227
(dp2228
g72
(dp2229
sg81
g2056
sg74
(lp2230
g67
(g88
g69
NtRp2231
(dp2232
g72
(dp2233
g92
g93
ssg81
g2227
sg74
(lp2234
g1382
asbag67
(g88
g69
NtRp2235
(dp2236
g72
(dp2237
g99
g100
ssg81
g2227
sg74
(lp2238
S':'
asbag67
(g88
g69
NtRp2239
(dp2240
g72
(dp2241
sg81
g2227
sg74
(lp2242
g67
(g68
g69
NtRp2243
(dp2244
g72
(dp2245
g80
I4
ssg81
g2239
sg74
(lp2246
g110
asbasbasbag67
(g83
g69
NtRp2247
(dp2248
g72
(dp2249
sg81
g2056
sg74
(lp2250
g67
(g88
g69
NtRp2251
(dp2252
g72
(dp2253
g92
g93
ssg81
g2247
sg74
(lp2254
g1620
asbag67
(g88
g69
NtRp2255
(dp2256
g72
(dp2257
g99
g100
ssg81
g2247
sg74
(lp2258
S':'
asbag67
(g88
g69
NtRp2259
(dp2260
g72
(dp2261
sg81
g2247
sg74
(lp2262
g67
(g68
g69
NtRp2263
(dp2264
g72
(dp2265
g80
I4
ssg81
g2259
sg74
(lp2266
g1633
asbasbasbag67
(g83
g69
NtRp2267
(dp2268
g72
(dp2269
sg81
g2056
sg74
(lp2270
g67
(g88
g69
NtRp2271
(dp2272
g72
(dp2273
g92
g93
ssg81
g2267
sg74
(lp2274
g1663
asbag67
(g88
g69
NtRp2275
(dp2276
g72
(dp2277
g99
g100
ssg81
g2267
sg74
(lp2278
S':'
asbag67
(g88
g69
NtRp2279
(dp2280
g72
(dp2281
sg81
g2267
sg74
(lp2282
g67
(g68
g69
NtRp2283
(dp2284
g72
(dp2285
g80
I4
ssg81
g2279
sg74
(lp2286
g67
(g76
g69
NtRp2287
(dp2288
g72
(dp2289
g80
I3
ssg81
Nsg74
(lp2290
g67
(g83
g69
NtRp2291
(dp2292
g72
(dp2293
sg81
g2287
sg74
(lp2294
g67
(g88
g69
NtRp2295
(dp2296
g72
(dp2297
sg81
g2291
sg74
(lp2298
g67
(g68
g69
NtRp2299
(dp2300
g72
(dp2301
g80
I3
ssg81
g2295
sg74
(lp2302
S'1'
asbasbasbag67
(g83
g69
NtRp2303
(dp2304
g72
(dp2305
sg81
g2287
sg74
(lp2306
g67
(g88
g69
NtRp2307
(dp2308
g72
(dp2309
sg81
g2303
sg74
(lp2310
g67
(g68
g69
NtRp2311
(dp2312
g72
(dp2313
g80
I3
ssg81
g2307
sg74
(lp2314
S'99'
p2315
asbasbasbag67
(g83
g69
NtRp2316
(dp2317
g72
(dp2318
sg81
g2287
sg74
(lp2319
g67
(g88
g69
NtRp2320
(dp2321
g72
(dp2322
sg81
g2316
sg74
(lp2323
g67
(g68
g69
NtRp2324
(dp2325
g72
(dp2326
g80
I3
ssg81
g2320
sg74
(lp2327
S'7'
asbasbasbag67
(g83
g69
NtRp2328
(dp2329
g72
(dp2330
sg81
g2287
sg74
(lp2331
g67
(g88
g69
NtRp2332
(dp2333
g72
(dp2334
sg81
g2328
sg74
(lp2335
g67
(g68
g69
NtRp2336
(dp2337
g72
(dp2338
g80
I3
ssg81
g2332
sg74
(lp2339
S'datetime.datetime(2012, 3, 4, 22, 12, 8)'
p2340
asbasbasbag67
(g83
g69
NtRp2341
(dp2342
g72
(dp2343
sg81
g2287
sg74
(lp2344
g67
(g88
g69
NtRp2345
(dp2346
g72
(dp2347
sg81
g2341
sg74
(lp2348
g67
(g68
g69
NtRp2349
(dp2350
g72
(dp2351
g80
I3
ssg81
g2345
sg74
(lp2352
g1742
asbasbasbasbasbasbasbasbasbasbasbag67
(g83
g69
NtRp2353
(dp2354
g72
(dp2355
sg81
g77
sg74
(lp2356
g67
(g88
g69
NtRp2357
(dp2358
g72
(dp2359
g92
g93
ssg81
g2353
sg74
(lp2360
S'is_https'
p2361
asbag67
(g88
g69
NtRp2362
(dp2363
g72
(dp2364
g99
g100
ssg81
g2353
sg74
(lp2365
S':'
asbag67
(g88
g69
NtRp2366
(dp2367
g72
(dp2368
sg81
g2353
sg74
(lp2369
g67
(g68
g69
NtRp2370
(dp2371
g72
(dp2372
g80
I5
ssg81
g2366
sg74
(lp2373
g110
asbasbasbag67
(g83
g69
NtRp2374
(dp2375
g72
(dp2376
sg81
g77
sg74
(lp2377
g67
(g88
g69
NtRp2378
(dp2379
g72
(dp2380
g92
g93
ssg81
g2374
sg74
(lp2381
S'is_local'
p2382
asbag67
(g88
g69
NtRp2383
(dp2384
g72
(dp2385
g99
g100
ssg81
g2374
sg74
(lp2386
S':'
asbag67
(g88
g69
NtRp2387
(dp2388
g72
(dp2389
sg81
g2374
sg74
(lp2390
g67
(g68
g69
NtRp2391
(dp2392
g72
(dp2393
g80
I5
ssg81
g2387
sg74
(lp2394
g1851
asbasbasbag67
(g83
g69
NtRp2395
(dp2396
g72
(dp2397
sg81
g77
sg74
(lp2398
g67
(g88
g69
NtRp2399
(dp2400
g72
(dp2401
g92
g93
ssg81
g2395
sg74
(lp2402
S'is_restful'
p2403
asbag67
(g88
g69
NtRp2404
(dp2405
g72
(dp2406
g99
g100
ssg81
g2395
sg74
(lp2407
S':'
asbag67
(g88
g69
NtRp2408
(dp2409
g72
(dp2410
sg81
g2395
sg74
(lp2411
g67
(g68
g69
NtRp2412
(dp2413
g72
(dp2414
g80
I5
ssg81
g2408
sg74
(lp2415
g110
asbasbasbag67
(g83
g69
NtRp2416
(dp2417
g72
(dp2418
sg81
g77
sg74
(lp2419
g67
(g88
g69
NtRp2420
(dp2421
g72
(dp2422
g92
g93
ssg81
g2416
sg74
(lp2423
S'now'
p2424
asbag67
(g88
g69
NtRp2425
(dp2426
g72
(dp2427
g99
g100
ssg81
g2416
sg74
(lp2428
S':'
asbag67
(g88
g69
NtRp2429
(dp2430
g72
(dp2431
sg81
g2416
sg74
(lp2432
g67
(g68
g69
NtRp2433
(dp2434
g72
(dp2435
g80
I5
ssg81
g2429
sg74
(lp2436
S'datetime.datetime(2012, 8, 24, 14, 12, 38, 718682)'
p2437
asbasbasbag67
(g83
g69
NtRp2438
(dp2439
g72
(dp2440
sg81
g77
sg74
(lp2441
g67
(g88
g69
NtRp2442
(dp2443
g72
(dp2444
g92
g93
ssg81
g2438
sg74
(lp2445
S'post_vars'
p2446
asbag67
(g88
g69
NtRp2447
(dp2448
g72
(dp2449
g99
g100
ssg81
g2438
sg74
(lp2450
S':'
asbag67
(g88
g69
NtRp2451
(dp2452
g72
(dp2453
sg81
g2438
sg74
(lp2454
g67
(g68
g69
NtRp2455
(dp2456
g72
(dp2457
g80
I5
ssg81
g2451
sg74
(lp2458
g67
(g76
g69
NtRp2459
(dp2460
g72
(dp2461
g80
I4
ssg81
Nsg74
(lp2462
sbasbasbasbag67
(g83
g69
NtRp2463
(dp2464
g72
(dp2465
sg81
g77
sg74
(lp2466
g67
(g88
g69
NtRp2467
(dp2468
g72
(dp2469
g92
g93
ssg81
g2463
sg74
(lp2470
S'url'
p2471
asbag67
(g88
g69
NtRp2472
(dp2473
g72
(dp2474
g99
g100
ssg81
g2463
sg74
(lp2475
S':'
asbag67
(g88
g69
NtRp2476
(dp2477
g72
(dp2478
sg81
g2463
sg74
(lp2479
g67
(g68
g69
NtRp2480
(dp2481
g72
(dp2482
g80
I5
ssg81
g2476
sg74
(lp2483
S'/snapcop2_web2py/form/first'
p2484
asbasbasbag67
(g83
g69
NtRp2485
(dp2486
g72
(dp2487
sg81
g77
sg74
(lp2488
g67
(g88
g69
NtRp2489
(dp2490
g72
(dp2491
g92
g93
ssg81
g2485
sg74
(lp2492
S'utcnow'
p2493
asbag67
(g88
g69
NtRp2494
(dp2495
g72
(dp2496
g99
g100
ssg81
g2485
sg74
(lp2497
S':'
asbag67
(g88
g69
NtRp2498
(dp2499
g72
(dp2500
sg81
g2485
sg74
(lp2501
g67
(g68
g69
NtRp2502
(dp2503
g72
(dp2504
g80
I5
ssg81
g2498
sg74
(lp2505
S'datetime.datetime(2012, 8, 24, 12, 12, 38, 718704)'
p2506
asbasbasbag67
(g83
g69
NtRp2507
(dp2508
g72
(dp2509
sg81
g77
sg74
(lp2510
g67
(g88
g69
NtRp2511
(dp2512
g72
(dp2513
g92
g93
ssg81
g2507
sg74
(lp2514
S'uuid'
p2515
asbag67
(g88
g69
NtRp2516
(dp2517
g72
(dp2518
g99
g100
ssg81
g2507
sg74
(lp2519
S':'
asbag67
(g88
g69
NtRp2520
(dp2521
g72
(dp2522
sg81
g2507
sg74
(lp2523
g67
(g68
g69
NtRp2524
(dp2525
g72
(dp2526
g80
I5
ssg81
g2520
sg74
(lp2527
S'snapcop2_web2py/127.0.0.1.2012-08-24.14-12-38.4af3dffe-aeaf-4229-9a4d-338ddd223173'
p2528
asbasbasbag67
(g83
g69
NtRp2529
(dp2530
g72
(dp2531
sg81
g77
sg74
(lp2532
g67
(g88
g69
NtRp2533
(dp2534
g72
(dp2535
g92
g93
ssg81
g2529
sg74
(lp2536
S'vars'
p2537
asbag67
(g88
g69
NtRp2538
(dp2539
g72
(dp2540
g99
g100
ssg81
g2529
sg74
(lp2541
S':'
asbag67
(g88
g69
NtRp2542
(dp2543
g72
(dp2544
sg81
g2529
sg74
(lp2545
g67
(g68
g69
NtRp2546
(dp2547
g72
(dp2548
g80
I5
ssg81
g2542
sg74
(lp2549
g67
(g76
g69
NtRp2550
(dp2551
g72
(dp2552
g80
I4
ssg81
Nsg74
(lp2553
sbasbasbasbag67
(g83
g69
NtRp2554
(dp2555
g72
(dp2556
sg81
g77
sg74
(lp2557
g67
(g88
g69
NtRp2558
(dp2559
g72
(dp2560
g92
g93
ssg81
g2554
sg74
(lp2561
S'wsgi'
p2562
asbag67
(g88
g69
NtRp2563
(dp2564
g72
(dp2565
g99
g100
ssg81
g2554
sg74
(lp2566
S':'
asbag67
(g88
g69
NtRp2567
(dp2568
g72
(dp2569
sg81
g2554
sg74
(lp2570
g67
(g68
g69
NtRp2571
(dp2572
g72
(dp2573
g80
I5
ssg81
g2567
sg74
(lp2574
g67
(g76
g69
NtRp2575
(dp2576
g72
(dp2577
g80
I4
ssg81
Nsg74
(lp2578
g67
(g83
g69
NtRp2579
(dp2580
g72
(dp2581
sg81
g2575
sg74
(lp2582
g67
(g88
g69
NtRp2583
(dp2584
g72
(dp2585
g92
g93
ssg81
g2579
sg74
(lp2586
S'environ'
p2587
asbag67
(g88
g69
NtRp2588
(dp2589
g72
(dp2590
g99
g100
ssg81
g2579
sg74
(lp2591
S':'
asbag67
(g88
g69
NtRp2592
(dp2593
g72
(dp2594
sg81
g2579
sg74
(lp2595
g67
(g68
g69
NtRp2596
(dp2597
g72
(dp2598
g80
I4
ssg81
g2592
sg74
(lp2599
g67
(g76
g69
NtRp2600
(dp2601
g72
(dp2602
g80
I3
ssg81
Nsg74
(lp2603
g67
(g83
g69
NtRp2604
(dp2605
g72
(dp2606
sg81
g2600
sg74
(lp2607
g67
(g88
g69
NtRp2608
(dp2609
g72
(dp2610
g92
g93
ssg81
g2604
sg74
(lp2611
S'HTTP_ACCEPT'
p2612
asbag67
(g88
g69
NtRp2613
(dp2614
g72
(dp2615
g99
g100
ssg81
g2604
sg74
(lp2616
S':'
asbag67
(g88
g69
NtRp2617
(dp2618
g72
(dp2619
sg81
g2604
sg74
(lp2620
g67
(g68
g69
NtRp2621
(dp2622
g72
(dp2623
g80
I3
ssg81
g2617
sg74
(lp2624
g1198
asbasbasbag67
(g83
g69
NtRp2625
(dp2626
g72
(dp2627
sg81
g2600
sg74
(lp2628
g67
(g88
g69
NtRp2629
(dp2630
g72
(dp2631
g92
g93
ssg81
g2625
sg74
(lp2632
S'HTTP_ACCEPT_ENCODING'
p2633
asbag67
(g88
g69
NtRp2634
(dp2635
g72
(dp2636
g99
g100
ssg81
g2625
sg74
(lp2637
S':'
asbag67
(g88
g69
NtRp2638
(dp2639
g72
(dp2640
sg81
g2625
sg74
(lp2641
g67
(g68
g69
NtRp2642
(dp2643
g72
(dp2644
g80
I3
ssg81
g2638
sg74
(lp2645
g1220
asbasbasbag67
(g83
g69
NtRp2646
(dp2647
g72
(dp2648
sg81
g2600
sg74
(lp2649
g67
(g88
g69
NtRp2650
(dp2651
g72
(dp2652
g92
g93
ssg81
g2646
sg74
(lp2653
S'HTTP_ACCEPT_LANGUAGE'
p2654
asbag67
(g88
g69
NtRp2655
(dp2656
g72
(dp2657
g99
g100
ssg81
g2646
sg74
(lp2658
S':'
asbag67
(g88
g69
NtRp2659
(dp2660
g72
(dp2661
sg81
g2646
sg74
(lp2662
g67
(g68
g69
NtRp2663
(dp2664
g72
(dp2665
g80
I3
ssg81
g2659
sg74
(lp2666
g1242
asbasbasbag67
(g83
g69
NtRp2667
(dp2668
g72
(dp2669
sg81
g2600
sg74
(lp2670
g67
(g88
g69
NtRp2671
(dp2672
g72
(dp2673
g92
g93
ssg81
g2667
sg74
(lp2674
S'HTTP_CACHE_CONTROL'
p2675
asbag67
(g88
g69
NtRp2676
(dp2677
g72
(dp2678
g99
g100
ssg81
g2667
sg74
(lp2679
S':'
asbag67
(g88
g69
NtRp2680
(dp2681
g72
(dp2682
sg81
g2667
sg74
(lp2683
g67
(g68
g69
NtRp2684
(dp2685
g72
(dp2686
g80
I3
ssg81
g2680
sg74
(lp2687
g1264
asbasbasbag67
(g83
g69
NtRp2688
(dp2689
g72
(dp2690
sg81
g2600
sg74
(lp2691
g67
(g88
g69
NtRp2692
(dp2693
g72
(dp2694
g92
g93
ssg81
g2688
sg74
(lp2695
S'HTTP_CONNECTION'
p2696
asbag67
(g88
g69
NtRp2697
(dp2698
g72
(dp2699
g99
g100
ssg81
g2688
sg74
(lp2700
S':'
asbag67
(g88
g69
NtRp2701
(dp2702
g72
(dp2703
sg81
g2688
sg74
(lp2704
g67
(g68
g69
NtRp2705
(dp2706
g72
(dp2707
g80
I3
ssg81
g2701
sg74
(lp2708
g1286
asbasbasbag67
(g83
g69
NtRp2709
(dp2710
g72
(dp2711
sg81
g2600
sg74
(lp2712
g67
(g88
g69
NtRp2713
(dp2714
g72
(dp2715
g92
g93
ssg81
g2709
sg74
(lp2716
S'HTTP_COOKIE'
p2717
asbag67
(g88
g69
NtRp2718
(dp2719
g72
(dp2720
g99
g100
ssg81
g2709
sg74
(lp2721
S':'
asbag67
(g88
g69
NtRp2722
(dp2723
g72
(dp2724
sg81
g2709
sg74
(lp2725
g67
(g68
g69
NtRp2726
(dp2727
g72
(dp2728
g80
I3
ssg81
g2722
sg74
(lp2729
g1308
asbasbasbag67
(g83
g69
NtRp2730
(dp2731
g72
(dp2732
sg81
g2600
sg74
(lp2733
g67
(g88
g69
NtRp2734
(dp2735
g72
(dp2736
g92
g93
ssg81
g2730
sg74
(lp2737
S'HTTP_HOST'
p2738
asbag67
(g88
g69
NtRp2739
(dp2740
g72
(dp2741
g99
g100
ssg81
g2730
sg74
(lp2742
S':'
asbag67
(g88
g69
NtRp2743
(dp2744
g72
(dp2745
sg81
g2730
sg74
(lp2746
g67
(g68
g69
NtRp2747
(dp2748
g72
(dp2749
g80
I3
ssg81
g2743
sg74
(lp2750
g1330
asbasbasbag67
(g83
g69
NtRp2751
(dp2752
g72
(dp2753
sg81
g2600
sg74
(lp2754
g67
(g88
g69
NtRp2755
(dp2756
g72
(dp2757
g92
g93
ssg81
g2751
sg74
(lp2758
S'HTTP_USER_AGENT'
p2759
asbag67
(g88
g69
NtRp2760
(dp2761
g72
(dp2762
g99
g100
ssg81
g2751
sg74
(lp2763
S':'
asbag67
(g88
g69
NtRp2764
(dp2765
g72
(dp2766
sg81
g2751
sg74
(lp2767
g67
(g68
g69
NtRp2768
(dp2769
g72
(dp2770
g80
I3
ssg81
g2764
sg74
(lp2771
g1352
asbasbasbag67
(g83
g69
NtRp2772
(dp2773
g72
(dp2774
sg81
g2600
sg74
(lp2775
g67
(g88
g69
NtRp2776
(dp2777
g72
(dp2778
g92
g93
ssg81
g2772
sg74
(lp2779
S'PATH_INFO'
p2780
asbag67
(g88
g69
NtRp2781
(dp2782
g72
(dp2783
g99
g100
ssg81
g2772
sg74
(lp2784
S':'
asbag67
(g88
g69
NtRp2785
(dp2786
g72
(dp2787
sg81
g2772
sg74
(lp2788
g67
(g68
g69
NtRp2789
(dp2790
g72
(dp2791
g80
I3
ssg81
g2785
sg74
(lp2792
g1416
asbasbasbag67
(g83
g69
NtRp2793
(dp2794
g72
(dp2795
sg81
g2600
sg74
(lp2796
g67
(g88
g69
NtRp2797
(dp2798
g72
(dp2799
g92
g93
ssg81
g2793
sg74
(lp2800
S'QUERY_STRING'
p2801
asbag67
(g88
g69
NtRp2802
(dp2803
g72
(dp2804
g99
g100
ssg81
g2793
sg74
(lp2805
S':'
asbag67
(g88
g69
NtRp2806
(dp2807
g72
(dp2808
sg81
g2793
sg74
(lp2809
g67
(g68
g69
NtRp2810
(dp2811
g72
(dp2812
g80
I3
ssg81
g2806
sg74
(lp2813
S''
asbasbasbag67
(g83
g69
NtRp2814
(dp2815
g72
(dp2816
sg81
g2600
sg74
(lp2817
g67
(g88
g69
NtRp2818
(dp2819
g72
(dp2820
g92
g93
ssg81
g2814
sg74
(lp2821
S'REMOTE_ADDR'
p2822
asbag67
(g88
g69
NtRp2823
(dp2824
g72
(dp2825
g99
g100
ssg81
g2814
sg74
(lp2826
S':'
asbag67
(g88
g69
NtRp2827
(dp2828
g72
(dp2829
sg81
g2814
sg74
(lp2830
g67
(g68
g69
NtRp2831
(dp2832
g72
(dp2833
g80
I3
ssg81
g2827
sg74
(lp2834
g200
asbasbasbag67
(g83
g69
NtRp2835
(dp2836
g72
(dp2837
sg81
g2600
sg74
(lp2838
g67
(g88
g69
NtRp2839
(dp2840
g72
(dp2841
g92
g93
ssg81
g2835
sg74
(lp2842
S'REMOTE_PORT'
p2843
asbag67
(g88
g69
NtRp2844
(dp2845
g72
(dp2846
g99
g100
ssg81
g2835
sg74
(lp2847
S':'
asbag67
(g88
g69
NtRp2848
(dp2849
g72
(dp2850
sg81
g2835
sg74
(lp2851
g67
(g68
g69
NtRp2852
(dp2853
g72
(dp2854
g80
I3
ssg81
g2848
sg74
(lp2855
g1480
asbasbasbag67
(g83
g69
NtRp2856
(dp2857
g72
(dp2858
sg81
g2600
sg74
(lp2859
g67
(g88
g69
NtRp2860
(dp2861
g72
(dp2862
g92
g93
ssg81
g2856
sg74
(lp2863
S'REQUEST_METHOD'
p2864
asbag67
(g88
g69
NtRp2865
(dp2866
g72
(dp2867
g99
g100
ssg81
g2856
sg74
(lp2868
S':'
asbag67
(g88
g69
NtRp2869
(dp2870
g72
(dp2871
sg81
g2856
sg74
(lp2872
g67
(g68
g69
NtRp2873
(dp2874
g72
(dp2875
g80
I3
ssg81
g2869
sg74
(lp2876
g1502
asbasbasbag67
(g83
g69
NtRp2877
(dp2878
g72
(dp2879
sg81
g2600
sg74
(lp2880
g67
(g88
g69
NtRp2881
(dp2882
g72
(dp2883
g92
g93
ssg81
g2877
sg74
(lp2884
S'SCRIPT_NAME'
p2885
asbag67
(g88
g69
NtRp2886
(dp2887
g72
(dp2888
g99
g100
ssg81
g2877
sg74
(lp2889
S':'
asbag67
(g88
g69
NtRp2890
(dp2891
g72
(dp2892
sg81
g2877
sg74
(lp2893
g67
(g68
g69
NtRp2894
(dp2895
g72
(dp2896
g80
I3
ssg81
g2890
sg74
(lp2897
S''
asbasbasbag67
(g83
g69
NtRp2898
(dp2899
g72
(dp2900
sg81
g2600
sg74
(lp2901
g67
(g88
g69
NtRp2902
(dp2903
g72
(dp2904
g92
g93
ssg81
g2898
sg74
(lp2905
S'SERVER_NAME'
p2906
asbag67
(g88
g69
NtRp2907
(dp2908
g72
(dp2909
g99
g100
ssg81
g2898
sg74
(lp2910
S':'
asbag67
(g88
g69
NtRp2911
(dp2912
g72
(dp2913
sg81
g2898
sg74
(lp2914
g67
(g68
g69
NtRp2915
(dp2916
g72
(dp2917
g80
I3
ssg81
g2911
sg74
(lp2918
g1545
asbasbasbag67
(g83
g69
NtRp2919
(dp2920
g72
(dp2921
sg81
g2600
sg74
(lp2922
g67
(g88
g69
NtRp2923
(dp2924
g72
(dp2925
g92
g93
ssg81
g2919
sg74
(lp2926
S'SERVER_PORT'
p2927
asbag67
(g88
g69
NtRp2928
(dp2929
g72
(dp2930
g99
g100
ssg81
g2919
sg74
(lp2931
S':'
asbag67
(g88
g69
NtRp2932
(dp2933
g72
(dp2934
sg81
g2919
sg74
(lp2935
g67
(g68
g69
NtRp2936
(dp2937
g72
(dp2938
g80
I3
ssg81
g2932
sg74
(lp2939
g1567
asbasbasbag67
(g83
g69
NtRp2940
(dp2941
g72
(dp2942
sg81
g2600
sg74
(lp2943
g67
(g88
g69
NtRp2944
(dp2945
g72
(dp2946
g92
g93
ssg81
g2940
sg74
(lp2947
S'SERVER_PROTOCOL'
p2948
asbag67
(g88
g69
NtRp2949
(dp2950
g72
(dp2951
g99
g100
ssg81
g2940
sg74
(lp2952
S':'
asbag67
(g88
g69
NtRp2953
(dp2954
g72
(dp2955
sg81
g2940
sg74
(lp2956
g67
(g68
g69
NtRp2957
(dp2958
g72
(dp2959
g80
I3
ssg81
g2953
sg74
(lp2960
g1589
asbasbasbag67
(g83
g69
NtRp2961
(dp2962
g72
(dp2963
sg81
g2600
sg74
(lp2964
g67
(g88
g69
NtRp2965
(dp2966
g72
(dp2967
g92
g93
ssg81
g2961
sg74
(lp2968
S'SERVER_SOFTWARE'
p2969
asbag67
(g88
g69
NtRp2970
(dp2971
g72
(dp2972
g99
g100
ssg81
g2961
sg74
(lp2973
S':'
asbag67
(g88
g69
NtRp2974
(dp2975
g72
(dp2976
sg81
g2961
sg74
(lp2977
g67
(g68
g69
NtRp2978
(dp2979
g72
(dp2980
g80
I3
ssg81
g2974
sg74
(lp2981
g1611
asbasbasbag67
(g83
g69
NtRp2982
(dp2983
g72
(dp2984
sg81
g2600
sg74
(lp2985
g67
(g88
g69
NtRp2986
(dp2987
g72
(dp2988
g92
g93
ssg81
g2982
sg74
(lp2989
S'wsgi.errors'
p2990
asbag67
(g88
g69
NtRp2991
(dp2992
g72
(dp2993
g99
g100
ssg81
g2982
sg74
(lp2994
S':'
asbag67
(g88
g69
NtRp2995
(dp2996
g72
(dp2997
sg81
g2982
sg74
(lp2998
g67
(g68
g69
NtRp2999
(dp3000
g72
(dp3001
g80
I3
ssg81
g2995
sg74
(lp3002
S"<open file '<stderr>', mode 'w' at 0x7f49ef740270>"
p3003
asbasbasbag67
(g83
g69
NtRp3004
(dp3005
g72
(dp3006
sg81
g2600
sg74
(lp3007
g67
(g88
g69
NtRp3008
(dp3009
g72
(dp3010
g92
g93
ssg81
g3004
sg74
(lp3011
S'wsgi.file_wrapper'
p3012
asbag67
(g88
g69
NtRp3013
(dp3014
g72
(dp3015
g99
g100
ssg81
g3004
sg74
(lp3016
S':'
asbag67
(g88
g69
NtRp3017
(dp3018
g72
(dp3019
sg81
g3004
sg74
(lp3020
g67
(g68
g69
NtRp3021
(dp3022
g72
(dp3023
g80
I3
ssg81
g3017
sg74
(lp3024
S'<class wsgiref.util.FileWrapper at 0x2e896d0>'
p3025
asbasbasbag67
(g83
g69
NtRp3026
(dp3027
g72
(dp3028
sg81
g2600
sg74
(lp3029
g67
(g88
g69
NtRp3030
(dp3031
g72
(dp3032
g92
g93
ssg81
g3026
sg74
(lp3033
S'wsgi.input'
p3034
asbag67
(g88
g69
NtRp3035
(dp3036
g72
(dp3037
g99
g100
ssg81
g3026
sg74
(lp3038
S':'
asbag67
(g88
g69
NtRp3039
(dp3040
g72
(dp3041
sg81
g3026
sg74
(lp3042
g67
(g68
g69
NtRp3043
(dp3044
g72
(dp3045
g80
I3
ssg81
g3039
sg74
(lp3046
S'<cStringIO.StringO object at 0x7f49dc177d50>'
p3047
asbasbasbag67
(g83
g69
NtRp3048
(dp3049
g72
(dp3050
sg81
g2600
sg74
(lp3051
g67
(g88
g69
NtRp3052
(dp3053
g72
(dp3054
g92
g93
ssg81
g3048
sg74
(lp3055
S'wsgi.multiprocess'
p3056
asbag67
(g88
g69
NtRp3057
(dp3058
g72
(dp3059
g99
g100
ssg81
g3048
sg74
(lp3060
S':'
asbag67
(g88
g69
NtRp3061
(dp3062
g72
(dp3063
sg81
g3048
sg74
(lp3064
g67
(g68
g69
NtRp3065
(dp3066
g72
(dp3067
g80
I3
ssg81
g3061
sg74
(lp3068
g110
asbasbasbag67
(g83
g69
NtRp3069
(dp3070
g72
(dp3071
sg81
g2600
sg74
(lp3072
g67
(g88
g69
NtRp3073
(dp3074
g72
(dp3075
g92
g93
ssg81
g3069
sg74
(lp3076
S'wsgi.multithread'
p3077
asbag67
(g88
g69
NtRp3078
(dp3079
g72
(dp3080
g99
g100
ssg81
g3069
sg74
(lp3081
S':'
asbag67
(g88
g69
NtRp3082
(dp3083
g72
(dp3084
sg81
g3069
sg74
(lp3085
g67
(g68
g69
NtRp3086
(dp3087
g72
(dp3088
g80
I3
ssg81
g3082
sg74
(lp3089
g1851
asbasbasbag67
(g83
g69
NtRp3090
(dp3091
g72
(dp3092
sg81
g2600
sg74
(lp3093
g67
(g88
g69
NtRp3094
(dp3095
g72
(dp3096
g92
g93
ssg81
g3090
sg74
(lp3097
S'wsgi.run_once'
p3098
asbag67
(g88
g69
NtRp3099
(dp3100
g72
(dp3101
g99
g100
ssg81
g3090
sg74
(lp3102
S':'
asbag67
(g88
g69
NtRp3103
(dp3104
g72
(dp3105
sg81
g3090
sg74
(lp3106
g67
(g68
g69
NtRp3107
(dp3108
g72
(dp3109
g80
I3
ssg81
g3103
sg74
(lp3110
g110
asbasbasbag67
(g83
g69
NtRp3111
(dp3112
g72
(dp3113
sg81
g2600
sg74
(lp3114
g67
(g88
g69
NtRp3115
(dp3116
g72
(dp3117
g92
g93
ssg81
g3111
sg74
(lp3118
S'wsgi.url_scheme'
p3119
asbag67
(g88
g69
NtRp3120
(dp3121
g72
(dp3122
g99
g100
ssg81
g3111
sg74
(lp3123
S':'
asbag67
(g88
g69
NtRp3124
(dp3125
g72
(dp3126
sg81
g3111
sg74
(lp3127
g67
(g68
g69
NtRp3128
(dp3129
g72
(dp3130
g80
I3
ssg81
g3124
sg74
(lp3131
g1894
asbasbasbag67
(g83
g69
NtRp3132
(dp3133
g72
(dp3134
sg81
g2600
sg74
(lp3135
g67
(g88
g69
NtRp3136
(dp3137
g72
(dp3138
g92
g93
ssg81
g3132
sg74
(lp3139
S'wsgi.version'
p3140
asbag67
(g88
g69
NtRp3141
(dp3142
g72
(dp3143
g99
g100
ssg81
g3132
sg74
(lp3144
S':'
asbag67
(g88
g69
NtRp3145
(dp3146
g72
(dp3147
sg81
g3132
sg74
(lp3148
g67
(g68
g69
NtRp3149
(dp3150
g72
(dp3151
g80
I3
ssg81
g3145
sg74
(lp3152
S'1'
asbasbasbasbasbasbasbasbasbasbasbasbasbsS'frames'
p3153
(lp3154
(dp3155
S'file'
p3156
S'/web2py/gluon/restricted.py'
p3157
sS'dump'
p3158
(dp3159
S'code'
p3160
S"'# -*- coding: utf-8 -*-\\n\\nimport redis\\ncx = redis...rm.vars)\\n\\nresponse._vars=response._caller(first)\\n'"
p3161
sS'layer'
p3162
S"'/web2py/applications/snapcop2_web2py/controllers/form.py'"
p3163
sS'global compile2'
p3164
S'<function compile2>'
p3165
sS'ccode'
p3166
S'undefined'
p3167
ssS'lnum'
p3168
I204
sS'lines'
p3169
(dp3170
I199
S"    environment['__name__'] = '__restricted__'"
p3171
sI200
S'    try:'
p3172
sI201
S'        if type(code) == types.CodeType:'
p3173
sI202
S'            ccode = code'
p3174
sI203
S'        else:'
p3175
sI204
S'            ccode = compile2(code,layer)'
p3176
sI205
S'        exec ccode in environment'
p3177
sI206
S'    except HTTP:'
p3178
sI207
S'        raise'
p3179
sI208
S'    except RestrictedError:'
p3180
ssS'call'
p3181
S"(code='# -*- coding: utf-8 -*-\\n\\nimport redis\\ncx = redis...rm.vars)\\n\\nresponse._vars=response._caller(first)\\n', environment={'A': <class 'gluon.html.A'>, 'Auth': <class 'gluon.tools.Auth'>, 'B': <class 'gluon.html.B'>, 'BEAUTIFY': <class 'gluon.html.BEAUTIFY'>, 'BODY': <class 'gluon.html.BODY'>, 'BR': <class 'gluon.html.BR'>, 'BUTTON': <class 'gluon.html.BUTTON'>, 'CAT': <class 'gluon.html.CAT'>, 'CENTER': <class 'gluon.html.CENTER'>, 'CLEANUP': <class 'gluon.validators.CLEANUP'>, ...}, layer='/web2py/applications/snapcop2_web2py/controllers/form.py')"
p3182
sS'func'
p3183
S'restricted'
p3184
sa(dp3185
g3156
S'/web2py/gluon/restricted.py'
p3186
sg3158
(dp3187
S'builtincompile'
p3188
S'<built-in function compile>'
p3189
sS'code'
p3190
S"'# -*- coding: utf-8 -*-\\n\\nimport redis\\ncx = redis...rm.vars)\\n\\nresponse._vars=response._caller(first)\\n'"
p3191
sS'code.rstrip'
p3192
S'<built-in method rstrip of str object>'
p3193
sS').replace'
p3194
g3167
sS'layer'
p3195
S"'/web2py/applications/snapcop2_web2py/controllers/form.py'"
p3196
ssg3168
I189
sg3169
(dp3197
I192
S'    """'
p3198
sI193
S'    runs code in environment and returns the output. if an exception occurs'
p3199
sI184
S''
sI185
S'def compile2(code,layer):'
p3200
sI186
S'    """'
p3201
sI187
S"    The +'\\n' is necessary else compile fails when code ends in a comment."
p3202
sI188
S'    """'
p3203
sI189
S"    return compile(code.rstrip().replace('\\r\\n','\\n')+'\\n', layer, 'exec')"
p3204
sI190
S''
sI191
S"def restricted(code, environment=None, layer='Unknown'):"
p3205
ssg3181
S"(code='# -*- coding: utf-8 -*-\\n\\nimport redis\\ncx = redis...rm.vars)\\n\\nresponse._vars=response._caller(first)\\n', layer='/web2py/applications/snapcop2_web2py/controllers/form.py')"
p3206
sg3183
S'compile2'
p3207
sasS'pyver'
p3208
S'Python 2.7.3: /usr/bin/python'
p3209
sS'session'
p3210
g67
(g68
g69
NtRp3211
(dp3212
g72
(dp3213
sg74
(lp3214
g67
(g76
g69
NtRp3215
(dp3216
g72
(dp3217
g80
I5
ssg81
Nsg74
(lp3218
sbasbsS'etype'
p3219
S"<type 'exceptions.IndentationError'>"
p3220
sS'date'
p3221
S'Fri Aug 24 14:12:38 2012'
p3222
sS'response'
p3223
g67
(g68
g69
NtRp3224
(dp3225
g72
(dp3226
sg74
(lp3227
g67
(g76
g69
NtRp3228
(dp3229
g72
(dp3230
g80
I5
ssg81
Nsg74
(lp3231
g67
(g83
g69
NtRp3232
(dp3233
g72
(dp3234
sg81
g3228
sg74
(lp3235
g67
(g88
g69
NtRp3236
(dp3237
g72
(dp3238
g92
g93
ssg81
g3232
sg74
(lp3239
g165
asbag67
(g88
g69
NtRp3240
(dp3241
g72
(dp3242
g99
g100
ssg81
g3232
sg74
(lp3243
S':'
asbag67
(g88
g69
NtRp3244
(dp3245
g72
(dp3246
sg81
g3232
sg74
(lp3247
g67
(g68
g69
NtRp3248
(dp3249
g72
(dp3250
g80
I5
ssg81
g3244
sg74
(lp3251
S'<cStringIO.StringO object at 0x7f49dc177b20>'
p3252
asbasbasbag67
(g83
g69
NtRp3253
(dp3254
g72
(dp3255
sg81
g3228
sg74
(lp3256
g67
(g88
g69
NtRp3257
(dp3258
g72
(dp3259
g92
g93
ssg81
g3253
sg74
(lp3260
g231
asbag67
(g88
g69
NtRp3261
(dp3262
g72
(dp3263
g99
g100
ssg81
g3253
sg74
(lp3264
S':'
asbag67
(g88
g69
NtRp3265
(dp3266
g72
(dp3267
sg81
g3253
sg74
(lp3268
g67
(g68
g69
NtRp3269
(dp3270
g72
(dp3271
g80
I5
ssg81
g3265
sg74
(lp3272
g67
(g76
g69
NtRp3273
(dp3274
g72
(dp3275
g80
I4
ssg81
Nsg74
(lp3276
g67
(g83
g69
NtRp3277
(dp3278
g72
(dp3279
sg81
g3273
sg74
(lp3280
g67
(g88
g69
NtRp3281
(dp3282
g72
(dp3283
g92
g93
ssg81
g3277
sg74
(lp3284
S'session_id_snapcop2_web2py'
p3285
asbag67
(g88
g69
NtRp3286
(dp3287
g72
(dp3288
g99
g100
ssg81
g3277
sg74
(lp3289
S':'
asbag67
(g88
g69
NtRp3290
(dp3291
g72
(dp3292
sg81
g3277
sg74
(lp3293
g67
(g68
g69
NtRp3294
(dp3295
g72
(dp3296
g80
I4
ssg81
g3290
sg74
(lp3297
g67
(g76
g69
NtRp3298
(dp3299
g72
(dp3300
g80
I3
ssg81
Nsg74
(lp3301
g67
(g83
g69
NtRp3302
(dp3303
g72
(dp3304
sg81
g3298
sg74
(lp3305
g67
(g88
g69
NtRp3306
(dp3307
g72
(dp3308
g92
g93
ssg81
g3302
sg74
(lp3309
g281
asbag67
(g88
g69
NtRp3310
(dp3311
g72
(dp3312
g99
g100
ssg81
g3302
sg74
(lp3313
S':'
asbag67
(g88
g69
NtRp3314
(dp3315
g72
(dp3316
sg81
g3302
sg74
(lp3317
g67
(g68
g69
NtRp3318
(dp3319
g72
(dp3320
g80
I3
ssg81
g3314
sg74
(lp3321
S''
asbasbasbag67
(g83
g69
NtRp3322
(dp3323
g72
(dp3324
sg81
g3298
sg74
(lp3325
g67
(g88
g69
NtRp3326
(dp3327
g72
(dp3328
g92
g93
ssg81
g3322
sg74
(lp3329
g302
asbag67
(g88
g69
NtRp3330
(dp3331
g72
(dp3332
g99
g100
ssg81
g3322
sg74
(lp3333
S':'
asbag67
(g88
g69
NtRp3334
(dp3335
g72
(dp3336
sg81
g3322
sg74
(lp3337
g67
(g68
g69
NtRp3338
(dp3339
g72
(dp3340
g80
I3
ssg81
g3334
sg74
(lp3341
S''
asbasbasbag67
(g83
g69
NtRp3342
(dp3343
g72
(dp3344
sg81
g3298
sg74
(lp3345
g67
(g88
g69
NtRp3346
(dp3347
g72
(dp3348
g92
g93
ssg81
g3342
sg74
(lp3349
g323
asbag67
(g88
g69
NtRp3350
(dp3351
g72
(dp3352
g99
g100
ssg81
g3342
sg74
(lp3353
S':'
asbag67
(g88
g69
NtRp3354
(dp3355
g72
(dp3356
sg81
g3342
sg74
(lp3357
g67
(g68
g69
NtRp3358
(dp3359
g72
(dp3360
g80
I3
ssg81
g3354
sg74
(lp3361
S''
asbasbasbag67
(g83
g69
NtRp3362
(dp3363
g72
(dp3364
sg81
g3298
sg74
(lp3365
g67
(g88
g69
NtRp3366
(dp3367
g72
(dp3368
g92
g93
ssg81
g3362
sg74
(lp3369
g344
asbag67
(g88
g69
NtRp3370
(dp3371
g72
(dp3372
g99
g100
ssg81
g3362
sg74
(lp3373
S':'
asbag67
(g88
g69
NtRp3374
(dp3375
g72
(dp3376
sg81
g3362
sg74
(lp3377
g67
(g68
g69
NtRp3378
(dp3379
g72
(dp3380
g80
I3
ssg81
g3374
sg74
(lp3381
S''
asbasbasbag67
(g83
g69
NtRp3382
(dp3383
g72
(dp3384
sg81
g3298
sg74
(lp3385
g67
(g88
g69
NtRp3386
(dp3387
g72
(dp3388
g92
g93
ssg81
g3382
sg74
(lp3389
g365
asbag67
(g88
g69
NtRp3390
(dp3391
g72
(dp3392
g99
g100
ssg81
g3382
sg74
(lp3393
S':'
asbag67
(g88
g69
NtRp3394
(dp3395
g72
(dp3396
sg81
g3382
sg74
(lp3397
g67
(g68
g69
NtRp3398
(dp3399
g72
(dp3400
g80
I3
ssg81
g3394
sg74
(lp3401
S''
asbasbasbag67
(g83
g69
NtRp3402
(dp3403
g72
(dp3404
sg81
g3298
sg74
(lp3405
g67
(g88
g69
NtRp3406
(dp3407
g72
(dp3408
g92
g93
ssg81
g3402
sg74
(lp3409
g386
asbag67
(g88
g69
NtRp3410
(dp3411
g72
(dp3412
g99
g100
ssg81
g3402
sg74
(lp3413
S':'
asbag67
(g88
g69
NtRp3414
(dp3415
g72
(dp3416
sg81
g3402
sg74
(lp3417
g67
(g68
g69
NtRp3418
(dp3419
g72
(dp3420
g80
I3
ssg81
g3414
sg74
(lp3421
S'/'
asbasbasbag67
(g83
g69
NtRp3422
(dp3423
g72
(dp3424
sg81
g3298
sg74
(lp3425
g67
(g88
g69
NtRp3426
(dp3427
g72
(dp3428
g92
g93
ssg81
g3422
sg74
(lp3429
g407
asbag67
(g88
g69
NtRp3430
(dp3431
g72
(dp3432
g99
g100
ssg81
g3422
sg74
(lp3433
S':'
asbag67
(g88
g69
NtRp3434
(dp3435
g72
(dp3436
sg81
g3422
sg74
(lp3437
g67
(g68
g69
NtRp3438
(dp3439
g72
(dp3440
g80
I3
ssg81
g3434
sg74
(lp3441
S''
asbasbasbag67
(g83
g69
NtRp3442
(dp3443
g72
(dp3444
sg81
g3298
sg74
(lp3445
g67
(g88
g69
NtRp3446
(dp3447
g72
(dp3448
g92
g93
ssg81
g3442
sg74
(lp3449
g428
asbag67
(g88
g69
NtRp3450
(dp3451
g72
(dp3452
g99
g100
ssg81
g3442
sg74
(lp3453
S':'
asbag67
(g88
g69
NtRp3454
(dp3455
g72
(dp3456
sg81
g3442
sg74
(lp3457
g67
(g68
g69
NtRp3458
(dp3459
g72
(dp3460
g80
I3
ssg81
g3454
sg74
(lp3461
S''
asbasbasbasbasbasbasbasbasbasbasbag67
(g83
g69
NtRp3462
(dp3463
g72
(dp3464
sg81
g3228
sg74
(lp3465
g67
(g88
g69
NtRp3466
(dp3467
g72
(dp3468
g92
g93
ssg81
g3462
sg74
(lp3469
S'delimiters'
p3470
asbag67
(g88
g69
NtRp3471
(dp3472
g72
(dp3473
g99
g100
ssg81
g3462
sg74
(lp3474
S':'
asbag67
(g88
g69
NtRp3475
(dp3476
g72
(dp3477
sg81
g3462
sg74
(lp3478
g67
(g68
g69
NtRp3479
(dp3480
g72
(dp3481
g80
I5
ssg81
g3475
sg74
(lp3482
g67
(g76
g69
NtRp3483
(dp3484
g72
(dp3485
g80
I4
ssg81
Nsg74
(lp3486
g67
(g83
g69
NtRp3487
(dp3488
g72
(dp3489
sg81
g3483
sg74
(lp3490
g67
(g88
g69
NtRp3491
(dp3492
g72
(dp3493
sg81
g3487
sg74
(lp3494
g67
(g68
g69
NtRp3495
(dp3496
g72
(dp3497
g80
I4
ssg81
g3491
sg74
(lp3498
S'{{'
p3499
asbasbasbag67
(g83
g69
NtRp3500
(dp3501
g72
(dp3502
sg81
g3483
sg74
(lp3503
g67
(g88
g69
NtRp3504
(dp3505
g72
(dp3506
sg81
g3500
sg74
(lp3507
g67
(g68
g69
NtRp3508
(dp3509
g72
(dp3510
g80
I4
ssg81
g3504
sg74
(lp3511
S'}}'
p3512
asbasbasbasbasbasbasbag67
(g83
g69
NtRp3513
(dp3514
g72
(dp3515
sg81
g3228
sg74
(lp3516
g67
(g88
g69
NtRp3517
(dp3518
g72
(dp3519
g92
g93
ssg81
g3513
sg74
(lp3520
S'files'
p3521
asbag67
(g88
g69
NtRp3522
(dp3523
g72
(dp3524
g99
g100
ssg81
g3513
sg74
(lp3525
S':'
asbag67
(g88
g69
NtRp3526
(dp3527
g72
(dp3528
sg81
g3513
sg74
(lp3529
g67
(g68
g69
NtRp3530
(dp3531
g72
(dp3532
g80
I5
ssg81
g3526
sg74
(lp3533
g67
(g76
g69
NtRp3534
(dp3535
g72
(dp3536
g80
I4
ssg81
Nsg74
(lp3537
sbasbasbasbag67
(g83
g69
NtRp3538
(dp3539
g72
(dp3540
sg81
g3228
sg74
(lp3541
g67
(g88
g69
NtRp3542
(dp3543
g72
(dp3544
g92
g93
ssg81
g3538
sg74
(lp3545
S'flash'
p3546
asbag67
(g88
g69
NtRp3547
(dp3548
g72
(dp3549
g99
g100
ssg81
g3538
sg74
(lp3550
S':'
asbag67
(g88
g69
NtRp3551
(dp3552
g72
(dp3553
sg81
g3538
sg74
(lp3554
g67
(g68
g69
NtRp3555
(dp3556
g72
(dp3557
g80
I5
ssg81
g3551
sg74
(lp3558
S''
asbasbasbag67
(g83
g69
NtRp3559
(dp3560
g72
(dp3561
sg81
g3228
sg74
(lp3562
g67
(g88
g69
NtRp3563
(dp3564
g72
(dp3565
g92
g93
ssg81
g3559
sg74
(lp3566
S'generic_patterns'
p3567
asbag67
(g88
g69
NtRp3568
(dp3569
g72
(dp3570
g99
g100
ssg81
g3559
sg74
(lp3571
S':'
asbag67
(g88
g69
NtRp3572
(dp3573
g72
(dp3574
sg81
g3559
sg74
(lp3575
g67
(g68
g69
NtRp3576
(dp3577
g72
(dp3578
g80
I5
ssg81
g3572
sg74
(lp3579
g67
(g76
g69
NtRp3580
(dp3581
g72
(dp3582
g80
I4
ssg81
Nsg74
(lp3583
g67
(g83
g69
NtRp3584
(dp3585
g72
(dp3586
sg81
g3580
sg74
(lp3587
g67
(g88
g69
NtRp3588
(dp3589
g72
(dp3590
sg81
g3584
sg74
(lp3591
g67
(g68
g69
NtRp3592
(dp3593
g72
(dp3594
g80
I4
ssg81
g3588
sg74
(lp3595
S'*'
asbasbasbasbasbasbasbag67
(g83
g69
NtRp3596
(dp3597
g72
(dp3598
sg81
g3228
sg74
(lp3599
g67
(g88
g69
NtRp3600
(dp3601
g72
(dp3602
g92
g93
ssg81
g3596
sg74
(lp3603
S'headers'
p3604
asbag67
(g88
g69
NtRp3605
(dp3606
g72
(dp3607
g99
g100
ssg81
g3596
sg74
(lp3608
S':'
asbag67
(g88
g69
NtRp3609
(dp3610
g72
(dp3611
sg81
g3596
sg74
(lp3612
g67
(g68
g69
NtRp3613
(dp3614
g72
(dp3615
g80
I5
ssg81
g3609
sg74
(lp3616
g67
(g76
g69
NtRp3617
(dp3618
g72
(dp3619
g80
I4
ssg81
Nsg74
(lp3620
g67
(g83
g69
NtRp3621
(dp3622
g72
(dp3623
sg81
g3617
sg74
(lp3624
g67
(g88
g69
NtRp3625
(dp3626
g72
(dp3627
g92
g93
ssg81
g3621
sg74
(lp3628
S'Cache-Control'
p3629
asbag67
(g88
g69
NtRp3630
(dp3631
g72
(dp3632
g99
g100
ssg81
g3621
sg74
(lp3633
S':'
asbag67
(g88
g69
NtRp3634
(dp3635
g72
(dp3636
sg81
g3621
sg74
(lp3637
g67
(g68
g69
NtRp3638
(dp3639
g72
(dp3640
g80
I4
ssg81
g3634
sg74
(lp3641
S'no-store, no-cache, must-revalidate, post-check=0, pre-check=0'
p3642
asbasbasbag67
(g83
g69
NtRp3643
(dp3644
g72
(dp3645
sg81
g3617
sg74
(lp3646
g67
(g88
g69
NtRp3647
(dp3648
g72
(dp3649
g92
g93
ssg81
g3643
sg74
(lp3650
S'Content-Type'
p3651
asbag67
(g88
g69
NtRp3652
(dp3653
g72
(dp3654
g99
g100
ssg81
g3643
sg74
(lp3655
S':'
asbag67
(g88
g69
NtRp3656
(dp3657
g72
(dp3658
sg81
g3643
sg74
(lp3659
g67
(g68
g69
NtRp3660
(dp3661
g72
(dp3662
g80
I4
ssg81
g3656
sg74
(lp3663
S'text/html; charset=utf-8'
p3664
asbasbasbag67
(g83
g69
NtRp3665
(dp3666
g72
(dp3667
sg81
g3617
sg74
(lp3668
g67
(g88
g69
NtRp3669
(dp3670
g72
(dp3671
g92
g93
ssg81
g3665
sg74
(lp3672
S'Expires'
p3673
asbag67
(g88
g69
NtRp3674
(dp3675
g72
(dp3676
g99
g100
ssg81
g3665
sg74
(lp3677
S':'
asbag67
(g88
g69
NtRp3678
(dp3679
g72
(dp3680
sg81
g3665
sg74
(lp3681
g67
(g68
g69
NtRp3682
(dp3683
g72
(dp3684
g80
I4
ssg81
g3678
sg74
(lp3685
S'Fri, 24 Aug 2012 12:12:38 GMT'
p3686
asbasbasbag67
(g83
g69
NtRp3687
(dp3688
g72
(dp3689
sg81
g3617
sg74
(lp3690
g67
(g88
g69
NtRp3691
(dp3692
g72
(dp3693
g92
g93
ssg81
g3687
sg74
(lp3694
S'Pragma'
p3695
asbag67
(g88
g69
NtRp3696
(dp3697
g72
(dp3698
g99
g100
ssg81
g3687
sg74
(lp3699
S':'
asbag67
(g88
g69
NtRp3700
(dp3701
g72
(dp3702
sg81
g3687
sg74
(lp3703
g67
(g68
g69
NtRp3704
(dp3705
g72
(dp3706
g80
I4
ssg81
g3700
sg74
(lp3707
S'no-cache'
p3708
asbasbasbag67
(g83
g69
NtRp3709
(dp3710
g72
(dp3711
sg81
g3617
sg74
(lp3712
g67
(g88
g69
NtRp3713
(dp3714
g72
(dp3715
g92
g93
ssg81
g3709
sg74
(lp3716
S'X-Powered-By'
p3717
asbag67
(g88
g69
NtRp3718
(dp3719
g72
(dp3720
g99
g100
ssg81
g3709
sg74
(lp3721
S':'
asbag67
(g88
g69
NtRp3722
(dp3723
g72
(dp3724
sg81
g3709
sg74
(lp3725
g67
(g68
g69
NtRp3726
(dp3727
g72
(dp3728
g80
I4
ssg81
g3722
sg74
(lp3729
S'web2py'
p3730
asbasbasbasbasbasbasbag67
(g83
g69
NtRp3731
(dp3732
g72
(dp3733
sg81
g3228
sg74
(lp3734
g67
(g88
g69
NtRp3735
(dp3736
g72
(dp3737
g92
g93
ssg81
g3731
sg74
(lp3738
S'menu'
p3739
asbag67
(g88
g69
NtRp3740
(dp3741
g72
(dp3742
g99
g100
ssg81
g3731
sg74
(lp3743
S':'
asbag67
(g88
g69
NtRp3744
(dp3745
g72
(dp3746
sg81
g3731
sg74
(lp3747
g67
(g68
g69
NtRp3748
(dp3749
g72
(dp3750
g80
I5
ssg81
g3744
sg74
(lp3751
g67
(g76
g69
NtRp3752
(dp3753
g72
(dp3754
g80
I4
ssg81
Nsg74
(lp3755
g67
(g83
g69
NtRp3756
(dp3757
g72
(dp3758
sg81
g3752
sg74
(lp3759
g67
(g88
g69
NtRp3760
(dp3761
g72
(dp3762
sg81
g3756
sg74
(lp3763
g67
(g68
g69
NtRp3764
(dp3765
g72
(dp3766
g80
I4
ssg81
g3760
sg74
(lp3767
g67
(g76
g69
NtRp3768
(dp3769
g72
(dp3770
g80
I3
ssg81
Nsg74
(lp3771
g67
(g83
g69
NtRp3772
(dp3773
g72
(dp3774
sg81
g3768
sg74
(lp3775
g67
(g88
g69
NtRp3776
(dp3777
g72
(dp3778
sg81
g3772
sg74
(lp3779
g67
(g68
g69
NtRp3780
(dp3781
g72
(dp3782
g80
I3
ssg81
g3776
sg74
(lp3783
cgluon.languages
lazyT_unpickle
p3784
(S't\x07\x00\x00\x00Accueil'
tRp3785
asbasbasbag67
(g83
g69
NtRp3786
(dp3787
g72
(dp3788
sg81
g3768
sg74
(lp3789
g67
(g88
g69
NtRp3790
(dp3791
g72
(dp3792
sg81
g3786
sg74
(lp3793
g67
(g68
g69
NtRp3794
(dp3795
g72
(dp3796
g80
I3
ssg81
g3790
sg74
(lp3797
g110
asbasbasbag67
(g83
g69
NtRp3798
(dp3799
g72
(dp3800
sg81
g3768
sg74
(lp3801
g67
(g88
g69
NtRp3802
(dp3803
g72
(dp3804
sg81
g3798
sg74
(lp3805
g67
(g68
g69
NtRp3806
(dp3807
g72
(dp3808
g80
I3
ssg81
g3802
sg74
(lp3809
S'/snapcop2_web2py/default/index'
p3810
asbasbasbag67
(g83
g69
NtRp3811
(dp3812
g72
(dp3813
sg81
g3768
sg74
(lp3814
g67
(g88
g69
NtRp3815
(dp3816
g72
(dp3817
sg81
g3811
sg74
(lp3818
g67
(g68
g69
NtRp3819
(dp3820
g72
(dp3821
g80
I3
ssg81
g3815
sg74
(lp3822
g67
(g76
g69
NtRp3823
(dp3824
g72
(dp3825
g80
I2
ssg81
Nsg74
(lp3826
sbasbasbasbasbasbasbasbag67
(g83
g69
NtRp3827
(dp3828
g72
(dp3829
sg81
g3752
sg74
(lp3830
g67
(g88
g69
NtRp3831
(dp3832
g72
(dp3833
sg81
g3827
sg74
(lp3834
g67
(g68
g69
NtRp3835
(dp3836
g72
(dp3837
g80
I4
ssg81
g3831
sg74
(lp3838
g67
(g76
g69
NtRp3839
(dp3840
g72
(dp3841
g80
I3
ssg81
Nsg74
(lp3842
g67
(g83
g69
NtRp3843
(dp3844
g72
(dp3845
sg81
g3839
sg74
(lp3846
g67
(g88
g69
NtRp3847
(dp3848
g72
(dp3849
sg81
g3843
sg74
(lp3850
g67
(g68
g69
NtRp3851
(dp3852
g72
(dp3853
g80
I3
ssg81
g3847
sg74
(lp3854
g67
(cgluon.html
SPAN
p3855
g69
NtRp3856
(dp3857
g72
(dp3858
g92
S'color:yellow'
p3859
ssg81
Nsg74
(lp3860
g3730
asbasbasbasbag67
(g83
g69
NtRp3861
(dp3862
g72
(dp3863
sg81
g3839
sg74
(lp3864
g67
(g88
g69
NtRp3865
(dp3866
g72
(dp3867
sg81
g3861
sg74
(lp3868
g67
(g68
g69
NtRp3869
(dp3870
g72
(dp3871
g80
I3
ssg81
g3865
sg74
(lp3872
g110
asbasbasbag67
(g83
g69
NtRp3873
(dp3874
g72
(dp3875
sg81
g3839
sg74
(lp3876
g67
(g88
g69
NtRp3877
(dp3878
g72
(dp3879
sg81
g3873
sg74
(lp3880
g67
(g68
g69
NtRp3881
(dp3882
g72
(dp3883
g80
I3
ssg81
g3877
sg74
(lp3884
S'None'
p3885
asbasbasbag67
(g83
g69
NtRp3886
(dp3887
g72
(dp3888
sg81
g3839
sg74
(lp3889
g67
(g88
g69
NtRp3890
(dp3891
g72
(dp3892
sg81
g3886
sg74
(lp3893
g67
(g68
g69
NtRp3894
(dp3895
g72
(dp3896
g80
I3
ssg81
g3890
sg74
(lp3897
g67
(g76
g69
NtRp3898
(dp3899
g72
(dp3900
g80
I2
ssg81
Nsg74
(lp3901
g67
(g83
g69
NtRp3902
(dp3903
g72
(dp3904
sg81
g3898
sg74
(lp3905
g67
(g88
g69
NtRp3906
(dp3907
g72
(dp3908
sg81
g3902
sg74
(lp3909
g67
(g68
g69
NtRp3910
(dp3911
g72
(dp3912
g80
I2
ssg81
g3906
sg74
(lp3913
g67
(g76
g69
NtRp3914
(dp3915
g72
(dp3916
g80
I1
ssg81
Nsg74
(lp3917
g67
(g83
g69
NtRp3918
(dp3919
g72
(dp3920
sg81
g3914
sg74
(lp3921
g67
(g88
g69
NtRp3922
(dp3923
g72
(dp3924
sg81
g3918
sg74
(lp3925
g67
(g68
g69
NtRp3926
(dp3927
g72
(dp3928
g80
I1
ssg81
g3922
sg74
(lp3929
g3784
(S's\x08\x00\x00\x00My Sites'
tRp3930
asbasbasbag67
(g83
g69
NtRp3931
(dp3932
g72
(dp3933
sg81
g3914
sg74
(lp3934
g67
(g88
g69
NtRp3935
(dp3936
g72
(dp3937
sg81
g3931
sg74
(lp3938
g67
(g68
g69
NtRp3939
(dp3940
g72
(dp3941
g80
I1
ssg81
g3935
sg74
(lp3942
I00
asbasbasbag67
(g83
g69
NtRp3943
(dp3944
g72
(dp3945
sg81
g3914
sg74
(lp3946
g67
(g88
g69
NtRp3947
(dp3948
g72
(dp3949
sg81
g3943
sg74
(lp3950
g67
(g68
g69
NtRp3951
(dp3952
g72
(dp3953
g80
I1
ssg81
g3947
sg74
(lp3954
S'/admin/default/site'
p3955
asbasbasbasbasbasbasbag67
(g83
g69
NtRp3956
(dp3957
g72
(dp3958
sg81
g3898
sg74
(lp3959
g67
(g88
g69
NtRp3960
(dp3961
g72
(dp3962
sg81
g3956
sg74
(lp3963
g67
(g68
g69
NtRp3964
(dp3965
g72
(dp3966
g80
I2
ssg81
g3960
sg74
(lp3967
g67
(g76
g69
NtRp3968
(dp3969
g72
(dp3970
g80
I1
ssg81
Nsg74
(lp3971
g67
(g83
g69
NtRp3972
(dp3973
g72
(dp3974
sg81
g3968
sg74
(lp3975
g67
(g88
g69
NtRp3976
(dp3977
g72
(dp3978
sg81
g3972
sg74
(lp3979
g67
(g68
g69
NtRp3980
(dp3981
g72
(dp3982
g80
I1
ssg81
g3976
sg74
(lp3983
g3784
(S's\x0b\x00\x00\x00Cette Appli'
tRp3984
asbasbasbag67
(g83
g69
NtRp3985
(dp3986
g72
(dp3987
sg81
g3968
sg74
(lp3988
g67
(g88
g69
NtRp3989
(dp3990
g72
(dp3991
sg81
g3985
sg74
(lp3992
g67
(g68
g69
NtRp3993
(dp3994
g72
(dp3995
g80
I1
ssg81
g3989
sg74
(lp3996
I00
asbasbasbag67
(g83
g69
NtRp3997
(dp3998
g72
(dp3999
sg81
g3968
sg74
(lp4000
g67
(g88
g69
NtRp4001
(dp4002
g72
(dp4003
sg81
g3997
sg74
(lp4004
g67
(g68
g69
NtRp4005
(dp4006
g72
(dp4007
g80
I1
ssg81
g4001
sg74
(lp4008
S'/admin/default/design/snapcop2_web2py'
p4009
asbasbasbag67
(g83
g69
NtRp4010
(dp4011
g72
(dp4012
sg81
g3968
sg74
(lp4013
g67
(g88
g69
NtRp4014
(dp4015
g72
(dp4016
sg81
g4010
sg74
(lp4017
g67
(g68
g69
NtRp4018
(dp4019
g72
(dp4020
g80
I1
ssg81
g4014
sg74
(lp4021
(lp4022
(g3784
(S's\x0b\x00\x00\x00Contr\xc3\xb4leur'
tRp4023
I00
S'/admin/default/edit/snapcop2_web2py/controllers/form.py'
tp4024
a(g3784
(S's\r\x00\x00\x00Pr\xc3\xa9sentation'
tRp4025
I00
S'/admin/default/edit/snapcop2_web2py/views/form/first.html'
tp4026
a(g3784
(S's\x0c\x00\x00\x00Mise en page'
tRp4027
I00
S'/admin/default/edit/snapcop2_web2py/views/layout.html'
tp4028
a(g3784
(S's\x10\x00\x00\x00Feuille de style'
tRp4029
I00
S'/admin/default/edit/snapcop2_web2py/static/css/web2py.css'
tp4030
a(g3784
(S's\n\x00\x00\x00Mod\xc3\xa8le DB'
tRp4031
I00
S'/admin/default/edit/snapcop2_web2py/models/db.py'
tp4032
a(g3784
(S's\x0c\x00\x00\x00Menu mod\xc3\xa8le'
tRp4033
I00
S'/admin/default/edit/snapcop2_web2py/models/menu.py'
tp4034
a(g3784
(S's\x10\x00\x00\x00Base de donn\xc3\xa9es'
tRp4035
I00
S'/snapcop2_web2py/appadmin/index'
tp4036
a(g3784
(S't\x07\x00\x00\x00Erreurs'
tRp4037
I00
S'/admin/default/errors/snapcop2_web2py'
tp4038
a(g3784
(S's\t\x00\x00\x00\xc3\x80 propos'
tRp4039
I00
S'/admin/default/about/snapcop2_web2py'
tp4040
aasbasbasbasbasbasbasbag67
(g83
g69
NtRp4041
(dp4042
g72
(dp4043
sg81
g3898
sg74
(lp4044
g67
(g88
g69
NtRp4045
(dp4046
g72
(dp4047
sg81
g4041
sg74
(lp4048
g67
(g68
g69
NtRp4049
(dp4050
g72
(dp4051
g80
I2
ssg81
g4045
sg74
(lp4052
g67
(g76
g69
NtRp4053
(dp4054
g72
(dp4055
g80
I1
ssg81
Nsg74
(lp4056
g67
(g83
g69
NtRp4057
(dp4058
g72
(dp4059
sg81
g4053
sg74
(lp4060
g67
(g88
g69
NtRp4061
(dp4062
g72
(dp4063
sg81
g4057
sg74
(lp4064
g67
(g68
g69
NtRp4065
(dp4066
g72
(dp4067
g80
I1
ssg81
g4061
sg74
(lp4068
S'web2py.com'
p4069
asbasbasbag67
(g83
g69
NtRp4070
(dp4071
g72
(dp4072
sg81
g4053
sg74
(lp4073
g67
(g88
g69
NtRp4074
(dp4075
g72
(dp4076
sg81
g4070
sg74
(lp4077
g67
(g68
g69
NtRp4078
(dp4079
g72
(dp4080
g80
I1
ssg81
g4074
sg74
(lp4081
I00
asbasbasbag67
(g83
g69
NtRp4082
(dp4083
g72
(dp4084
sg81
g4053
sg74
(lp4085
g67
(g88
g69
NtRp4086
(dp4087
g72
(dp4088
sg81
g4082
sg74
(lp4089
g67
(g68
g69
NtRp4090
(dp4091
g72
(dp4092
g80
I1
ssg81
g4086
sg74
(lp4093
S'http://www.web2py.com'
p4094
asbasbasbag67
(g83
g69
NtRp4095
(dp4096
g72
(dp4097
sg81
g4053
sg74
(lp4098
g67
(g88
g69
NtRp4099
(dp4100
g72
(dp4101
sg81
g4095
sg74
(lp4102
g67
(g68
g69
NtRp4103
(dp4104
g72
(dp4105
g80
I1
ssg81
g4099
sg74
(lp4106
(lp4107
(g3784
(S's\x10\x00\x00\x00T\xc3\xa9l\xc3\xa9chargement'
tRp4108
I00
S'http://www.web2py.com/examples/default/download'
p4109
tp4110
a(g3784
(S't\x07\x00\x00\x00Support'
tRp4111
I00
S'http://www.web2py.com/examples/default/support'
p4112
tp4113
a(g3784
(S's\x05\x00\x00\x00D\xc3\xa9mo'
tRp4114
I00
S'http://web2py.com/demo_admin'
p4115
tp4116
a(g3784
(S's\x10\x00\x00\x00Examples Rapides'
tRp4117
I00
S'http://web2py.com/examples/default/examples'
p4118
tp4119
a(g3784
(S't\x03\x00\x00\x00FAQ'
tRp4120
I00
S'http://web2py.com/AlterEgo'
p4121
tp4122
a(g3784
(S's\x07\x00\x00\x00Vid\xc3\xa9os'
tRp4123
I00
S'http://www.web2py.com/examples/default/videos/'
p4124
tp4125
a(g3784
(S's\x16\x00\x00\x00Applications gratuites'
tRp4126
I00
S'http://web2py.com/appliances'
p4127
tp4128
a(g3784
(S't\n\x00\x00\x00Plugiciels'
tRp4129
I00
S'http://web2py.com/plugins'
p4130
tp4131
a(g3784
(S't\x07\x00\x00\x00Layouts'
tRp4132
I00
S'http://web2py.com/layouts'
p4133
tp4134
a(g3784
(S't\x08\x00\x00\x00Recettes'
tRp4135
I00
S'http://web2pyslices.com/'
p4136
tp4137
a(g3784
(S's\x0b\x00\x00\x00S\xc3\xa9mantique'
tRp4138
I00
S'http://web2py.com/semantic'
p4139
tp4140
aasbasbasbasbasbasbasbag67
(g83
g69
NtRp4141
(dp4142
g72
(dp4143
sg81
g3898
sg74
(lp4144
g67
(g88
g69
NtRp4145
(dp4146
g72
(dp4147
sg81
g4141
sg74
(lp4148
g67
(g68
g69
NtRp4149
(dp4150
g72
(dp4151
g80
I2
ssg81
g4145
sg74
(lp4152
g67
(g76
g69
NtRp4153
(dp4154
g72
(dp4155
g80
I1
ssg81
Nsg74
(lp4156
g67
(g83
g69
NtRp4157
(dp4158
g72
(dp4159
sg81
g4153
sg74
(lp4160
g67
(g88
g69
NtRp4161
(dp4162
g72
(dp4163
sg81
g4157
sg74
(lp4164
g67
(g68
g69
NtRp4165
(dp4166
g72
(dp4167
g80
I1
ssg81
g4161
sg74
(lp4168
g3784
(S't\r\x00\x00\x00Documentation'
tRp4169
asbasbasbag67
(g83
g69
NtRp4170
(dp4171
g72
(dp4172
sg81
g4153
sg74
(lp4173
g67
(g88
g69
NtRp4174
(dp4175
g72
(dp4176
sg81
g4170
sg74
(lp4177
g67
(g68
g69
NtRp4178
(dp4179
g72
(dp4180
g80
I1
ssg81
g4174
sg74
(lp4181
I00
asbasbasbag67
(g83
g69
NtRp4182
(dp4183
g72
(dp4184
sg81
g4153
sg74
(lp4185
g67
(g88
g69
NtRp4186
(dp4187
g72
(dp4188
sg81
g4182
sg74
(lp4189
g67
(g68
g69
NtRp4190
(dp4191
g72
(dp4192
g80
I1
ssg81
g4186
sg74
(lp4193
S'http://www.web2py.com/book'
p4194
asbasbasbag67
(g83
g69
NtRp4195
(dp4196
g72
(dp4197
sg81
g4153
sg74
(lp4198
g67
(g88
g69
NtRp4199
(dp4200
g72
(dp4201
sg81
g4195
sg74
(lp4202
g67
(g68
g69
NtRp4203
(dp4204
g72
(dp4205
g80
I1
ssg81
g4199
sg74
(lp4206
(lp4207
(g3784
(S's\x08\x00\x00\x00Pr\xc3\xa9face'
tRp4208
I00
S'http://www.web2py.com/book/default/chapter/00'
p4209
tp4210
a(g3784
(S't\x0c\x00\x00\x00Introduction'
tRp4211
I00
S'http://www.web2py.com/book/default/chapter/01'
p4212
tp4213
a(g3784
(S't\x06\x00\x00\x00Python'
tRp4214
I00
S'http://www.web2py.com/book/default/chapter/02'
p4215
tp4216
a(g3784
(S's\r\x00\x00\x00Pr\xc3\xa9sentation'
tRp4217
I00
S'http://www.web2py.com/book/default/chapter/03'
p4218
tp4219
a(g3784
(S's\x08\x00\x00\x00Le noyau'
tRp4220
I00
S'http://www.web2py.com/book/default/chapter/04'
p4221
tp4222
a(g3784
(S's\x08\x00\x00\x00Les Vues'
tRp4223
I00
S'http://www.web2py.com/book/default/chapter/05'
p4224
tp4225
a(g3784
(S's\x10\x00\x00\x00Base de donn\xc3\xa9es'
tRp4226
I00
S'http://www.web2py.com/book/default/chapter/06'
p4227
tp4228
a(g3784
(S's\x1a\x00\x00\x00Formulaires et Validateurs'
tRp4229
I00
S'http://www.web2py.com/book/default/chapter/07'
p4230
tp4231
a(g3784
(S's\r\x00\x00\x00Email and SMS'
tRp4232
I00
S'http://www.web2py.com/book/default/chapter/08'
p4233
tp4234
a(g3784
(S"s\x12\x00\x00\x00Contr\xc3\xb4le d'acc\xc3\xa8s"
tRp4235
I00
S'http://www.web2py.com/book/default/chapter/09'
p4236
tp4237
a(g3784
(S't\x08\x00\x00\x00Services'
tRp4238
I00
S'http://www.web2py.com/book/default/chapter/10'
p4239
tp4240
a(g3784
(S's\r\x00\x00\x00Recettes Ajax'
tRp4241
I00
S'http://www.web2py.com/book/default/chapter/11'
p4242
tp4243
a(g3784
(S's\x16\x00\x00\x00Components and Plugins'
tRp4244
I00
S'http://www.web2py.com/book/default/chapter/12'
p4245
tp4246
a(g3784
(S's\x18\x00\x00\x00Recettes de d\xc3\xa9ploiement'
tRp4247
I00
S'http://www.web2py.com/book/default/chapter/13'
p4248
tp4249
a(g3784
(S's\x0f\x00\x00\x00Autres recettes'
tRp4250
I00
S'http://www.web2py.com/book/default/chapter/14'
p4251
tp4252
a(g3784
(S's\x10\x00\x00\x00Acheter ce livre'
tRp4253
I00
S'http://stores.lulu.com/web2py'
p4254
tp4255
aasbasbasbasbasbasbasbag67
(g83
g69
NtRp4256
(dp4257
g72
(dp4258
sg81
g3898
sg74
(lp4259
g67
(g88
g69
NtRp4260
(dp4261
g72
(dp4262
sg81
g4256
sg74
(lp4263
g67
(g68
g69
NtRp4264
(dp4265
g72
(dp4266
g80
I2
ssg81
g4260
sg74
(lp4267
g67
(g76
g69
NtRp4268
(dp4269
g72
(dp4270
g80
I1
ssg81
Nsg74
(lp4271
g67
(g83
g69
NtRp4272
(dp4273
g72
(dp4274
sg81
g4268
sg74
(lp4275
g67
(g88
g69
NtRp4276
(dp4277
g72
(dp4278
sg81
g4272
sg74
(lp4279
g67
(g68
g69
NtRp4280
(dp4281
g72
(dp4282
g80
I1
ssg81
g4276
sg74
(lp4283
g3784
(S's\x0b\x00\x00\x00Communaut\xc3\xa9'
tRp4284
asbasbasbag67
(g83
g69
NtRp4285
(dp4286
g72
(dp4287
sg81
g4268
sg74
(lp4288
g67
(g88
g69
NtRp4289
(dp4290
g72
(dp4291
sg81
g4285
sg74
(lp4292
g67
(g68
g69
NtRp4293
(dp4294
g72
(dp4295
g80
I1
ssg81
g4289
sg74
(lp4296
I00
asbasbasbag67
(g83
g69
NtRp4297
(dp4298
g72
(dp4299
sg81
g4268
sg74
(lp4300
g67
(g88
g69
NtRp4301
(dp4302
g72
(dp4303
sg81
g4297
sg74
(lp4304
g67
(g68
g69
NtRp4305
(dp4306
g72
(dp4307
g80
I1
ssg81
g4301
sg74
(lp4308
Nasbasbasbag67
(g83
g69
NtRp4309
(dp4310
g72
(dp4311
sg81
g4268
sg74
(lp4312
g67
(g88
g69
NtRp4313
(dp4314
g72
(dp4315
sg81
g4309
sg74
(lp4316
g67
(g68
g69
NtRp4317
(dp4318
g72
(dp4319
g80
I1
ssg81
g4313
sg74
(lp4320
(lp4321
(g3784
(S't\x06\x00\x00\x00Groups'
tRp4322
I00
S'http://www.web2py.com/examples/default/usergroups'
p4323
tp4324
a(g3784
(S't\x07\x00\x00\x00Twitter'
tRp4325
I00
S'http://twitter.com/web2py'
p4326
tp4327
a(g3784
(S's\t\x00\x00\x00Live Chat'
tRp4328
I00
S'http://webchat.freenode.net/?channels=web2py'
p4329
tp4330
aasbasbasbasbasbasbasbag67
(g83
g69
NtRp4331
(dp4332
g72
(dp4333
sg81
g3898
sg74
(lp4334
g67
(g88
g69
NtRp4335
(dp4336
g72
(dp4337
sg81
g4331
sg74
(lp4338
g67
(g68
g69
NtRp4339
(dp4340
g72
(dp4341
g80
I2
ssg81
g4335
sg74
(lp4342
g67
(g76
g69
NtRp4343
(dp4344
g72
(dp4345
g80
I1
ssg81
Nsg74
(lp4346
g67
(g83
g69
NtRp4347
(dp4348
g72
(dp4349
sg81
g4343
sg74
(lp4350
g67
(g88
g69
NtRp4351
(dp4352
g72
(dp4353
sg81
g4347
sg74
(lp4354
g67
(g68
g69
NtRp4355
(dp4356
g72
(dp4357
g80
I1
ssg81
g4351
sg74
(lp4358
g3784
(S't\n\x00\x00\x00Plugiciels'
tRp4359
asbasbasbag67
(g83
g69
NtRp4360
(dp4361
g72
(dp4362
sg81
g4343
sg74
(lp4363
g67
(g88
g69
NtRp4364
(dp4365
g72
(dp4366
sg81
g4360
sg74
(lp4367
g67
(g68
g69
NtRp4368
(dp4369
g72
(dp4370
g80
I1
ssg81
g4364
sg74
(lp4371
I00
asbasbasbag67
(g83
g69
NtRp4372
(dp4373
g72
(dp4374
sg81
g4343
sg74
(lp4375
g67
(g88
g69
NtRp4376
(dp4377
g72
(dp4378
sg81
g4372
sg74
(lp4379
g67
(g68
g69
NtRp4380
(dp4381
g72
(dp4382
g80
I1
ssg81
g4376
sg74
(lp4383
Nasbasbasbag67
(g83
g69
NtRp4384
(dp4385
g72
(dp4386
sg81
g4343
sg74
(lp4387
g67
(g88
g69
NtRp4388
(dp4389
g72
(dp4390
sg81
g4384
sg74
(lp4391
g67
(g68
g69
NtRp4392
(dp4393
g72
(dp4394
g80
I1
ssg81
g4388
sg74
(lp4395
(lp4396
(S'plugin_wiki'
p4397
I00
S'http://web2py.com/examples/default/download'
p4398
tp4399
a(g3784
(S's\r\x00\x00\x00Other Plugins'
tRp4400
I00
g4130
tp4401
a(g3784
(S's\x0e\x00\x00\x00Layout Plugins'
tRp4402
I00
g4133
tp4403
aasbasbasbasbasbasbasbasbasbasbasbasbasbasbasbasbasbasbasbag67
(g83
g69
NtRp4404
(dp4405
g72
(dp4406
sg81
g3228
sg74
(lp4407
g67
(g88
g69
NtRp4408
(dp4409
g72
(dp4410
g92
g93
ssg81
g4404
sg74
(lp4411
S'meta'
p4412
asbag67
(g88
g69
NtRp4413
(dp4414
g72
(dp4415
g99
g100
ssg81
g4404
sg74
(lp4416
S':'
asbag67
(g88
g69
NtRp4417
(dp4418
g72
(dp4419
sg81
g4404
sg74
(lp4420
g67
(g68
g69
NtRp4421
(dp4422
g72
(dp4423
g80
I5
ssg81
g4417
sg74
(lp4424
g67
(g76
g69
NtRp4425
(dp4426
g72
(dp4427
g80
I4
ssg81
Nsg74
(lp4428
g67
(g83
g69
NtRp4429
(dp4430
g72
(dp4431
sg81
g4425
sg74
(lp4432
g67
(g88
g69
NtRp4433
(dp4434
g72
(dp4435
g92
g93
ssg81
g4429
sg74
(lp4436
S'author'
p4437
asbag67
(g88
g69
NtRp4438
(dp4439
g72
(dp4440
g99
g100
ssg81
g4429
sg74
(lp4441
S':'
asbag67
(g88
g69
NtRp4442
(dp4443
g72
(dp4444
sg81
g4429
sg74
(lp4445
g67
(g68
g69
NtRp4446
(dp4447
g72
(dp4448
g80
I4
ssg81
g4442
sg74
(lp4449
S'Your Name <you@example.com>'
p4450
asbasbasbag67
(g83
g69
NtRp4451
(dp4452
g72
(dp4453
sg81
g4425
sg74
(lp4454
g67
(g88
g69
NtRp4455
(dp4456
g72
(dp4457
g92
g93
ssg81
g4451
sg74
(lp4458
S'copyright'
p4459
asbag67
(g88
g69
NtRp4460
(dp4461
g72
(dp4462
g99
g100
ssg81
g4451
sg74
(lp4463
S':'
asbag67
(g88
g69
NtRp4464
(dp4465
g72
(dp4466
sg81
g4451
sg74
(lp4467
g67
(g68
g69
NtRp4468
(dp4469
g72
(dp4470
g80
I4
ssg81
g4464
sg74
(lp4471
S'Copyright 2011'
p4472
asbasbasbag67
(g83
g69
NtRp4473
(dp4474
g72
(dp4475
sg81
g4425
sg74
(lp4476
g67
(g88
g69
NtRp4477
(dp4478
g72
(dp4479
g92
g93
ssg81
g4473
sg74
(lp4480
S'description'
p4481
asbag67
(g88
g69
NtRp4482
(dp4483
g72
(dp4484
g99
g100
ssg81
g4473
sg74
(lp4485
S':'
asbag67
(g88
g69
NtRp4486
(dp4487
g72
(dp4488
sg81
g4473
sg74
(lp4489
g67
(g68
g69
NtRp4490
(dp4491
g72
(dp4492
g80
I4
ssg81
g4486
sg74
(lp4493
S'a cool new app'
p4494
asbasbasbag67
(g83
g69
NtRp4495
(dp4496
g72
(dp4497
sg81
g4425
sg74
(lp4498
g67
(g88
g69
NtRp4499
(dp4500
g72
(dp4501
g92
g93
ssg81
g4495
sg74
(lp4502
S'generator'
p4503
asbag67
(g88
g69
NtRp4504
(dp4505
g72
(dp4506
g99
g100
ssg81
g4495
sg74
(lp4507
S':'
asbag67
(g88
g69
NtRp4508
(dp4509
g72
(dp4510
sg81
g4495
sg74
(lp4511
g67
(g68
g69
NtRp4512
(dp4513
g72
(dp4514
g80
I4
ssg81
g4508
sg74
(lp4515
S'Web2py Web Framework'
p4516
asbasbasbag67
(g83
g69
NtRp4517
(dp4518
g72
(dp4519
sg81
g4425
sg74
(lp4520
g67
(g88
g69
NtRp4521
(dp4522
g72
(dp4523
g92
g93
ssg81
g4517
sg74
(lp4524
S'keywords'
p4525
asbag67
(g88
g69
NtRp4526
(dp4527
g72
(dp4528
g99
g100
ssg81
g4517
sg74
(lp4529
S':'
asbag67
(g88
g69
NtRp4530
(dp4531
g72
(dp4532
sg81
g4517
sg74
(lp4533
g67
(g68
g69
NtRp4534
(dp4535
g72
(dp4536
g80
I4
ssg81
g4530
sg74
(lp4537
S'web2py, python, framework'
p4538
asbasbasbasbasbasbasbag67
(g83
g69
NtRp4539
(dp4540
g72
(dp4541
sg81
g3228
sg74
(lp4542
g67
(g88
g69
NtRp4543
(dp4544
g72
(dp4545
g92
g93
ssg81
g4539
sg74
(lp4546
S'postprocessing'
p4547
asbag67
(g88
g69
NtRp4548
(dp4549
g72
(dp4550
g99
g100
ssg81
g4539
sg74
(lp4551
S':'
asbag67
(g88
g69
NtRp4552
(dp4553
g72
(dp4554
sg81
g4539
sg74
(lp4555
g67
(g68
g69
NtRp4556
(dp4557
g72
(dp4558
g80
I5
ssg81
g4552
sg74
(lp4559
g67
(g76
g69
NtRp4560
(dp4561
g72
(dp4562
g80
I4
ssg81
Nsg74
(lp4563
sbasbasbasbag67
(g83
g69
NtRp4564
(dp4565
g72
(dp4566
sg81
g3228
sg74
(lp4567
g67
(g88
g69
NtRp4568
(dp4569
g72
(dp4570
g92
g93
ssg81
g4564
sg74
(lp4571
S'session_file'
p4572
asbag67
(g88
g69
NtRp4573
(dp4574
g72
(dp4575
g99
g100
ssg81
g4564
sg74
(lp4576
S':'
asbag67
(g88
g69
NtRp4577
(dp4578
g72
(dp4579
sg81
g4564
sg74
(lp4580
g67
(g68
g69
NtRp4581
(dp4582
g72
(dp4583
g80
I5
ssg81
g4577
sg74
(lp4584
S"<open file '/web2py/applications/snapcop2_web2py/sessions/127.0.0.1-cef799a3-e7ef-4267-81c1-6c89039dd232', mode 'rb+' at 0x7f49cc341db0>"
p4585
asbasbasbag67
(g83
g69
NtRp4586
(dp4587
g72
(dp4588
sg81
g3228
sg74
(lp4589
g67
(g88
g69
NtRp4590
(dp4591
g72
(dp4592
g92
g93
ssg81
g4586
sg74
(lp4593
S'session_filename'
p4594
asbag67
(g88
g69
NtRp4595
(dp4596
g72
(dp4597
g99
g100
ssg81
g4586
sg74
(lp4598
S':'
asbag67
(g88
g69
NtRp4599
(dp4600
g72
(dp4601
sg81
g4586
sg74
(lp4602
g67
(g68
g69
NtRp4603
(dp4604
g72
(dp4605
g80
I5
ssg81
g4599
sg74
(lp4606
S'/web2py/applications/snapcop2_web2py/sessions/127.0.0.1-cef799a3-e7ef-4267-81c1-6c89039dd232'
p4607
asbasbasbag67
(g83
g69
NtRp4608
(dp4609
g72
(dp4610
sg81
g3228
sg74
(lp4611
g67
(g88
g69
NtRp4612
(dp4613
g72
(dp4614
g92
g93
ssg81
g4608
sg74
(lp4615
S'session_id'
p4616
asbag67
(g88
g69
NtRp4617
(dp4618
g72
(dp4619
g99
g100
ssg81
g4608
sg74
(lp4620
S':'
asbag67
(g88
g69
NtRp4621
(dp4622
g72
(dp4623
sg81
g4608
sg74
(lp4624
g67
(g68
g69
NtRp4625
(dp4626
g72
(dp4627
g80
I5
ssg81
g4621
sg74
(lp4628
S'127.0.0.1-cef799a3-e7ef-4267-81c1-6c89039dd232'
p4629
asbasbasbag67
(g83
g69
NtRp4630
(dp4631
g72
(dp4632
sg81
g3228
sg74
(lp4633
g67
(g88
g69
NtRp4634
(dp4635
g72
(dp4636
g92
g93
ssg81
g4630
sg74
(lp4637
S'session_id_name'
p4638
asbag67
(g88
g69
NtRp4639
(dp4640
g72
(dp4641
g99
g100
ssg81
g4630
sg74
(lp4642
S':'
asbag67
(g88
g69
NtRp4643
(dp4644
g72
(dp4645
sg81
g4630
sg74
(lp4646
g67
(g68
g69
NtRp4647
(dp4648
g72
(dp4649
g80
I5
ssg81
g4643
sg74
(lp4650
g3285
asbasbasbag67
(g83
g69
NtRp4651
(dp4652
g72
(dp4653
sg81
g3228
sg74
(lp4654
g67
(g88
g69
NtRp4655
(dp4656
g72
(dp4657
g92
g93
ssg81
g4651
sg74
(lp4658
S'session_locked'
p4659
asbag67
(g88
g69
NtRp4660
(dp4661
g72
(dp4662
g99
g100
ssg81
g4651
sg74
(lp4663
S':'
asbag67
(g88
g69
NtRp4664
(dp4665
g72
(dp4666
sg81
g4651
sg74
(lp4667
g67
(g68
g69
NtRp4668
(dp4669
g72
(dp4670
g80
I5
ssg81
g4664
sg74
(lp4671
g1851
asbasbasbag67
(g83
g69
NtRp4672
(dp4673
g72
(dp4674
sg81
g3228
sg74
(lp4675
g67
(g88
g69
NtRp4676
(dp4677
g72
(dp4678
g92
g93
ssg81
g4672
sg74
(lp4679
S'session_new'
p4680
asbag67
(g88
g69
NtRp4681
(dp4682
g72
(dp4683
g99
g100
ssg81
g4672
sg74
(lp4684
S':'
asbag67
(g88
g69
NtRp4685
(dp4686
g72
(dp4687
sg81
g4672
sg74
(lp4688
g67
(g68
g69
NtRp4689
(dp4690
g72
(dp4691
g80
I5
ssg81
g4685
sg74
(lp4692
g110
asbasbasbag67
(g83
g69
NtRp4693
(dp4694
g72
(dp4695
sg81
g3228
sg74
(lp4696
g67
(g88
g69
NtRp4697
(dp4698
g72
(dp4699
g92
g93
ssg81
g4693
sg74
(lp4700
S'status'
p4701
asbag67
(g88
g69
NtRp4702
(dp4703
g72
(dp4704
g99
g100
ssg81
g4693
sg74
(lp4705
S':'
asbag67
(g88
g69
NtRp4706
(dp4707
g72
(dp4708
sg81
g4693
sg74
(lp4709
g67
(g68
g69
NtRp4710
(dp4711
g72
(dp4712
g80
I5
ssg81
g4706
sg74
(lp4713
S'200'
p4714
asbasbasbag67
(g83
g69
NtRp4715
(dp4716
g72
(dp4717
sg81
g3228
sg74
(lp4718
g67
(g88
g69
NtRp4719
(dp4720
g72
(dp4721
g92
g93
ssg81
g4715
sg74
(lp4722
S'subtitle'
p4723
asbag67
(g88
g69
NtRp4724
(dp4725
g72
(dp4726
g99
g100
ssg81
g4715
sg74
(lp4727
S':'
asbag67
(g88
g69
NtRp4728
(dp4729
g72
(dp4730
sg81
g4715
sg74
(lp4731
g67
(g68
g69
NtRp4732
(dp4733
g72
(dp4734
g80
I5
ssg81
g4728
sg74
(lp4735
g3784
(S's\x12\x00\x00\x00personnalisez-moi!'
tRp4736
asbasbasbag67
(g83
g69
NtRp4737
(dp4738
g72
(dp4739
sg81
g3228
sg74
(lp4740
g67
(g88
g69
NtRp4741
(dp4742
g72
(dp4743
g92
g93
ssg81
g4737
sg74
(lp4744
S'title'
p4745
asbag67
(g88
g69
NtRp4746
(dp4747
g72
(dp4748
g99
g100
ssg81
g4737
sg74
(lp4749
S':'
asbag67
(g88
g69
NtRp4750
(dp4751
g72
(dp4752
sg81
g4737
sg74
(lp4753
g67
(g68
g69
NtRp4754
(dp4755
g72
(dp4756
g80
I5
ssg81
g4750
sg74
(lp4757
S'Snapcop2 Web2py'
p4758
asbasbasbag67
(g83
g69
NtRp4759
(dp4760
g72
(dp4761
sg81
g3228
sg74
(lp4762
g67
(g88
g69
NtRp4763
(dp4764
g72
(dp4765
g92
g93
ssg81
g4759
sg74
(lp4766
g2515
asbag67
(g88
g69
NtRp4767
(dp4768
g72
(dp4769
g99
g100
ssg81
g4759
sg74
(lp4770
S':'
asbag67
(g88
g69
NtRp4771
(dp4772
g72
(dp4773
sg81
g4759
sg74
(lp4774
g67
(g68
g69
NtRp4775
(dp4776
g72
(dp4777
g80
I5
ssg81
g4771
sg74
(lp4778
g2528
asbasbasbag67
(g83
g69
NtRp4779
(dp4780
g72
(dp4781
sg81
g3228
sg74
(lp4782
g67
(g88
g69
NtRp4783
(dp4784
g72
(dp4785
g92
g93
ssg81
g4779
sg74
(lp4786
S'view'
p4787
asbag67
(g88
g69
NtRp4788
(dp4789
g72
(dp4790
g99
g100
ssg81
g4779
sg74
(lp4791
S':'
asbag67
(g88
g69
NtRp4792
(dp4793
g72
(dp4794
sg81
g4779
sg74
(lp4795
g67
(g68
g69
NtRp4796
(dp4797
g72
(dp4798
g80
I5
ssg81
g4792
sg74
(lp4799
S'form/first.html'
p4800
asbasbasbasbasbsS'locals'
p4801
(dp4802
g4
S"'/web2py/applications/snapcop2_web2py/controllers/form.py'"
p4803
sg6
S"'# -*- coding: utf-8 -*-\\n\\nimport redis\\ncx = redis...rm.vars)\\n\\nresponse._vars=response._caller(first)\\n'"
p4804
sssS'traceback'
p4805
S'Traceback (most recent call last):\n  File "/web2py/gluon/restricted.py", line 204, in restricted\n    ccode = compile2(code,layer)\n  File "/web2py/gluon/restricted.py", line 189, in compile2\n    return compile(code.rstrip().replace(\'\\r\\n\',\'\\n\')+\'\\n\', layer, \'exec\')\n  File "/web2py/applications/snapcop2_web2py/controllers/form.py", line 9\n    form=FORM(TABLE(TR("Your name:",INPUT(_type="text",_name="name",requires=IS_NOT_EMPTY())),\n       ^\nIndentationError: expected an indented block\n'
p4806
s.