(dp1
S'output'
p2
S"<type 'exceptions.SyntaxError'> invalid syntax (form.py, line 9)"
p3
sS'layer'
p4
S'/web2py/applications/snapcop2_web2py/controllers/form.py'
p5
sS'code'
p6
S'# -*- coding: utf-8 -*-\n\nimport redis\ncx = redis.Redis()\n\n\ndef first():\n    form=FORM(TABLE(\'\'\'TR("Codification souche:",INPUT(_type="text",_name="souche",requires=IS_NOT_EMPTY())),\'\'\'\n                    TR("Substrat:",INPUT(_type="text",_name="substrat",requires=IS_NOT_EMPTY())),\n                    TR("Dur\xc3\xa9e de fermentation:",INPUT(_type="text",_name="fermentation",requires=IS_INT_IN_RANGE(0, 9999))),\n                    TR("Commentaires",TEXTAREA(_name="profile",value="Commentaire ici")),\n                    TR("",INPUT(_type="submit",_value="SUBMIT"))))\n    if form.accepts(request,session):\n        response.flash="form accepted"\n    elif form.errors:\n        response.flash="form is invalid"\n    else:\n        response.flash="please fill the form"\n    souche = str(request.vars.souche)\n    substrat = str(request.vars.substrat)\n    fermentation = str(request.vars.fermentation)\n    cx.publish(\'souche\', souche)\n    cx.publish(\'substrat\', substrat)\n    cx.publish(\'fermentation\', fermentation)\n    return dict(form=form,vars=form.vars)\n\nresponse._vars=response._caller(first)\n'
p7
sS'snapshot'
p8
(dp9
S'exception'
p10
(dp11
S'__getslice__'
p12
S"<method-wrapper '__getslice__' of exceptions.SyntaxError object>"
p13
sS'text'
p14
S'\'                    TR("Substrat:",INPUT(_type="text",_name="substrat",requires=IS_NOT_EMPTY())),\\n\''
p15
sS'__str__'
p16
S"<method-wrapper '__str__' of exceptions.SyntaxError object>"
p17
sS'__reduce__'
p18
S'<built-in method __reduce__ of exceptions.SyntaxError object>'
p19
sS'__dict__'
p20
S'{}'
p21
sS'__sizeof__'
p22
S'<built-in method __sizeof__ of exceptions.SyntaxError object>'
p23
sS'__init__'
p24
S"<method-wrapper '__init__' of exceptions.SyntaxError object>"
p25
sS'__setattr__'
p26
S"<method-wrapper '__setattr__' of exceptions.SyntaxError object>"
p27
sS'__reduce_ex__'
p28
S'<built-in method __reduce_ex__ of exceptions.SyntaxError object>'
p29
sS'__new__'
p30
S'<built-in method __new__ of type object>'
p31
sS'__format__'
p32
S'<built-in method __format__ of exceptions.SyntaxError object>'
p33
sS'__class__'
p34
S"<type 'exceptions.SyntaxError'>"
p35
sS'filename'
p36
S"'/web2py/applications/snapcop2_web2py/controllers/form.py'"
p37
sS'lineno'
p38
S'9'
sS'msg'
p39
S"'invalid syntax'"
p40
sS'__doc__'
p41
S"'Invalid syntax.'"
p42
sS'__getitem__'
p43
S"<method-wrapper '__getitem__' of exceptions.SyntaxError object>"
p44
sS'__setstate__'
p45
S'<built-in method __setstate__ of exceptions.SyntaxError object>'
p46
sS'__getattribute__'
p47
S"<method-wrapper '__getattribute__' of exceptions.SyntaxError object>"
p48
sS'print_file_and_line'
p49
S'None'
p50
sS'args'
p51
S'(\'invalid syntax\', (\'/web2py/applications/snapcop2_web2py/controllers/form.py\', 9, 22, \'                    TR("Substrat:",INPUT(_type="text",_name="substrat",requires=IS_NOT_EMPTY())),\\n\'))'
p52
sS'__subclasshook__'
p53
S'<built-in method __subclasshook__ of type object>'
p54
sS'offset'
p55
S'22'
p56
sS'__unicode__'
p57
S'<built-in method __unicode__ of exceptions.SyntaxError object>'
p58
sS'__delattr__'
p59
S"<method-wrapper '__delattr__' of exceptions.SyntaxError object>"
p60
sS'__repr__'
p61
S"<method-wrapper '__repr__' of exceptions.SyntaxError object>"
p62
sS'__hash__'
p63
S"<method-wrapper '__hash__' of exceptions.SyntaxError object>"
p64
ssS'evalue'
p65
S'invalid syntax (form.py, line 9)'
p66
sS'request'
p67
ccopy_reg
_reconstructor
p68
(cgluon.html
BEAUTIFY
p69
c__builtin__
object
p70
NtRp71
(dp72
S'attributes'
p73
(dp74
sS'components'
p75
(lp76
g68
(cgluon.html
TABLE
p77
g70
NtRp78
(dp79
g73
(dp80
S'level'
p81
I5
ssS'parent'
p82
Nsg75
(lp83
g68
(cgluon.html
TR
p84
g70
NtRp85
(dp86
g73
(dp87
sg82
g78
sg75
(lp88
g68
(cgluon.html
TD
p89
g70
NtRp90
(dp91
g73
(dp92
S'_style'
p93
S'font-weight:bold;vertical-align:top'
p94
ssg82
g85
sg75
(lp95
S'ajax'
p96
asbag68
(g89
g70
NtRp97
(dp98
g73
(dp99
S'_valign'
p100
S'top'
p101
ssg82
g85
sg75
(lp102
S':'
asbag68
(g89
g70
NtRp103
(dp104
g73
(dp105
sg82
g85
sg75
(lp106
g68
(g69
g70
NtRp107
(dp108
g73
(dp109
g81
I5
ssg82
g103
sg75
(lp110
S'False'
p111
asbasbasbag68
(g84
g70
NtRp112
(dp113
g73
(dp114
sg82
g78
sg75
(lp115
g68
(g89
g70
NtRp116
(dp117
g73
(dp118
g93
g94
ssg82
g112
sg75
(lp119
S'application'
p120
asbag68
(g89
g70
NtRp121
(dp122
g73
(dp123
g100
g101
ssg82
g112
sg75
(lp124
S':'
asbag68
(g89
g70
NtRp125
(dp126
g73
(dp127
sg82
g112
sg75
(lp128
g68
(g69
g70
NtRp129
(dp130
g73
(dp131
g81
I5
ssg82
g125
sg75
(lp132
S'snapcop2_web2py'
p133
asbasbasbag68
(g84
g70
NtRp134
(dp135
g73
(dp136
sg82
g78
sg75
(lp137
g68
(g89
g70
NtRp138
(dp139
g73
(dp140
g93
g94
ssg82
g134
sg75
(lp141
g51
asbag68
(g89
g70
NtRp142
(dp143
g73
(dp144
g100
g101
ssg82
g134
sg75
(lp145
S':'
asbag68
(g89
g70
NtRp146
(dp147
g73
(dp148
sg82
g134
sg75
(lp149
g68
(g69
g70
NtRp150
(dp151
g73
(dp152
g81
I5
ssg82
g146
sg75
(lp153
g68
(g77
g70
NtRp154
(dp155
g73
(dp156
g81
I4
ssg82
Nsg75
(lp157
sbasbasbasbag68
(g84
g70
NtRp158
(dp159
g73
(dp160
sg82
g78
sg75
(lp161
g68
(g89
g70
NtRp162
(dp163
g73
(dp164
g93
g94
ssg82
g158
sg75
(lp165
S'body'
p166
asbag68
(g89
g70
NtRp167
(dp168
g73
(dp169
g100
g101
ssg82
g158
sg75
(lp170
S':'
asbag68
(g89
g70
NtRp171
(dp172
g73
(dp173
sg82
g158
sg75
(lp174
g68
(g69
g70
NtRp175
(dp176
g73
(dp177
g81
I5
ssg82
g171
sg75
(lp178
S"<open file '<fdopen>', mode 'w+b' at 0x7f49cc34d390>"
p179
asbasbasbag68
(g84
g70
NtRp180
(dp181
g73
(dp182
sg82
g78
sg75
(lp183
g68
(g89
g70
NtRp184
(dp185
g73
(dp186
g93
g94
ssg82
g180
sg75
(lp187
S'client'
p188
asbag68
(g89
g70
NtRp189
(dp190
g73
(dp191
g100
g101
ssg82
g180
sg75
(lp192
S':'
asbag68
(g89
g70
NtRp193
(dp194
g73
(dp195
sg82
g180
sg75
(lp196
g68
(g69
g70
NtRp197
(dp198
g73
(dp199
g81
I5
ssg82
g193
sg75
(lp200
S'127.0.0.1'
p201
asbasbasbag68
(g84
g70
NtRp202
(dp203
g73
(dp204
sg82
g78
sg75
(lp205
g68
(g89
g70
NtRp206
(dp207
g73
(dp208
g93
g94
ssg82
g202
sg75
(lp209
S'controller'
p210
asbag68
(g89
g70
NtRp211
(dp212
g73
(dp213
g100
g101
ssg82
g202
sg75
(lp214
S':'
asbag68
(g89
g70
NtRp215
(dp216
g73
(dp217
sg82
g202
sg75
(lp218
g68
(g69
g70
NtRp219
(dp220
g73
(dp221
g81
I5
ssg82
g215
sg75
(lp222
S'form'
p223
asbasbasbag68
(g84
g70
NtRp224
(dp225
g73
(dp226
sg82
g78
sg75
(lp227
g68
(g89
g70
NtRp228
(dp229
g73
(dp230
g93
g94
ssg82
g224
sg75
(lp231
S'cookies'
p232
asbag68
(g89
g70
NtRp233
(dp234
g73
(dp235
g100
g101
ssg82
g224
sg75
(lp236
S':'
asbag68
(g89
g70
NtRp237
(dp238
g73
(dp239
sg82
g224
sg75
(lp240
g68
(g69
g70
NtRp241
(dp242
g73
(dp243
g81
I5
ssg82
g237
sg75
(lp244
g68
(g77
g70
NtRp245
(dp246
g73
(dp247
g81
I4
ssg82
Nsg75
(lp248
g68
(g84
g70
NtRp249
(dp250
g73
(dp251
sg82
g245
sg75
(lp252
g68
(g89
g70
NtRp253
(dp254
g73
(dp255
g93
g94
ssg82
g249
sg75
(lp256
S'session_id_admin'
p257
asbag68
(g89
g70
NtRp258
(dp259
g73
(dp260
g100
g101
ssg82
g249
sg75
(lp261
S':'
asbag68
(g89
g70
NtRp262
(dp263
g73
(dp264
sg82
g249
sg75
(lp265
g68
(g69
g70
NtRp266
(dp267
g73
(dp268
g81
I4
ssg82
g262
sg75
(lp269
g68
(g77
g70
NtRp270
(dp271
g73
(dp272
g81
I3
ssg82
Nsg75
(lp273
g68
(g84
g70
NtRp274
(dp275
g73
(dp276
sg82
g270
sg75
(lp277
g68
(g89
g70
NtRp278
(dp279
g73
(dp280
g93
g94
ssg82
g274
sg75
(lp281
S'comment'
p282
asbag68
(g89
g70
NtRp283
(dp284
g73
(dp285
g100
g101
ssg82
g274
sg75
(lp286
S':'
asbag68
(g89
g70
NtRp287
(dp288
g73
(dp289
sg82
g274
sg75
(lp290
g68
(g69
g70
NtRp291
(dp292
g73
(dp293
g81
I3
ssg82
g287
sg75
(lp294
S''
asbasbasbag68
(g84
g70
NtRp295
(dp296
g73
(dp297
sg82
g270
sg75
(lp298
g68
(g89
g70
NtRp299
(dp300
g73
(dp301
g93
g94
ssg82
g295
sg75
(lp302
S'domain'
p303
asbag68
(g89
g70
NtRp304
(dp305
g73
(dp306
g100
g101
ssg82
g295
sg75
(lp307
S':'
asbag68
(g89
g70
NtRp308
(dp309
g73
(dp310
sg82
g295
sg75
(lp311
g68
(g69
g70
NtRp312
(dp313
g73
(dp314
g81
I3
ssg82
g308
sg75
(lp315
S''
asbasbasbag68
(g84
g70
NtRp316
(dp317
g73
(dp318
sg82
g270
sg75
(lp319
g68
(g89
g70
NtRp320
(dp321
g73
(dp322
g93
g94
ssg82
g316
sg75
(lp323
S'expires'
p324
asbag68
(g89
g70
NtRp325
(dp326
g73
(dp327
g100
g101
ssg82
g316
sg75
(lp328
S':'
asbag68
(g89
g70
NtRp329
(dp330
g73
(dp331
sg82
g316
sg75
(lp332
g68
(g69
g70
NtRp333
(dp334
g73
(dp335
g81
I3
ssg82
g329
sg75
(lp336
S''
asbasbasbag68
(g84
g70
NtRp337
(dp338
g73
(dp339
sg82
g270
sg75
(lp340
g68
(g89
g70
NtRp341
(dp342
g73
(dp343
g93
g94
ssg82
g337
sg75
(lp344
S'httponly'
p345
asbag68
(g89
g70
NtRp346
(dp347
g73
(dp348
g100
g101
ssg82
g337
sg75
(lp349
S':'
asbag68
(g89
g70
NtRp350
(dp351
g73
(dp352
sg82
g337
sg75
(lp353
g68
(g69
g70
NtRp354
(dp355
g73
(dp356
g81
I3
ssg82
g350
sg75
(lp357
S''
asbasbasbag68
(g84
g70
NtRp358
(dp359
g73
(dp360
sg82
g270
sg75
(lp361
g68
(g89
g70
NtRp362
(dp363
g73
(dp364
g93
g94
ssg82
g358
sg75
(lp365
S'max-age'
p366
asbag68
(g89
g70
NtRp367
(dp368
g73
(dp369
g100
g101
ssg82
g358
sg75
(lp370
S':'
asbag68
(g89
g70
NtRp371
(dp372
g73
(dp373
sg82
g358
sg75
(lp374
g68
(g69
g70
NtRp375
(dp376
g73
(dp377
g81
I3
ssg82
g371
sg75
(lp378
S''
asbasbasbag68
(g84
g70
NtRp379
(dp380
g73
(dp381
sg82
g270
sg75
(lp382
g68
(g89
g70
NtRp383
(dp384
g73
(dp385
g93
g94
ssg82
g379
sg75
(lp386
S'path'
p387
asbag68
(g89
g70
NtRp388
(dp389
g73
(dp390
g100
g101
ssg82
g379
sg75
(lp391
S':'
asbag68
(g89
g70
NtRp392
(dp393
g73
(dp394
sg82
g379
sg75
(lp395
g68
(g69
g70
NtRp396
(dp397
g73
(dp398
g81
I3
ssg82
g392
sg75
(lp399
S''
asbasbasbag68
(g84
g70
NtRp400
(dp401
g73
(dp402
sg82
g270
sg75
(lp403
g68
(g89
g70
NtRp404
(dp405
g73
(dp406
g93
g94
ssg82
g400
sg75
(lp407
S'secure'
p408
asbag68
(g89
g70
NtRp409
(dp410
g73
(dp411
g100
g101
ssg82
g400
sg75
(lp412
S':'
asbag68
(g89
g70
NtRp413
(dp414
g73
(dp415
sg82
g400
sg75
(lp416
g68
(g69
g70
NtRp417
(dp418
g73
(dp419
g81
I3
ssg82
g413
sg75
(lp420
S''
asbasbasbag68
(g84
g70
NtRp421
(dp422
g73
(dp423
sg82
g270
sg75
(lp424
g68
(g89
g70
NtRp425
(dp426
g73
(dp427
g93
g94
ssg82
g421
sg75
(lp428
S'version'
p429
asbag68
(g89
g70
NtRp430
(dp431
g73
(dp432
g100
g101
ssg82
g421
sg75
(lp433
S':'
asbag68
(g89
g70
NtRp434
(dp435
g73
(dp436
sg82
g421
sg75
(lp437
g68
(g69
g70
NtRp438
(dp439
g73
(dp440
g81
I3
ssg82
g434
sg75
(lp441
S''
asbasbasbasbasbasbasbag68
(g84
g70
NtRp442
(dp443
g73
(dp444
sg82
g245
sg75
(lp445
g68
(g89
g70
NtRp446
(dp447
g73
(dp448
g93
g94
ssg82
g442
sg75
(lp449
S'session_id_snapcop2'
p450
asbag68
(g89
g70
NtRp451
(dp452
g73
(dp453
g100
g101
ssg82
g442
sg75
(lp454
S':'
asbag68
(g89
g70
NtRp455
(dp456
g73
(dp457
sg82
g442
sg75
(lp458
g68
(g69
g70
NtRp459
(dp460
g73
(dp461
g81
I4
ssg82
g455
sg75
(lp462
g68
(g77
g70
NtRp463
(dp464
g73
(dp465
g81
I3
ssg82
Nsg75
(lp466
g68
(g84
g70
NtRp467
(dp468
g73
(dp469
sg82
g463
sg75
(lp470
g68
(g89
g70
NtRp471
(dp472
g73
(dp473
g93
g94
ssg82
g467
sg75
(lp474
g282
asbag68
(g89
g70
NtRp475
(dp476
g73
(dp477
g100
g101
ssg82
g467
sg75
(lp478
S':'
asbag68
(g89
g70
NtRp479
(dp480
g73
(dp481
sg82
g467
sg75
(lp482
g68
(g69
g70
NtRp483
(dp484
g73
(dp485
g81
I3
ssg82
g479
sg75
(lp486
S''
asbasbasbag68
(g84
g70
NtRp487
(dp488
g73
(dp489
sg82
g463
sg75
(lp490
g68
(g89
g70
NtRp491
(dp492
g73
(dp493
g93
g94
ssg82
g487
sg75
(lp494
g303
asbag68
(g89
g70
NtRp495
(dp496
g73
(dp497
g100
g101
ssg82
g487
sg75
(lp498
S':'
asbag68
(g89
g70
NtRp499
(dp500
g73
(dp501
sg82
g487
sg75
(lp502
g68
(g69
g70
NtRp503
(dp504
g73
(dp505
g81
I3
ssg82
g499
sg75
(lp506
S''
asbasbasbag68
(g84
g70
NtRp507
(dp508
g73
(dp509
sg82
g463
sg75
(lp510
g68
(g89
g70
NtRp511
(dp512
g73
(dp513
g93
g94
ssg82
g507
sg75
(lp514
g324
asbag68
(g89
g70
NtRp515
(dp516
g73
(dp517
g100
g101
ssg82
g507
sg75
(lp518
S':'
asbag68
(g89
g70
NtRp519
(dp520
g73
(dp521
sg82
g507
sg75
(lp522
g68
(g69
g70
NtRp523
(dp524
g73
(dp525
g81
I3
ssg82
g519
sg75
(lp526
S''
asbasbasbag68
(g84
g70
NtRp527
(dp528
g73
(dp529
sg82
g463
sg75
(lp530
g68
(g89
g70
NtRp531
(dp532
g73
(dp533
g93
g94
ssg82
g527
sg75
(lp534
g345
asbag68
(g89
g70
NtRp535
(dp536
g73
(dp537
g100
g101
ssg82
g527
sg75
(lp538
S':'
asbag68
(g89
g70
NtRp539
(dp540
g73
(dp541
sg82
g527
sg75
(lp542
g68
(g69
g70
NtRp543
(dp544
g73
(dp545
g81
I3
ssg82
g539
sg75
(lp546
S''
asbasbasbag68
(g84
g70
NtRp547
(dp548
g73
(dp549
sg82
g463
sg75
(lp550
g68
(g89
g70
NtRp551
(dp552
g73
(dp553
g93
g94
ssg82
g547
sg75
(lp554
g366
asbag68
(g89
g70
NtRp555
(dp556
g73
(dp557
g100
g101
ssg82
g547
sg75
(lp558
S':'
asbag68
(g89
g70
NtRp559
(dp560
g73
(dp561
sg82
g547
sg75
(lp562
g68
(g69
g70
NtRp563
(dp564
g73
(dp565
g81
I3
ssg82
g559
sg75
(lp566
S''
asbasbasbag68
(g84
g70
NtRp567
(dp568
g73
(dp569
sg82
g463
sg75
(lp570
g68
(g89
g70
NtRp571
(dp572
g73
(dp573
g93
g94
ssg82
g567
sg75
(lp574
g387
asbag68
(g89
g70
NtRp575
(dp576
g73
(dp577
g100
g101
ssg82
g567
sg75
(lp578
S':'
asbag68
(g89
g70
NtRp579
(dp580
g73
(dp581
sg82
g567
sg75
(lp582
g68
(g69
g70
NtRp583
(dp584
g73
(dp585
g81
I3
ssg82
g579
sg75
(lp586
S''
asbasbasbag68
(g84
g70
NtRp587
(dp588
g73
(dp589
sg82
g463
sg75
(lp590
g68
(g89
g70
NtRp591
(dp592
g73
(dp593
g93
g94
ssg82
g587
sg75
(lp594
g408
asbag68
(g89
g70
NtRp595
(dp596
g73
(dp597
g100
g101
ssg82
g587
sg75
(lp598
S':'
asbag68
(g89
g70
NtRp599
(dp600
g73
(dp601
sg82
g587
sg75
(lp602
g68
(g69
g70
NtRp603
(dp604
g73
(dp605
g81
I3
ssg82
g599
sg75
(lp606
S''
asbasbasbag68
(g84
g70
NtRp607
(dp608
g73
(dp609
sg82
g463
sg75
(lp610
g68
(g89
g70
NtRp611
(dp612
g73
(dp613
g93
g94
ssg82
g607
sg75
(lp614
g429
asbag68
(g89
g70
NtRp615
(dp616
g73
(dp617
g100
g101
ssg82
g607
sg75
(lp618
S':'
asbag68
(g89
g70
NtRp619
(dp620
g73
(dp621
sg82
g607
sg75
(lp622
g68
(g69
g70
NtRp623
(dp624
g73
(dp625
g81
I3
ssg82
g619
sg75
(lp626
S''
asbasbasbasbasbasbasbag68
(g84
g70
NtRp627
(dp628
g73
(dp629
sg82
g245
sg75
(lp630
g68
(g89
g70
NtRp631
(dp632
g73
(dp633
g93
g94
ssg82
g627
sg75
(lp634
S'session_id_snapcop2_web2py'
p635
asbag68
(g89
g70
NtRp636
(dp637
g73
(dp638
g100
g101
ssg82
g627
sg75
(lp639
S':'
asbag68
(g89
g70
NtRp640
(dp641
g73
(dp642
sg82
g627
sg75
(lp643
g68
(g69
g70
NtRp644
(dp645
g73
(dp646
g81
I4
ssg82
g640
sg75
(lp647
g68
(g77
g70
NtRp648
(dp649
g73
(dp650
g81
I3
ssg82
Nsg75
(lp651
g68
(g84
g70
NtRp652
(dp653
g73
(dp654
sg82
g648
sg75
(lp655
g68
(g89
g70
NtRp656
(dp657
g73
(dp658
g93
g94
ssg82
g652
sg75
(lp659
g282
asbag68
(g89
g70
NtRp660
(dp661
g73
(dp662
g100
g101
ssg82
g652
sg75
(lp663
S':'
asbag68
(g89
g70
NtRp664
(dp665
g73
(dp666
sg82
g652
sg75
(lp667
g68
(g69
g70
NtRp668
(dp669
g73
(dp670
g81
I3
ssg82
g664
sg75
(lp671
S''
asbasbasbag68
(g84
g70
NtRp672
(dp673
g73
(dp674
sg82
g648
sg75
(lp675
g68
(g89
g70
NtRp676
(dp677
g73
(dp678
g93
g94
ssg82
g672
sg75
(lp679
g303
asbag68
(g89
g70
NtRp680
(dp681
g73
(dp682
g100
g101
ssg82
g672
sg75
(lp683
S':'
asbag68
(g89
g70
NtRp684
(dp685
g73
(dp686
sg82
g672
sg75
(lp687
g68
(g69
g70
NtRp688
(dp689
g73
(dp690
g81
I3
ssg82
g684
sg75
(lp691
S''
asbasbasbag68
(g84
g70
NtRp692
(dp693
g73
(dp694
sg82
g648
sg75
(lp695
g68
(g89
g70
NtRp696
(dp697
g73
(dp698
g93
g94
ssg82
g692
sg75
(lp699
g324
asbag68
(g89
g70
NtRp700
(dp701
g73
(dp702
g100
g101
ssg82
g692
sg75
(lp703
S':'
asbag68
(g89
g70
NtRp704
(dp705
g73
(dp706
sg82
g692
sg75
(lp707
g68
(g69
g70
NtRp708
(dp709
g73
(dp710
g81
I3
ssg82
g704
sg75
(lp711
S''
asbasbasbag68
(g84
g70
NtRp712
(dp713
g73
(dp714
sg82
g648
sg75
(lp715
g68
(g89
g70
NtRp716
(dp717
g73
(dp718
g93
g94
ssg82
g712
sg75
(lp719
g345
asbag68
(g89
g70
NtRp720
(dp721
g73
(dp722
g100
g101
ssg82
g712
sg75
(lp723
S':'
asbag68
(g89
g70
NtRp724
(dp725
g73
(dp726
sg82
g712
sg75
(lp727
g68
(g69
g70
NtRp728
(dp729
g73
(dp730
g81
I3
ssg82
g724
sg75
(lp731
S''
asbasbasbag68
(g84
g70
NtRp732
(dp733
g73
(dp734
sg82
g648
sg75
(lp735
g68
(g89
g70
NtRp736
(dp737
g73
(dp738
g93
g94
ssg82
g732
sg75
(lp739
g366
asbag68
(g89
g70
NtRp740
(dp741
g73
(dp742
g100
g101
ssg82
g732
sg75
(lp743
S':'
asbag68
(g89
g70
NtRp744
(dp745
g73
(dp746
sg82
g732
sg75
(lp747
g68
(g69
g70
NtRp748
(dp749
g73
(dp750
g81
I3
ssg82
g744
sg75
(lp751
S''
asbasbasbag68
(g84
g70
NtRp752
(dp753
g73
(dp754
sg82
g648
sg75
(lp755
g68
(g89
g70
NtRp756
(dp757
g73
(dp758
g93
g94
ssg82
g752
sg75
(lp759
g387
asbag68
(g89
g70
NtRp760
(dp761
g73
(dp762
g100
g101
ssg82
g752
sg75
(lp763
S':'
asbag68
(g89
g70
NtRp764
(dp765
g73
(dp766
sg82
g752
sg75
(lp767
g68
(g69
g70
NtRp768
(dp769
g73
(dp770
g81
I3
ssg82
g764
sg75
(lp771
S''
asbasbasbag68
(g84
g70
NtRp772
(dp773
g73
(dp774
sg82
g648
sg75
(lp775
g68
(g89
g70
NtRp776
(dp777
g73
(dp778
g93
g94
ssg82
g772
sg75
(lp779
g408
asbag68
(g89
g70
NtRp780
(dp781
g73
(dp782
g100
g101
ssg82
g772
sg75
(lp783
S':'
asbag68
(g89
g70
NtRp784
(dp785
g73
(dp786
sg82
g772
sg75
(lp787
g68
(g69
g70
NtRp788
(dp789
g73
(dp790
g81
I3
ssg82
g784
sg75
(lp791
S''
asbasbasbag68
(g84
g70
NtRp792
(dp793
g73
(dp794
sg82
g648
sg75
(lp795
g68
(g89
g70
NtRp796
(dp797
g73
(dp798
g93
g94
ssg82
g792
sg75
(lp799
g429
asbag68
(g89
g70
NtRp800
(dp801
g73
(dp802
g100
g101
ssg82
g792
sg75
(lp803
S':'
asbag68
(g89
g70
NtRp804
(dp805
g73
(dp806
sg82
g792
sg75
(lp807
g68
(g69
g70
NtRp808
(dp809
g73
(dp810
g81
I3
ssg82
g804
sg75
(lp811
S''
asbasbasbasbasbasbasbag68
(g84
g70
NtRp812
(dp813
g73
(dp814
sg82
g245
sg75
(lp815
g68
(g89
g70
NtRp816
(dp817
g73
(dp818
g93
g94
ssg82
g812
sg75
(lp819
S'session_id_welcome'
p820
asbag68
(g89
g70
NtRp821
(dp822
g73
(dp823
g100
g101
ssg82
g812
sg75
(lp824
S':'
asbag68
(g89
g70
NtRp825
(dp826
g73
(dp827
sg82
g812
sg75
(lp828
g68
(g69
g70
NtRp829
(dp830
g73
(dp831
g81
I4
ssg82
g825
sg75
(lp832
g68
(g77
g70
NtRp833
(dp834
g73
(dp835
g81
I3
ssg82
Nsg75
(lp836
g68
(g84
g70
NtRp837
(dp838
g73
(dp839
sg82
g833
sg75
(lp840
g68
(g89
g70
NtRp841
(dp842
g73
(dp843
g93
g94
ssg82
g837
sg75
(lp844
g282
asbag68
(g89
g70
NtRp845
(dp846
g73
(dp847
g100
g101
ssg82
g837
sg75
(lp848
S':'
asbag68
(g89
g70
NtRp849
(dp850
g73
(dp851
sg82
g837
sg75
(lp852
g68
(g69
g70
NtRp853
(dp854
g73
(dp855
g81
I3
ssg82
g849
sg75
(lp856
S''
asbasbasbag68
(g84
g70
NtRp857
(dp858
g73
(dp859
sg82
g833
sg75
(lp860
g68
(g89
g70
NtRp861
(dp862
g73
(dp863
g93
g94
ssg82
g857
sg75
(lp864
g303
asbag68
(g89
g70
NtRp865
(dp866
g73
(dp867
g100
g101
ssg82
g857
sg75
(lp868
S':'
asbag68
(g89
g70
NtRp869
(dp870
g73
(dp871
sg82
g857
sg75
(lp872
g68
(g69
g70
NtRp873
(dp874
g73
(dp875
g81
I3
ssg82
g869
sg75
(lp876
S''
asbasbasbag68
(g84
g70
NtRp877
(dp878
g73
(dp879
sg82
g833
sg75
(lp880
g68
(g89
g70
NtRp881
(dp882
g73
(dp883
g93
g94
ssg82
g877
sg75
(lp884
g324
asbag68
(g89
g70
NtRp885
(dp886
g73
(dp887
g100
g101
ssg82
g877
sg75
(lp888
S':'
asbag68
(g89
g70
NtRp889
(dp890
g73
(dp891
sg82
g877
sg75
(lp892
g68
(g69
g70
NtRp893
(dp894
g73
(dp895
g81
I3
ssg82
g889
sg75
(lp896
S''
asbasbasbag68
(g84
g70
NtRp897
(dp898
g73
(dp899
sg82
g833
sg75
(lp900
g68
(g89
g70
NtRp901
(dp902
g73
(dp903
g93
g94
ssg82
g897
sg75
(lp904
g345
asbag68
(g89
g70
NtRp905
(dp906
g73
(dp907
g100
g101
ssg82
g897
sg75
(lp908
S':'
asbag68
(g89
g70
NtRp909
(dp910
g73
(dp911
sg82
g897
sg75
(lp912
g68
(g69
g70
NtRp913
(dp914
g73
(dp915
g81
I3
ssg82
g909
sg75
(lp916
S''
asbasbasbag68
(g84
g70
NtRp917
(dp918
g73
(dp919
sg82
g833
sg75
(lp920
g68
(g89
g70
NtRp921
(dp922
g73
(dp923
g93
g94
ssg82
g917
sg75
(lp924
g366
asbag68
(g89
g70
NtRp925
(dp926
g73
(dp927
g100
g101
ssg82
g917
sg75
(lp928
S':'
asbag68
(g89
g70
NtRp929
(dp930
g73
(dp931
sg82
g917
sg75
(lp932
g68
(g69
g70
NtRp933
(dp934
g73
(dp935
g81
I3
ssg82
g929
sg75
(lp936
S''
asbasbasbag68
(g84
g70
NtRp937
(dp938
g73
(dp939
sg82
g833
sg75
(lp940
g68
(g89
g70
NtRp941
(dp942
g73
(dp943
g93
g94
ssg82
g937
sg75
(lp944
g387
asbag68
(g89
g70
NtRp945
(dp946
g73
(dp947
g100
g101
ssg82
g937
sg75
(lp948
S':'
asbag68
(g89
g70
NtRp949
(dp950
g73
(dp951
sg82
g937
sg75
(lp952
g68
(g69
g70
NtRp953
(dp954
g73
(dp955
g81
I3
ssg82
g949
sg75
(lp956
S''
asbasbasbag68
(g84
g70
NtRp957
(dp958
g73
(dp959
sg82
g833
sg75
(lp960
g68
(g89
g70
NtRp961
(dp962
g73
(dp963
g93
g94
ssg82
g957
sg75
(lp964
g408
asbag68
(g89
g70
NtRp965
(dp966
g73
(dp967
g100
g101
ssg82
g957
sg75
(lp968
S':'
asbag68
(g89
g70
NtRp969
(dp970
g73
(dp971
sg82
g957
sg75
(lp972
g68
(g69
g70
NtRp973
(dp974
g73
(dp975
g81
I3
ssg82
g969
sg75
(lp976
S''
asbasbasbag68
(g84
g70
NtRp977
(dp978
g73
(dp979
sg82
g833
sg75
(lp980
g68
(g89
g70
NtRp981
(dp982
g73
(dp983
g93
g94
ssg82
g977
sg75
(lp984
g429
asbag68
(g89
g70
NtRp985
(dp986
g73
(dp987
g100
g101
ssg82
g977
sg75
(lp988
S':'
asbag68
(g89
g70
NtRp989
(dp990
g73
(dp991
sg82
g977
sg75
(lp992
g68
(g69
g70
NtRp993
(dp994
g73
(dp995
g81
I3
ssg82
g989
sg75
(lp996
S''
asbasbasbasbasbasbasbasbasbasbasbag68
(g84
g70
NtRp997
(dp998
g73
(dp999
sg82
g78
sg75
(lp1000
g68
(g89
g70
NtRp1001
(dp1002
g73
(dp1003
g93
g94
ssg82
g997
sg75
(lp1004
S'env'
p1005
asbag68
(g89
g70
NtRp1006
(dp1007
g73
(dp1008
g100
g101
ssg82
g997
sg75
(lp1009
S':'
asbag68
(g89
g70
NtRp1010
(dp1011
g73
(dp1012
sg82
g997
sg75
(lp1013
g68
(g69
g70
NtRp1014
(dp1015
g73
(dp1016
g81
I5
ssg82
g1010
sg75
(lp1017
g68
(g77
g70
NtRp1018
(dp1019
g73
(dp1020
g81
I4
ssg82
Nsg75
(lp1021
g68
(g84
g70
NtRp1022
(dp1023
g73
(dp1024
sg82
g1018
sg75
(lp1025
g68
(g89
g70
NtRp1026
(dp1027
g73
(dp1028
g93
g94
ssg82
g1022
sg75
(lp1029
S'app_folders'
p1030
asbag68
(g89
g70
NtRp1031
(dp1032
g73
(dp1033
g100
g101
ssg82
g1022
sg75
(lp1034
S':'
asbag68
(g89
g70
NtRp1035
(dp1036
g73
(dp1037
sg82
g1022
sg75
(lp1038
g68
(g69
g70
NtRp1039
(dp1040
g73
(dp1041
g81
I4
ssg82
g1035
sg75
(lp1042
S"set(['/web2py/applications/admin/', '/web2py/applications/welcome/', '/web2py/applications/snapcop2_web2py/', '/web2py/applications/snapcop2/'])"
p1043
asbasbasbag68
(g84
g70
NtRp1044
(dp1045
g73
(dp1046
sg82
g1018
sg75
(lp1047
g68
(g89
g70
NtRp1048
(dp1049
g73
(dp1050
g93
g94
ssg82
g1044
sg75
(lp1051
S'applications_parent'
p1052
asbag68
(g89
g70
NtRp1053
(dp1054
g73
(dp1055
g100
g101
ssg82
g1044
sg75
(lp1056
S':'
asbag68
(g89
g70
NtRp1057
(dp1058
g73
(dp1059
sg82
g1044
sg75
(lp1060
g68
(g69
g70
NtRp1061
(dp1062
g73
(dp1063
g81
I4
ssg82
g1057
sg75
(lp1064
S'/web2py'
p1065
asbasbasbag68
(g84
g70
NtRp1066
(dp1067
g73
(dp1068
sg82
g1018
sg75
(lp1069
g68
(g89
g70
NtRp1070
(dp1071
g73
(dp1072
g93
g94
ssg82
g1066
sg75
(lp1073
S'cmd_args'
p1074
asbag68
(g89
g70
NtRp1075
(dp1076
g73
(dp1077
g100
g101
ssg82
g1066
sg75
(lp1078
S':'
asbag68
(g89
g70
NtRp1079
(dp1080
g73
(dp1081
sg82
g1066
sg75
(lp1082
g68
(g69
g70
NtRp1083
(dp1084
g73
(dp1085
g81
I4
ssg82
g1079
sg75
(lp1086
g68
(g77
g70
NtRp1087
(dp1088
g73
(dp1089
g81
I3
ssg82
Nsg75
(lp1090
sbasbasbasbag68
(g84
g70
NtRp1091
(dp1092
g73
(dp1093
sg82
g1018
sg75
(lp1094
g68
(g89
g70
NtRp1095
(dp1096
g73
(dp1097
g93
g94
ssg82
g1091
sg75
(lp1098
S'cmd_options'
p1099
asbag68
(g89
g70
NtRp1100
(dp1101
g73
(dp1102
g100
g101
ssg82
g1091
sg75
(lp1103
S':'
asbag68
(g89
g70
NtRp1104
(dp1105
g73
(dp1106
sg82
g1091
sg75
(lp1107
g68
(g69
g70
NtRp1108
(dp1109
g73
(dp1110
g81
I4
ssg82
g1104
sg75
(lp1111
S"<Values at 0x2f62680: {'verbose': False, 'ip': '127.0.0.1', 'shutdown_timeout': 5, 'taskbar': False, 'nocron': False, 'pid_filename': 'httpserver.pid', 'maxthreads': None, 'softcron': False, 'server_name': 'declic-pc', 'bpython': False, 'nogui': False, 'port': 8000, 'extcron': False, 'debuglevel': 30, 'test': None, 'folder': '/web2py', 'config': '', 'import_models': False, 'winservice': '', 'shell': None, 'run': '', 'log_filename': 'httpserver.log', 'args': [''], 'socket_timeout': 5, 'ssl_ca_certificate': None, 'scheduler': None, 'profiler_filename': None, 'ssl_private_key': '', 'password': 'photos10', 'request_queue_size': 5, 'ssl_certificate': '', 'cronjob': False, 'numthreads': None, 'quiet': False, 'interfaces': None, 'minthreads': None, 'timeout': 10, 'plain': False, 'nobanner': False}>"
p1112
asbasbasbag68
(g84
g70
NtRp1113
(dp1114
g73
(dp1115
sg82
g1018
sg75
(lp1116
g68
(g89
g70
NtRp1117
(dp1118
g73
(dp1119
g93
g94
ssg82
g1113
sg75
(lp1120
S'content_length'
p1121
asbag68
(g89
g70
NtRp1122
(dp1123
g73
(dp1124
g100
g101
ssg82
g1113
sg75
(lp1125
S':'
asbag68
(g89
g70
NtRp1126
(dp1127
g73
(dp1128
sg82
g1113
sg75
(lp1129
g68
(g69
g70
NtRp1130
(dp1131
g73
(dp1132
g81
I4
ssg82
g1126
sg75
(lp1133
S'806'
p1134
asbasbasbag68
(g84
g70
NtRp1135
(dp1136
g73
(dp1137
sg82
g1018
sg75
(lp1138
g68
(g89
g70
NtRp1139
(dp1140
g73
(dp1141
g93
g94
ssg82
g1135
sg75
(lp1142
S'content_type'
p1143
asbag68
(g89
g70
NtRp1144
(dp1145
g73
(dp1146
g100
g101
ssg82
g1135
sg75
(lp1147
S':'
asbag68
(g89
g70
NtRp1148
(dp1149
g73
(dp1150
sg82
g1135
sg75
(lp1151
g68
(g69
g70
NtRp1152
(dp1153
g73
(dp1154
g81
I4
ssg82
g1148
sg75
(lp1155
S'multipart/form-data; boundary=---------------------------1220254001715322807612848282'
p1156
asbasbasbag68
(g84
g70
NtRp1157
(dp1158
g73
(dp1159
sg82
g1018
sg75
(lp1160
g68
(g89
g70
NtRp1161
(dp1162
g73
(dp1163
g93
g94
ssg82
g1157
sg75
(lp1164
S'db_sessions'
p1165
asbag68
(g89
g70
NtRp1166
(dp1167
g73
(dp1168
g100
g101
ssg82
g1157
sg75
(lp1169
S':'
asbag68
(g89
g70
NtRp1170
(dp1171
g73
(dp1172
sg82
g1157
sg75
(lp1173
g68
(g69
g70
NtRp1174
(dp1175
g73
(dp1176
g81
I4
ssg82
g1170
sg75
(lp1177
S'set([])'
p1178
asbasbasbag68
(g84
g70
NtRp1179
(dp1180
g73
(dp1181
sg82
g1018
sg75
(lp1182
g68
(g89
g70
NtRp1183
(dp1184
g73
(dp1185
g93
g94
ssg82
g1179
sg75
(lp1186
S'debugging'
p1187
asbag68
(g89
g70
NtRp1188
(dp1189
g73
(dp1190
g100
g101
ssg82
g1179
sg75
(lp1191
S':'
asbag68
(g89
g70
NtRp1192
(dp1193
g73
(dp1194
sg82
g1179
sg75
(lp1195
g68
(g69
g70
NtRp1196
(dp1197
g73
(dp1198
g81
I4
ssg82
g1192
sg75
(lp1199
g111
asbasbasbag68
(g84
g70
NtRp1200
(dp1201
g73
(dp1202
sg82
g1018
sg75
(lp1203
g68
(g89
g70
NtRp1204
(dp1205
g73
(dp1206
g93
g94
ssg82
g1200
sg75
(lp1207
S'gluon_parent'
p1208
asbag68
(g89
g70
NtRp1209
(dp1210
g73
(dp1211
g100
g101
ssg82
g1200
sg75
(lp1212
S':'
asbag68
(g89
g70
NtRp1213
(dp1214
g73
(dp1215
sg82
g1200
sg75
(lp1216
g68
(g69
g70
NtRp1217
(dp1218
g73
(dp1219
g81
I4
ssg82
g1213
sg75
(lp1220
S'/web2py'
p1221
asbasbasbag68
(g84
g70
NtRp1222
(dp1223
g73
(dp1224
sg82
g1018
sg75
(lp1225
g68
(g89
g70
NtRp1226
(dp1227
g73
(dp1228
g93
g94
ssg82
g1222
sg75
(lp1229
S'http_accept'
p1230
asbag68
(g89
g70
NtRp1231
(dp1232
g73
(dp1233
g100
g101
ssg82
g1222
sg75
(lp1234
S':'
asbag68
(g89
g70
NtRp1235
(dp1236
g73
(dp1237
sg82
g1222
sg75
(lp1238
g68
(g69
g70
NtRp1239
(dp1240
g73
(dp1241
g81
I4
ssg82
g1235
sg75
(lp1242
S'text/html,application/xhtml+xml,application/xml;q=0.9,*/*;q=0.8'
p1243
asbasbasbag68
(g84
g70
NtRp1244
(dp1245
g73
(dp1246
sg82
g1018
sg75
(lp1247
g68
(g89
g70
NtRp1248
(dp1249
g73
(dp1250
g93
g94
ssg82
g1244
sg75
(lp1251
S'http_accept_encoding'
p1252
asbag68
(g89
g70
NtRp1253
(dp1254
g73
(dp1255
g100
g101
ssg82
g1244
sg75
(lp1256
S':'
asbag68
(g89
g70
NtRp1257
(dp1258
g73
(dp1259
sg82
g1244
sg75
(lp1260
g68
(g69
g70
NtRp1261
(dp1262
g73
(dp1263
g81
I4
ssg82
g1257
sg75
(lp1264
S'gzip, deflate'
p1265
asbasbasbag68
(g84
g70
NtRp1266
(dp1267
g73
(dp1268
sg82
g1018
sg75
(lp1269
g68
(g89
g70
NtRp1270
(dp1271
g73
(dp1272
g93
g94
ssg82
g1266
sg75
(lp1273
S'http_accept_language'
p1274
asbag68
(g89
g70
NtRp1275
(dp1276
g73
(dp1277
g100
g101
ssg82
g1266
sg75
(lp1278
S':'
asbag68
(g89
g70
NtRp1279
(dp1280
g73
(dp1281
sg82
g1266
sg75
(lp1282
g68
(g69
g70
NtRp1283
(dp1284
g73
(dp1285
g81
I4
ssg82
g1279
sg75
(lp1286
S'fr,fr-fr;q=0.8,en-us;q=0.5,en;q=0.3'
p1287
asbasbasbag68
(g84
g70
NtRp1288
(dp1289
g73
(dp1290
sg82
g1018
sg75
(lp1291
g68
(g89
g70
NtRp1292
(dp1293
g73
(dp1294
g93
g94
ssg82
g1288
sg75
(lp1295
S'http_cache_control'
p1296
asbag68
(g89
g70
NtRp1297
(dp1298
g73
(dp1299
g100
g101
ssg82
g1288
sg75
(lp1300
S':'
asbag68
(g89
g70
NtRp1301
(dp1302
g73
(dp1303
sg82
g1288
sg75
(lp1304
g68
(g69
g70
NtRp1305
(dp1306
g73
(dp1307
g81
I4
ssg82
g1301
sg75
(lp1308
S'max-age=0'
p1309
asbasbasbag68
(g84
g70
NtRp1310
(dp1311
g73
(dp1312
sg82
g1018
sg75
(lp1313
g68
(g89
g70
NtRp1314
(dp1315
g73
(dp1316
g93
g94
ssg82
g1310
sg75
(lp1317
S'http_connection'
p1318
asbag68
(g89
g70
NtRp1319
(dp1320
g73
(dp1321
g100
g101
ssg82
g1310
sg75
(lp1322
S':'
asbag68
(g89
g70
NtRp1323
(dp1324
g73
(dp1325
sg82
g1310
sg75
(lp1326
g68
(g69
g70
NtRp1327
(dp1328
g73
(dp1329
g81
I4
ssg82
g1323
sg75
(lp1330
S'keep-alive'
p1331
asbasbasbag68
(g84
g70
NtRp1332
(dp1333
g73
(dp1334
sg82
g1018
sg75
(lp1335
g68
(g89
g70
NtRp1336
(dp1337
g73
(dp1338
g93
g94
ssg82
g1332
sg75
(lp1339
S'http_content_length'
p1340
asbag68
(g89
g70
NtRp1341
(dp1342
g73
(dp1343
g100
g101
ssg82
g1332
sg75
(lp1344
S':'
asbag68
(g89
g70
NtRp1345
(dp1346
g73
(dp1347
sg82
g1332
sg75
(lp1348
g68
(g69
g70
NtRp1349
(dp1350
g73
(dp1351
g81
I4
ssg82
g1345
sg75
(lp1352
g1134
asbasbasbag68
(g84
g70
NtRp1353
(dp1354
g73
(dp1355
sg82
g1018
sg75
(lp1356
g68
(g89
g70
NtRp1357
(dp1358
g73
(dp1359
g93
g94
ssg82
g1353
sg75
(lp1360
S'http_content_type'
p1361
asbag68
(g89
g70
NtRp1362
(dp1363
g73
(dp1364
g100
g101
ssg82
g1353
sg75
(lp1365
S':'
asbag68
(g89
g70
NtRp1366
(dp1367
g73
(dp1368
sg82
g1353
sg75
(lp1369
g68
(g69
g70
NtRp1370
(dp1371
g73
(dp1372
g81
I4
ssg82
g1366
sg75
(lp1373
g1156
asbasbasbag68
(g84
g70
NtRp1374
(dp1375
g73
(dp1376
sg82
g1018
sg75
(lp1377
g68
(g89
g70
NtRp1378
(dp1379
g73
(dp1380
g93
g94
ssg82
g1374
sg75
(lp1381
S'http_cookie'
p1382
asbag68
(g89
g70
NtRp1383
(dp1384
g73
(dp1385
g100
g101
ssg82
g1374
sg75
(lp1386
S':'
asbag68
(g89
g70
NtRp1387
(dp1388
g73
(dp1389
sg82
g1374
sg75
(lp1390
g68
(g69
g70
NtRp1391
(dp1392
g73
(dp1393
g81
I4
ssg82
g1387
sg75
(lp1394
S'session_id_welcome=127.0.0.1-a8bcafbc-45f6-4ba0-98e1-6be63f0a0fc3; session_id_admin=127.0.0.1-43762b74-1a5a-44ad-a373-f87d82a464fe; session_id_snapcop2=127.0.0.1-0073d425-a119-4e19-84f5-89d928efdc66; session_id_snapcop2_web2py=127.0.0.1-cef799a3-e7ef-4267-81c1-6c89039dd232'
p1395
asbasbasbag68
(g84
g70
NtRp1396
(dp1397
g73
(dp1398
sg82
g1018
sg75
(lp1399
g68
(g89
g70
NtRp1400
(dp1401
g73
(dp1402
g93
g94
ssg82
g1396
sg75
(lp1403
S'http_host'
p1404
asbag68
(g89
g70
NtRp1405
(dp1406
g73
(dp1407
g100
g101
ssg82
g1396
sg75
(lp1408
S':'
asbag68
(g89
g70
NtRp1409
(dp1410
g73
(dp1411
sg82
g1396
sg75
(lp1412
g68
(g69
g70
NtRp1413
(dp1414
g73
(dp1415
g81
I4
ssg82
g1409
sg75
(lp1416
S'127.0.0.1:8000'
p1417
asbasbasbag68
(g84
g70
NtRp1418
(dp1419
g73
(dp1420
sg82
g1018
sg75
(lp1421
g68
(g89
g70
NtRp1422
(dp1423
g73
(dp1424
g93
g94
ssg82
g1418
sg75
(lp1425
S'http_referer'
p1426
asbag68
(g89
g70
NtRp1427
(dp1428
g73
(dp1429
g100
g101
ssg82
g1418
sg75
(lp1430
S':'
asbag68
(g89
g70
NtRp1431
(dp1432
g73
(dp1433
sg82
g1418
sg75
(lp1434
g68
(g69
g70
NtRp1435
(dp1436
g73
(dp1437
g81
I4
ssg82
g1431
sg75
(lp1438
S'http://127.0.0.1:8000/snapcop2_web2py/form/first'
p1439
asbasbasbag68
(g84
g70
NtRp1440
(dp1441
g73
(dp1442
sg82
g1018
sg75
(lp1443
g68
(g89
g70
NtRp1444
(dp1445
g73
(dp1446
g93
g94
ssg82
g1440
sg75
(lp1447
S'http_user_agent'
p1448
asbag68
(g89
g70
NtRp1449
(dp1450
g73
(dp1451
g100
g101
ssg82
g1440
sg75
(lp1452
S':'
asbag68
(g89
g70
NtRp1453
(dp1454
g73
(dp1455
sg82
g1440
sg75
(lp1456
g68
(g69
g70
NtRp1457
(dp1458
g73
(dp1459
g81
I4
ssg82
g1453
sg75
(lp1460
S'Mozilla/5.0 (X11; Ubuntu; Linux x86_64; rv:14.0) Gecko/20100101 Firefox/14.0.1'
p1461
asbasbasbag68
(g84
g70
NtRp1462
(dp1463
g73
(dp1464
sg82
g1018
sg75
(lp1465
g68
(g89
g70
NtRp1466
(dp1467
g73
(dp1468
g93
g94
ssg82
g1462
sg75
(lp1469
S'is_jython'
p1470
asbag68
(g89
g70
NtRp1471
(dp1472
g73
(dp1473
g100
g101
ssg82
g1462
sg75
(lp1474
S':'
asbag68
(g89
g70
NtRp1475
(dp1476
g73
(dp1477
sg82
g1462
sg75
(lp1478
g68
(g69
g70
NtRp1479
(dp1480
g73
(dp1481
g81
I4
ssg82
g1475
sg75
(lp1482
g111
asbasbasbag68
(g84
g70
NtRp1483
(dp1484
g73
(dp1485
sg82
g1018
sg75
(lp1486
g68
(g89
g70
NtRp1487
(dp1488
g73
(dp1489
g93
g94
ssg82
g1483
sg75
(lp1490
S'is_pypy'
p1491
asbag68
(g89
g70
NtRp1492
(dp1493
g73
(dp1494
g100
g101
ssg82
g1483
sg75
(lp1495
S':'
asbag68
(g89
g70
NtRp1496
(dp1497
g73
(dp1498
sg82
g1483
sg75
(lp1499
g68
(g69
g70
NtRp1500
(dp1501
g73
(dp1502
g81
I4
ssg82
g1496
sg75
(lp1503
g111
asbasbasbag68
(g84
g70
NtRp1504
(dp1505
g73
(dp1506
sg82
g1018
sg75
(lp1507
g68
(g89
g70
NtRp1508
(dp1509
g73
(dp1510
g93
g94
ssg82
g1504
sg75
(lp1511
S'path_info'
p1512
asbag68
(g89
g70
NtRp1513
(dp1514
g73
(dp1515
g100
g101
ssg82
g1504
sg75
(lp1516
S':'
asbag68
(g89
g70
NtRp1517
(dp1518
g73
(dp1519
sg82
g1504
sg75
(lp1520
g68
(g69
g70
NtRp1521
(dp1522
g73
(dp1523
g81
I4
ssg82
g1517
sg75
(lp1524
S'/snapcop2_web2py/form/first'
p1525
asbasbasbag68
(g84
g70
NtRp1526
(dp1527
g73
(dp1528
sg82
g1018
sg75
(lp1529
g68
(g89
g70
NtRp1530
(dp1531
g73
(dp1532
g93
g94
ssg82
g1526
sg75
(lp1533
S'query_string'
p1534
asbag68
(g89
g70
NtRp1535
(dp1536
g73
(dp1537
g100
g101
ssg82
g1526
sg75
(lp1538
S':'
asbag68
(g89
g70
NtRp1539
(dp1540
g73
(dp1541
sg82
g1526
sg75
(lp1542
g68
(g69
g70
NtRp1543
(dp1544
g73
(dp1545
g81
I4
ssg82
g1539
sg75
(lp1546
S''
asbasbasbag68
(g84
g70
NtRp1547
(dp1548
g73
(dp1549
sg82
g1018
sg75
(lp1550
g68
(g89
g70
NtRp1551
(dp1552
g73
(dp1553
g93
g94
ssg82
g1547
sg75
(lp1554
S'remote_addr'
p1555
asbag68
(g89
g70
NtRp1556
(dp1557
g73
(dp1558
g100
g101
ssg82
g1547
sg75
(lp1559
S':'
asbag68
(g89
g70
NtRp1560
(dp1561
g73
(dp1562
sg82
g1547
sg75
(lp1563
g68
(g69
g70
NtRp1564
(dp1565
g73
(dp1566
g81
I4
ssg82
g1560
sg75
(lp1567
g201
asbasbasbag68
(g84
g70
NtRp1568
(dp1569
g73
(dp1570
sg82
g1018
sg75
(lp1571
g68
(g89
g70
NtRp1572
(dp1573
g73
(dp1574
g93
g94
ssg82
g1568
sg75
(lp1575
S'remote_port'
p1576
asbag68
(g89
g70
NtRp1577
(dp1578
g73
(dp1579
g100
g101
ssg82
g1568
sg75
(lp1580
S':'
asbag68
(g89
g70
NtRp1581
(dp1582
g73
(dp1583
sg82
g1568
sg75
(lp1584
g68
(g69
g70
NtRp1585
(dp1586
g73
(dp1587
g81
I4
ssg82
g1581
sg75
(lp1588
S'53865'
p1589
asbasbasbag68
(g84
g70
NtRp1590
(dp1591
g73
(dp1592
sg82
g1018
sg75
(lp1593
g68
(g89
g70
NtRp1594
(dp1595
g73
(dp1596
g93
g94
ssg82
g1590
sg75
(lp1597
S'request_method'
p1598
asbag68
(g89
g70
NtRp1599
(dp1600
g73
(dp1601
g100
g101
ssg82
g1590
sg75
(lp1602
S':'
asbag68
(g89
g70
NtRp1603
(dp1604
g73
(dp1605
sg82
g1590
sg75
(lp1606
g68
(g69
g70
NtRp1607
(dp1608
g73
(dp1609
g81
I4
ssg82
g1603
sg75
(lp1610
S'POST'
p1611
asbasbasbag68
(g84
g70
NtRp1612
(dp1613
g73
(dp1614
sg82
g1018
sg75
(lp1615
g68
(g89
g70
NtRp1616
(dp1617
g73
(dp1618
g93
g94
ssg82
g1612
sg75
(lp1619
S'script_name'
p1620
asbag68
(g89
g70
NtRp1621
(dp1622
g73
(dp1623
g100
g101
ssg82
g1612
sg75
(lp1624
S':'
asbag68
(g89
g70
NtRp1625
(dp1626
g73
(dp1627
sg82
g1612
sg75
(lp1628
g68
(g69
g70
NtRp1629
(dp1630
g73
(dp1631
g81
I4
ssg82
g1625
sg75
(lp1632
S''
asbasbasbag68
(g84
g70
NtRp1633
(dp1634
g73
(dp1635
sg82
g1018
sg75
(lp1636
g68
(g89
g70
NtRp1637
(dp1638
g73
(dp1639
g93
g94
ssg82
g1633
sg75
(lp1640
S'server_name'
p1641
asbag68
(g89
g70
NtRp1642
(dp1643
g73
(dp1644
g100
g101
ssg82
g1633
sg75
(lp1645
S':'
asbag68
(g89
g70
NtRp1646
(dp1647
g73
(dp1648
sg82
g1633
sg75
(lp1649
g68
(g69
g70
NtRp1650
(dp1651
g73
(dp1652
g81
I4
ssg82
g1646
sg75
(lp1653
S'declic-pc'
p1654
asbasbasbag68
(g84
g70
NtRp1655
(dp1656
g73
(dp1657
sg82
g1018
sg75
(lp1658
g68
(g89
g70
NtRp1659
(dp1660
g73
(dp1661
g93
g94
ssg82
g1655
sg75
(lp1662
S'server_port'
p1663
asbag68
(g89
g70
NtRp1664
(dp1665
g73
(dp1666
g100
g101
ssg82
g1655
sg75
(lp1667
S':'
asbag68
(g89
g70
NtRp1668
(dp1669
g73
(dp1670
sg82
g1655
sg75
(lp1671
g68
(g69
g70
NtRp1672
(dp1673
g73
(dp1674
g81
I4
ssg82
g1668
sg75
(lp1675
S'8000'
p1676
asbasbasbag68
(g84
g70
NtRp1677
(dp1678
g73
(dp1679
sg82
g1018
sg75
(lp1680
g68
(g89
g70
NtRp1681
(dp1682
g73
(dp1683
g93
g94
ssg82
g1677
sg75
(lp1684
S'server_protocol'
p1685
asbag68
(g89
g70
NtRp1686
(dp1687
g73
(dp1688
g100
g101
ssg82
g1677
sg75
(lp1689
S':'
asbag68
(g89
g70
NtRp1690
(dp1691
g73
(dp1692
sg82
g1677
sg75
(lp1693
g68
(g69
g70
NtRp1694
(dp1695
g73
(dp1696
g81
I4
ssg82
g1690
sg75
(lp1697
S'HTTP/1.1'
p1698
asbasbasbag68
(g84
g70
NtRp1699
(dp1700
g73
(dp1701
sg82
g1018
sg75
(lp1702
g68
(g89
g70
NtRp1703
(dp1704
g73
(dp1705
g93
g94
ssg82
g1699
sg75
(lp1706
S'server_software'
p1707
asbag68
(g89
g70
NtRp1708
(dp1709
g73
(dp1710
g100
g101
ssg82
g1699
sg75
(lp1711
S':'
asbag68
(g89
g70
NtRp1712
(dp1713
g73
(dp1714
sg82
g1699
sg75
(lp1715
g68
(g69
g70
NtRp1716
(dp1717
g73
(dp1718
g81
I4
ssg82
g1712
sg75
(lp1719
S'Rocket 1.2.4'
p1720
asbasbasbag68
(g84
g70
NtRp1721
(dp1722
g73
(dp1723
sg82
g1018
sg75
(lp1724
g68
(g89
g70
NtRp1725
(dp1726
g73
(dp1727
g93
g94
ssg82
g1721
sg75
(lp1728
S'web2py_crontype'
p1729
asbag68
(g89
g70
NtRp1730
(dp1731
g73
(dp1732
g100
g101
ssg82
g1721
sg75
(lp1733
S':'
asbag68
(g89
g70
NtRp1734
(dp1735
g73
(dp1736
sg82
g1721
sg75
(lp1737
g68
(g69
g70
NtRp1738
(dp1739
g73
(dp1740
g81
I4
ssg82
g1734
sg75
(lp1741
S'hard'
p1742
asbasbasbag68
(g84
g70
NtRp1743
(dp1744
g73
(dp1745
sg82
g1018
sg75
(lp1746
g68
(g89
g70
NtRp1747
(dp1748
g73
(dp1749
g93
g94
ssg82
g1743
sg75
(lp1750
S'web2py_path'
p1751
asbag68
(g89
g70
NtRp1752
(dp1753
g73
(dp1754
g100
g101
ssg82
g1743
sg75
(lp1755
S':'
asbag68
(g89
g70
NtRp1756
(dp1757
g73
(dp1758
sg82
g1743
sg75
(lp1759
g68
(g69
g70
NtRp1760
(dp1761
g73
(dp1762
g81
I4
ssg82
g1756
sg75
(lp1763
g1065
asbasbasbag68
(g84
g70
NtRp1764
(dp1765
g73
(dp1766
sg82
g1018
sg75
(lp1767
g68
(g89
g70
NtRp1768
(dp1769
g73
(dp1770
g93
g94
ssg82
g1764
sg75
(lp1771
S'web2py_version'
p1772
asbag68
(g89
g70
NtRp1773
(dp1774
g73
(dp1775
g100
g101
ssg82
g1764
sg75
(lp1776
S':'
asbag68
(g89
g70
NtRp1777
(dp1778
g73
(dp1779
sg82
g1764
sg75
(lp1780
g68
(g69
g70
NtRp1781
(dp1782
g73
(dp1783
g81
I4
ssg82
g1777
sg75
(lp1784
g68
(g77
g70
NtRp1785
(dp1786
g73
(dp1787
g81
I3
ssg82
Nsg75
(lp1788
g68
(g84
g70
NtRp1789
(dp1790
g73
(dp1791
sg82
g1785
sg75
(lp1792
g68
(g89
g70
NtRp1793
(dp1794
g73
(dp1795
sg82
g1789
sg75
(lp1796
g68
(g69
g70
NtRp1797
(dp1798
g73
(dp1799
g81
I3
ssg82
g1793
sg75
(lp1800
S'1'
asbasbasbag68
(g84
g70
NtRp1801
(dp1802
g73
(dp1803
sg82
g1785
sg75
(lp1804
g68
(g89
g70
NtRp1805
(dp1806
g73
(dp1807
sg82
g1801
sg75
(lp1808
g68
(g69
g70
NtRp1809
(dp1810
g73
(dp1811
g81
I3
ssg82
g1805
sg75
(lp1812
S'99'
p1813
asbasbasbag68
(g84
g70
NtRp1814
(dp1815
g73
(dp1816
sg82
g1785
sg75
(lp1817
g68
(g89
g70
NtRp1818
(dp1819
g73
(dp1820
sg82
g1814
sg75
(lp1821
g68
(g69
g70
NtRp1822
(dp1823
g73
(dp1824
g81
I3
ssg82
g1818
sg75
(lp1825
S'7'
asbasbasbag68
(g84
g70
NtRp1826
(dp1827
g73
(dp1828
sg82
g1785
sg75
(lp1829
g68
(g89
g70
NtRp1830
(dp1831
g73
(dp1832
sg82
g1826
sg75
(lp1833
g68
(g69
g70
NtRp1834
(dp1835
g73
(dp1836
g81
I3
ssg82
g1830
sg75
(lp1837
S'datetime.datetime(2012, 3, 4, 22, 12, 8)'
p1838
asbasbasbag68
(g84
g70
NtRp1839
(dp1840
g73
(dp1841
sg82
g1785
sg75
(lp1842
g68
(g89
g70
NtRp1843
(dp1844
g73
(dp1845
sg82
g1839
sg75
(lp1846
g68
(g69
g70
NtRp1847
(dp1848
g73
(dp1849
g81
I3
ssg82
g1843
sg75
(lp1850
S'stable'
p1851
asbasbasbasbasbasbasbag68
(g84
g70
NtRp1852
(dp1853
g73
(dp1854
sg82
g1018
sg75
(lp1855
g68
(g89
g70
NtRp1856
(dp1857
g73
(dp1858
g93
g94
ssg82
g1852
sg75
(lp1859
S'wsgi_errors'
p1860
asbag68
(g89
g70
NtRp1861
(dp1862
g73
(dp1863
g100
g101
ssg82
g1852
sg75
(lp1864
S':'
asbag68
(g89
g70
NtRp1865
(dp1866
g73
(dp1867
sg82
g1852
sg75
(lp1868
g68
(g69
g70
NtRp1869
(dp1870
g73
(dp1871
g81
I4
ssg82
g1865
sg75
(lp1872
S"<open file '<stderr>', mode 'w' at 0x7f49ef740270>"
p1873
asbasbasbag68
(g84
g70
NtRp1874
(dp1875
g73
(dp1876
sg82
g1018
sg75
(lp1877
g68
(g89
g70
NtRp1878
(dp1879
g73
(dp1880
g93
g94
ssg82
g1874
sg75
(lp1881
S'wsgi_file_wrapper'
p1882
asbag68
(g89
g70
NtRp1883
(dp1884
g73
(dp1885
g100
g101
ssg82
g1874
sg75
(lp1886
S':'
asbag68
(g89
g70
NtRp1887
(dp1888
g73
(dp1889
sg82
g1874
sg75
(lp1890
g68
(g69
g70
NtRp1891
(dp1892
g73
(dp1893
g81
I4
ssg82
g1887
sg75
(lp1894
S'<class wsgiref.util.FileWrapper at 0x2e896d0>'
p1895
asbasbasbag68
(g84
g70
NtRp1896
(dp1897
g73
(dp1898
sg82
g1018
sg75
(lp1899
g68
(g89
g70
NtRp1900
(dp1901
g73
(dp1902
g93
g94
ssg82
g1896
sg75
(lp1903
S'wsgi_input'
p1904
asbag68
(g89
g70
NtRp1905
(dp1906
g73
(dp1907
g100
g101
ssg82
g1896
sg75
(lp1908
S':'
asbag68
(g89
g70
NtRp1909
(dp1910
g73
(dp1911
sg82
g1896
sg75
(lp1912
g68
(g69
g70
NtRp1913
(dp1914
g73
(dp1915
g81
I4
ssg82
g1909
sg75
(lp1916
S'<socket._fileobject object at 0x7f49e037b350>'
p1917
asbasbasbag68
(g84
g70
NtRp1918
(dp1919
g73
(dp1920
sg82
g1018
sg75
(lp1921
g68
(g89
g70
NtRp1922
(dp1923
g73
(dp1924
g93
g94
ssg82
g1918
sg75
(lp1925
S'wsgi_multiprocess'
p1926
asbag68
(g89
g70
NtRp1927
(dp1928
g73
(dp1929
g100
g101
ssg82
g1918
sg75
(lp1930
S':'
asbag68
(g89
g70
NtRp1931
(dp1932
g73
(dp1933
sg82
g1918
sg75
(lp1934
g68
(g69
g70
NtRp1935
(dp1936
g73
(dp1937
g81
I4
ssg82
g1931
sg75
(lp1938
g111
asbasbasbag68
(g84
g70
NtRp1939
(dp1940
g73
(dp1941
sg82
g1018
sg75
(lp1942
g68
(g89
g70
NtRp1943
(dp1944
g73
(dp1945
g93
g94
ssg82
g1939
sg75
(lp1946
S'wsgi_multithread'
p1947
asbag68
(g89
g70
NtRp1948
(dp1949
g73
(dp1950
g100
g101
ssg82
g1939
sg75
(lp1951
S':'
asbag68
(g89
g70
NtRp1952
(dp1953
g73
(dp1954
sg82
g1939
sg75
(lp1955
g68
(g69
g70
NtRp1956
(dp1957
g73
(dp1958
g81
I4
ssg82
g1952
sg75
(lp1959
S'True'
p1960
asbasbasbag68
(g84
g70
NtRp1961
(dp1962
g73
(dp1963
sg82
g1018
sg75
(lp1964
g68
(g89
g70
NtRp1965
(dp1966
g73
(dp1967
g93
g94
ssg82
g1961
sg75
(lp1968
S'wsgi_run_once'
p1969
asbag68
(g89
g70
NtRp1970
(dp1971
g73
(dp1972
g100
g101
ssg82
g1961
sg75
(lp1973
S':'
asbag68
(g89
g70
NtRp1974
(dp1975
g73
(dp1976
sg82
g1961
sg75
(lp1977
g68
(g69
g70
NtRp1978
(dp1979
g73
(dp1980
g81
I4
ssg82
g1974
sg75
(lp1981
g111
asbasbasbag68
(g84
g70
NtRp1982
(dp1983
g73
(dp1984
sg82
g1018
sg75
(lp1985
g68
(g89
g70
NtRp1986
(dp1987
g73
(dp1988
g93
g94
ssg82
g1982
sg75
(lp1989
S'wsgi_url_scheme'
p1990
asbag68
(g89
g70
NtRp1991
(dp1992
g73
(dp1993
g100
g101
ssg82
g1982
sg75
(lp1994
S':'
asbag68
(g89
g70
NtRp1995
(dp1996
g73
(dp1997
sg82
g1982
sg75
(lp1998
g68
(g69
g70
NtRp1999
(dp2000
g73
(dp2001
g81
I4
ssg82
g1995
sg75
(lp2002
S'http'
p2003
asbasbasbag68
(g84
g70
NtRp2004
(dp2005
g73
(dp2006
sg82
g1018
sg75
(lp2007
g68
(g89
g70
NtRp2008
(dp2009
g73
(dp2010
g93
g94
ssg82
g2004
sg75
(lp2011
S'wsgi_version'
p2012
asbag68
(g89
g70
NtRp2013
(dp2014
g73
(dp2015
g100
g101
ssg82
g2004
sg75
(lp2016
S':'
asbag68
(g89
g70
NtRp2017
(dp2018
g73
(dp2019
sg82
g2004
sg75
(lp2020
g68
(g69
g70
NtRp2021
(dp2022
g73
(dp2023
g81
I4
ssg82
g2017
sg75
(lp2024
g68
(g77
g70
NtRp2025
(dp2026
g73
(dp2027
g81
I3
ssg82
Nsg75
(lp2028
g68
(g84
g70
NtRp2029
(dp2030
g73
(dp2031
sg82
g2025
sg75
(lp2032
g68
(g89
g70
NtRp2033
(dp2034
g73
(dp2035
sg82
g2029
sg75
(lp2036
g68
(g69
g70
NtRp2037
(dp2038
g73
(dp2039
g81
I3
ssg82
g2033
sg75
(lp2040
S'1'
asbasbasbag68
(g84
g70
NtRp2041
(dp2042
g73
(dp2043
sg82
g2025
sg75
(lp2044
g68
(g89
g70
NtRp2045
(dp2046
g73
(dp2047
sg82
g2041
sg75
(lp2048
g68
(g69
g70
NtRp2049
(dp2050
g73
(dp2051
g81
I3
ssg82
g2045
sg75
(lp2052
S'0'
asbasbasbasbasbasbasbasbasbasbasbag68
(g84
g70
NtRp2053
(dp2054
g73
(dp2055
sg82
g78
sg75
(lp2056
g68
(g89
g70
NtRp2057
(dp2058
g73
(dp2059
g93
g94
ssg82
g2053
sg75
(lp2060
S'extension'
p2061
asbag68
(g89
g70
NtRp2062
(dp2063
g73
(dp2064
g100
g101
ssg82
g2053
sg75
(lp2065
S':'
asbag68
(g89
g70
NtRp2066
(dp2067
g73
(dp2068
sg82
g2053
sg75
(lp2069
g68
(g69
g70
NtRp2070
(dp2071
g73
(dp2072
g81
I5
ssg82
g2066
sg75
(lp2073
S'html'
p2074
asbasbasbag68
(g84
g70
NtRp2075
(dp2076
g73
(dp2077
sg82
g78
sg75
(lp2078
g68
(g89
g70
NtRp2079
(dp2080
g73
(dp2081
g93
g94
ssg82
g2075
sg75
(lp2082
S'folder'
p2083
asbag68
(g89
g70
NtRp2084
(dp2085
g73
(dp2086
g100
g101
ssg82
g2075
sg75
(lp2087
S':'
asbag68
(g89
g70
NtRp2088
(dp2089
g73
(dp2090
sg82
g2075
sg75
(lp2091
g68
(g69
g70
NtRp2092
(dp2093
g73
(dp2094
g81
I5
ssg82
g2088
sg75
(lp2095
S'/web2py/applications/snapcop2_web2py/'
p2096
asbasbasbag68
(g84
g70
NtRp2097
(dp2098
g73
(dp2099
sg82
g78
sg75
(lp2100
g68
(g89
g70
NtRp2101
(dp2102
g73
(dp2103
g93
g94
ssg82
g2097
sg75
(lp2104
S'function'
p2105
asbag68
(g89
g70
NtRp2106
(dp2107
g73
(dp2108
g100
g101
ssg82
g2097
sg75
(lp2109
S':'
asbag68
(g89
g70
NtRp2110
(dp2111
g73
(dp2112
sg82
g2097
sg75
(lp2113
g68
(g69
g70
NtRp2114
(dp2115
g73
(dp2116
g81
I5
ssg82
g2110
sg75
(lp2117
S'first'
p2118
asbasbasbag68
(g84
g70
NtRp2119
(dp2120
g73
(dp2121
sg82
g78
sg75
(lp2122
g68
(g89
g70
NtRp2123
(dp2124
g73
(dp2125
g93
g94
ssg82
g2119
sg75
(lp2126
S'get_vars'
p2127
asbag68
(g89
g70
NtRp2128
(dp2129
g73
(dp2130
g100
g101
ssg82
g2119
sg75
(lp2131
S':'
asbag68
(g89
g70
NtRp2132
(dp2133
g73
(dp2134
sg82
g2119
sg75
(lp2135
g68
(g69
g70
NtRp2136
(dp2137
g73
(dp2138
g81
I5
ssg82
g2132
sg75
(lp2139
g68
(g77
g70
NtRp2140
(dp2141
g73
(dp2142
g81
I4
ssg82
Nsg75
(lp2143
sbasbasbasbag68
(g84
g70
NtRp2144
(dp2145
g73
(dp2146
sg82
g78
sg75
(lp2147
g68
(g89
g70
NtRp2148
(dp2149
g73
(dp2150
g93
g94
ssg82
g2144
sg75
(lp2151
S'global_settings'
p2152
asbag68
(g89
g70
NtRp2153
(dp2154
g73
(dp2155
g100
g101
ssg82
g2144
sg75
(lp2156
S':'
asbag68
(g89
g70
NtRp2157
(dp2158
g73
(dp2159
sg82
g2144
sg75
(lp2160
g68
(g69
g70
NtRp2161
(dp2162
g73
(dp2163
g81
I5
ssg82
g2157
sg75
(lp2164
g68
(g77
g70
NtRp2165
(dp2166
g73
(dp2167
g81
I4
ssg82
Nsg75
(lp2168
g68
(g84
g70
NtRp2169
(dp2170
g73
(dp2171
sg82
g2165
sg75
(lp2172
g68
(g89
g70
NtRp2173
(dp2174
g73
(dp2175
g93
g94
ssg82
g2169
sg75
(lp2176
g1030
asbag68
(g89
g70
NtRp2177
(dp2178
g73
(dp2179
g100
g101
ssg82
g2169
sg75
(lp2180
S':'
asbag68
(g89
g70
NtRp2181
(dp2182
g73
(dp2183
sg82
g2169
sg75
(lp2184
g68
(g69
g70
NtRp2185
(dp2186
g73
(dp2187
g81
I4
ssg82
g2181
sg75
(lp2188
S"set(['/web2py/applications/admin/', '/web2py/applications/welcome/', '/web2py/applications/snapcop2_web2py/', '/web2py/applications/snapcop2/'])"
p2189
asbasbasbag68
(g84
g70
NtRp2190
(dp2191
g73
(dp2192
sg82
g2165
sg75
(lp2193
g68
(g89
g70
NtRp2194
(dp2195
g73
(dp2196
g93
g94
ssg82
g2190
sg75
(lp2197
g1052
asbag68
(g89
g70
NtRp2198
(dp2199
g73
(dp2200
g100
g101
ssg82
g2190
sg75
(lp2201
S':'
asbag68
(g89
g70
NtRp2202
(dp2203
g73
(dp2204
sg82
g2190
sg75
(lp2205
g68
(g69
g70
NtRp2206
(dp2207
g73
(dp2208
g81
I4
ssg82
g2202
sg75
(lp2209
g1065
asbasbasbag68
(g84
g70
NtRp2210
(dp2211
g73
(dp2212
sg82
g2165
sg75
(lp2213
g68
(g89
g70
NtRp2214
(dp2215
g73
(dp2216
g93
g94
ssg82
g2210
sg75
(lp2217
g1074
asbag68
(g89
g70
NtRp2218
(dp2219
g73
(dp2220
g100
g101
ssg82
g2210
sg75
(lp2221
S':'
asbag68
(g89
g70
NtRp2222
(dp2223
g73
(dp2224
sg82
g2210
sg75
(lp2225
g68
(g69
g70
NtRp2226
(dp2227
g73
(dp2228
g81
I4
ssg82
g2222
sg75
(lp2229
g68
(g77
g70
NtRp2230
(dp2231
g73
(dp2232
g81
I3
ssg82
Nsg75
(lp2233
sbasbasbasbag68
(g84
g70
NtRp2234
(dp2235
g73
(dp2236
sg82
g2165
sg75
(lp2237
g68
(g89
g70
NtRp2238
(dp2239
g73
(dp2240
g93
g94
ssg82
g2234
sg75
(lp2241
g1099
asbag68
(g89
g70
NtRp2242
(dp2243
g73
(dp2244
g100
g101
ssg82
g2234
sg75
(lp2245
S':'
asbag68
(g89
g70
NtRp2246
(dp2247
g73
(dp2248
sg82
g2234
sg75
(lp2249
g68
(g69
g70
NtRp2250
(dp2251
g73
(dp2252
g81
I4
ssg82
g2246
sg75
(lp2253
S"<Values at 0x2f62680: {'verbose': False, 'ip': '127.0.0.1', 'shutdown_timeout': 5, 'taskbar': False, 'nocron': False, 'pid_filename': 'httpserver.pid', 'maxthreads': None, 'softcron': False, 'server_name': 'declic-pc', 'bpython': False, 'nogui': False, 'port': 8000, 'extcron': False, 'debuglevel': 30, 'test': None, 'folder': '/web2py', 'config': '', 'import_models': False, 'winservice': '', 'shell': None, 'run': '', 'log_filename': 'httpserver.log', 'args': [''], 'socket_timeout': 5, 'ssl_ca_certificate': None, 'scheduler': None, 'profiler_filename': None, 'ssl_private_key': '', 'password': 'photos10', 'request_queue_size': 5, 'ssl_certificate': '', 'cronjob': False, 'numthreads': None, 'quiet': False, 'interfaces': None, 'minthreads': None, 'timeout': 10, 'plain': False, 'nobanner': False}>"
p2254
asbasbasbag68
(g84
g70
NtRp2255
(dp2256
g73
(dp2257
sg82
g2165
sg75
(lp2258
g68
(g89
g70
NtRp2259
(dp2260
g73
(dp2261
g93
g94
ssg82
g2255
sg75
(lp2262
g1165
asbag68
(g89
g70
NtRp2263
(dp2264
g73
(dp2265
g100
g101
ssg82
g2255
sg75
(lp2266
S':'
asbag68
(g89
g70
NtRp2267
(dp2268
g73
(dp2269
sg82
g2255
sg75
(lp2270
g68
(g69
g70
NtRp2271
(dp2272
g73
(dp2273
g81
I4
ssg82
g2267
sg75
(lp2274
S'set([])'
p2275
asbasbasbag68
(g84
g70
NtRp2276
(dp2277
g73
(dp2278
sg82
g2165
sg75
(lp2279
g68
(g89
g70
NtRp2280
(dp2281
g73
(dp2282
g93
g94
ssg82
g2276
sg75
(lp2283
g1187
asbag68
(g89
g70
NtRp2284
(dp2285
g73
(dp2286
g100
g101
ssg82
g2276
sg75
(lp2287
S':'
asbag68
(g89
g70
NtRp2288
(dp2289
g73
(dp2290
sg82
g2276
sg75
(lp2291
g68
(g69
g70
NtRp2292
(dp2293
g73
(dp2294
g81
I4
ssg82
g2288
sg75
(lp2295
g111
asbasbasbag68
(g84
g70
NtRp2296
(dp2297
g73
(dp2298
sg82
g2165
sg75
(lp2299
g68
(g89
g70
NtRp2300
(dp2301
g73
(dp2302
g93
g94
ssg82
g2296
sg75
(lp2303
g1208
asbag68
(g89
g70
NtRp2304
(dp2305
g73
(dp2306
g100
g101
ssg82
g2296
sg75
(lp2307
S':'
asbag68
(g89
g70
NtRp2308
(dp2309
g73
(dp2310
sg82
g2296
sg75
(lp2311
g68
(g69
g70
NtRp2312
(dp2313
g73
(dp2314
g81
I4
ssg82
g2308
sg75
(lp2315
g1221
asbasbasbag68
(g84
g70
NtRp2316
(dp2317
g73
(dp2318
sg82
g2165
sg75
(lp2319
g68
(g89
g70
NtRp2320
(dp2321
g73
(dp2322
g93
g94
ssg82
g2316
sg75
(lp2323
g1470
asbag68
(g89
g70
NtRp2324
(dp2325
g73
(dp2326
g100
g101
ssg82
g2316
sg75
(lp2327
S':'
asbag68
(g89
g70
NtRp2328
(dp2329
g73
(dp2330
sg82
g2316
sg75
(lp2331
g68
(g69
g70
NtRp2332
(dp2333
g73
(dp2334
g81
I4
ssg82
g2328
sg75
(lp2335
g111
asbasbasbag68
(g84
g70
NtRp2336
(dp2337
g73
(dp2338
sg82
g2165
sg75
(lp2339
g68
(g89
g70
NtRp2340
(dp2341
g73
(dp2342
g93
g94
ssg82
g2336
sg75
(lp2343
g1491
asbag68
(g89
g70
NtRp2344
(dp2345
g73
(dp2346
g100
g101
ssg82
g2336
sg75
(lp2347
S':'
asbag68
(g89
g70
NtRp2348
(dp2349
g73
(dp2350
sg82
g2336
sg75
(lp2351
g68
(g69
g70
NtRp2352
(dp2353
g73
(dp2354
g81
I4
ssg82
g2348
sg75
(lp2355
g111
asbasbasbag68
(g84
g70
NtRp2356
(dp2357
g73
(dp2358
sg82
g2165
sg75
(lp2359
g68
(g89
g70
NtRp2360
(dp2361
g73
(dp2362
g93
g94
ssg82
g2356
sg75
(lp2363
g1729
asbag68
(g89
g70
NtRp2364
(dp2365
g73
(dp2366
g100
g101
ssg82
g2356
sg75
(lp2367
S':'
asbag68
(g89
g70
NtRp2368
(dp2369
g73
(dp2370
sg82
g2356
sg75
(lp2371
g68
(g69
g70
NtRp2372
(dp2373
g73
(dp2374
g81
I4
ssg82
g2368
sg75
(lp2375
g1742
asbasbasbag68
(g84
g70
NtRp2376
(dp2377
g73
(dp2378
sg82
g2165
sg75
(lp2379
g68
(g89
g70
NtRp2380
(dp2381
g73
(dp2382
g93
g94
ssg82
g2376
sg75
(lp2383
g1772
asbag68
(g89
g70
NtRp2384
(dp2385
g73
(dp2386
g100
g101
ssg82
g2376
sg75
(lp2387
S':'
asbag68
(g89
g70
NtRp2388
(dp2389
g73
(dp2390
sg82
g2376
sg75
(lp2391
g68
(g69
g70
NtRp2392
(dp2393
g73
(dp2394
g81
I4
ssg82
g2388
sg75
(lp2395
g68
(g77
g70
NtRp2396
(dp2397
g73
(dp2398
g81
I3
ssg82
Nsg75
(lp2399
g68
(g84
g70
NtRp2400
(dp2401
g73
(dp2402
sg82
g2396
sg75
(lp2403
g68
(g89
g70
NtRp2404
(dp2405
g73
(dp2406
sg82
g2400
sg75
(lp2407
g68
(g69
g70
NtRp2408
(dp2409
g73
(dp2410
g81
I3
ssg82
g2404
sg75
(lp2411
S'1'
asbasbasbag68
(g84
g70
NtRp2412
(dp2413
g73
(dp2414
sg82
g2396
sg75
(lp2415
g68
(g89
g70
NtRp2416
(dp2417
g73
(dp2418
sg82
g2412
sg75
(lp2419
g68
(g69
g70
NtRp2420
(dp2421
g73
(dp2422
g81
I3
ssg82
g2416
sg75
(lp2423
S'99'
p2424
asbasbasbag68
(g84
g70
NtRp2425
(dp2426
g73
(dp2427
sg82
g2396
sg75
(lp2428
g68
(g89
g70
NtRp2429
(dp2430
g73
(dp2431
sg82
g2425
sg75
(lp2432
g68
(g69
g70
NtRp2433
(dp2434
g73
(dp2435
g81
I3
ssg82
g2429
sg75
(lp2436
S'7'
asbasbasbag68
(g84
g70
NtRp2437
(dp2438
g73
(dp2439
sg82
g2396
sg75
(lp2440
g68
(g89
g70
NtRp2441
(dp2442
g73
(dp2443
sg82
g2437
sg75
(lp2444
g68
(g69
g70
NtRp2445
(dp2446
g73
(dp2447
g81
I3
ssg82
g2441
sg75
(lp2448
S'datetime.datetime(2012, 3, 4, 22, 12, 8)'
p2449
asbasbasbag68
(g84
g70
NtRp2450
(dp2451
g73
(dp2452
sg82
g2396
sg75
(lp2453
g68
(g89
g70
NtRp2454
(dp2455
g73
(dp2456
sg82
g2450
sg75
(lp2457
g68
(g69
g70
NtRp2458
(dp2459
g73
(dp2460
g81
I3
ssg82
g2454
sg75
(lp2461
g1851
asbasbasbasbasbasbasbasbasbasbasbag68
(g84
g70
NtRp2462
(dp2463
g73
(dp2464
sg82
g78
sg75
(lp2465
g68
(g89
g70
NtRp2466
(dp2467
g73
(dp2468
g93
g94
ssg82
g2462
sg75
(lp2469
S'is_https'
p2470
asbag68
(g89
g70
NtRp2471
(dp2472
g73
(dp2473
g100
g101
ssg82
g2462
sg75
(lp2474
S':'
asbag68
(g89
g70
NtRp2475
(dp2476
g73
(dp2477
sg82
g2462
sg75
(lp2478
g68
(g69
g70
NtRp2479
(dp2480
g73
(dp2481
g81
I5
ssg82
g2475
sg75
(lp2482
g111
asbasbasbag68
(g84
g70
NtRp2483
(dp2484
g73
(dp2485
sg82
g78
sg75
(lp2486
g68
(g89
g70
NtRp2487
(dp2488
g73
(dp2489
g93
g94
ssg82
g2483
sg75
(lp2490
S'is_local'
p2491
asbag68
(g89
g70
NtRp2492
(dp2493
g73
(dp2494
g100
g101
ssg82
g2483
sg75
(lp2495
S':'
asbag68
(g89
g70
NtRp2496
(dp2497
g73
(dp2498
sg82
g2483
sg75
(lp2499
g68
(g69
g70
NtRp2500
(dp2501
g73
(dp2502
g81
I5
ssg82
g2496
sg75
(lp2503
g1960
asbasbasbag68
(g84
g70
NtRp2504
(dp2505
g73
(dp2506
sg82
g78
sg75
(lp2507
g68
(g89
g70
NtRp2508
(dp2509
g73
(dp2510
g93
g94
ssg82
g2504
sg75
(lp2511
S'is_restful'
p2512
asbag68
(g89
g70
NtRp2513
(dp2514
g73
(dp2515
g100
g101
ssg82
g2504
sg75
(lp2516
S':'
asbag68
(g89
g70
NtRp2517
(dp2518
g73
(dp2519
sg82
g2504
sg75
(lp2520
g68
(g69
g70
NtRp2521
(dp2522
g73
(dp2523
g81
I5
ssg82
g2517
sg75
(lp2524
g111
asbasbasbag68
(g84
g70
NtRp2525
(dp2526
g73
(dp2527
sg82
g78
sg75
(lp2528
g68
(g89
g70
NtRp2529
(dp2530
g73
(dp2531
g93
g94
ssg82
g2525
sg75
(lp2532
S'now'
p2533
asbag68
(g89
g70
NtRp2534
(dp2535
g73
(dp2536
g100
g101
ssg82
g2525
sg75
(lp2537
S':'
asbag68
(g89
g70
NtRp2538
(dp2539
g73
(dp2540
sg82
g2525
sg75
(lp2541
g68
(g69
g70
NtRp2542
(dp2543
g73
(dp2544
g81
I5
ssg82
g2538
sg75
(lp2545
S'datetime.datetime(2012, 8, 24, 15, 58, 20, 13443)'
p2546
asbasbasbag68
(g84
g70
NtRp2547
(dp2548
g73
(dp2549
sg82
g78
sg75
(lp2550
g68
(g89
g70
NtRp2551
(dp2552
g73
(dp2553
g93
g94
ssg82
g2547
sg75
(lp2554
S'post_vars'
p2555
asbag68
(g89
g70
NtRp2556
(dp2557
g73
(dp2558
g100
g101
ssg82
g2547
sg75
(lp2559
S':'
asbag68
(g89
g70
NtRp2560
(dp2561
g73
(dp2562
sg82
g2547
sg75
(lp2563
g68
(g69
g70
NtRp2564
(dp2565
g73
(dp2566
g81
I5
ssg82
g2560
sg75
(lp2567
g68
(g77
g70
NtRp2568
(dp2569
g73
(dp2570
g81
I4
ssg82
Nsg75
(lp2571
g68
(g84
g70
NtRp2572
(dp2573
g73
(dp2574
sg82
g2568
sg75
(lp2575
g68
(g89
g70
NtRp2576
(dp2577
g73
(dp2578
g93
g94
ssg82
g2572
sg75
(lp2579
S'fermentation'
p2580
asbag68
(g89
g70
NtRp2581
(dp2582
g73
(dp2583
g100
g101
ssg82
g2572
sg75
(lp2584
S':'
asbag68
(g89
g70
NtRp2585
(dp2586
g73
(dp2587
sg82
g2572
sg75
(lp2588
g68
(g69
g70
NtRp2589
(dp2590
g73
(dp2591
g81
I4
ssg82
g2585
sg75
(lp2592
S'12'
p2593
asbasbasbag68
(g84
g70
NtRp2594
(dp2595
g73
(dp2596
sg82
g2568
sg75
(lp2597
g68
(g89
g70
NtRp2598
(dp2599
g73
(dp2600
g93
g94
ssg82
g2594
sg75
(lp2601
S'profile'
p2602
asbag68
(g89
g70
NtRp2603
(dp2604
g73
(dp2605
g100
g101
ssg82
g2594
sg75
(lp2606
S':'
asbag68
(g89
g70
NtRp2607
(dp2608
g73
(dp2609
sg82
g2594
sg75
(lp2610
g68
(g69
g70
NtRp2611
(dp2612
g73
(dp2613
g81
I4
ssg82
g2607
sg75
(lp2614
S'Commentaire ici'
p2615
asbasbasbag68
(g84
g70
NtRp2616
(dp2617
g73
(dp2618
sg82
g2568
sg75
(lp2619
g68
(g89
g70
NtRp2620
(dp2621
g73
(dp2622
g93
g94
ssg82
g2616
sg75
(lp2623
S'souche'
p2624
asbag68
(g89
g70
NtRp2625
(dp2626
g73
(dp2627
g100
g101
ssg82
g2616
sg75
(lp2628
S':'
asbag68
(g89
g70
NtRp2629
(dp2630
g73
(dp2631
sg82
g2616
sg75
(lp2632
g68
(g69
g70
NtRp2633
(dp2634
g73
(dp2635
g81
I4
ssg82
g2629
sg75
(lp2636
S'azerty'
p2637
asbasbasbag68
(g84
g70
NtRp2638
(dp2639
g73
(dp2640
sg82
g2568
sg75
(lp2641
g68
(g89
g70
NtRp2642
(dp2643
g73
(dp2644
g93
g94
ssg82
g2638
sg75
(lp2645
S'substrat'
p2646
asbag68
(g89
g70
NtRp2647
(dp2648
g73
(dp2649
g100
g101
ssg82
g2638
sg75
(lp2650
S':'
asbag68
(g89
g70
NtRp2651
(dp2652
g73
(dp2653
sg82
g2638
sg75
(lp2654
g68
(g69
g70
NtRp2655
(dp2656
g73
(dp2657
g81
I4
ssg82
g2651
sg75
(lp2658
S'sdfgg'
p2659
asbasbasbasbasbasbasbag68
(g84
g70
NtRp2660
(dp2661
g73
(dp2662
sg82
g78
sg75
(lp2663
g68
(g89
g70
NtRp2664
(dp2665
g73
(dp2666
g93
g94
ssg82
g2660
sg75
(lp2667
S'url'
p2668
asbag68
(g89
g70
NtRp2669
(dp2670
g73
(dp2671
g100
g101
ssg82
g2660
sg75
(lp2672
S':'
asbag68
(g89
g70
NtRp2673
(dp2674
g73
(dp2675
sg82
g2660
sg75
(lp2676
g68
(g69
g70
NtRp2677
(dp2678
g73
(dp2679
g81
I5
ssg82
g2673
sg75
(lp2680
S'/snapcop2_web2py/form/first'
p2681
asbasbasbag68
(g84
g70
NtRp2682
(dp2683
g73
(dp2684
sg82
g78
sg75
(lp2685
g68
(g89
g70
NtRp2686
(dp2687
g73
(dp2688
g93
g94
ssg82
g2682
sg75
(lp2689
S'utcnow'
p2690
asbag68
(g89
g70
NtRp2691
(dp2692
g73
(dp2693
g100
g101
ssg82
g2682
sg75
(lp2694
S':'
asbag68
(g89
g70
NtRp2695
(dp2696
g73
(dp2697
sg82
g2682
sg75
(lp2698
g68
(g69
g70
NtRp2699
(dp2700
g73
(dp2701
g81
I5
ssg82
g2695
sg75
(lp2702
S'datetime.datetime(2012, 8, 24, 13, 58, 20, 13473)'
p2703
asbasbasbag68
(g84
g70
NtRp2704
(dp2705
g73
(dp2706
sg82
g78
sg75
(lp2707
g68
(g89
g70
NtRp2708
(dp2709
g73
(dp2710
g93
g94
ssg82
g2704
sg75
(lp2711
S'uuid'
p2712
asbag68
(g89
g70
NtRp2713
(dp2714
g73
(dp2715
g100
g101
ssg82
g2704
sg75
(lp2716
S':'
asbag68
(g89
g70
NtRp2717
(dp2718
g73
(dp2719
sg82
g2704
sg75
(lp2720
g68
(g69
g70
NtRp2721
(dp2722
g73
(dp2723
g81
I5
ssg82
g2717
sg75
(lp2724
S'snapcop2_web2py/127.0.0.1.2012-08-24.15-58-20.c596f262-39e9-409b-80af-1e092300e974'
p2725
asbasbasbag68
(g84
g70
NtRp2726
(dp2727
g73
(dp2728
sg82
g78
sg75
(lp2729
g68
(g89
g70
NtRp2730
(dp2731
g73
(dp2732
g93
g94
ssg82
g2726
sg75
(lp2733
S'vars'
p2734
asbag68
(g89
g70
NtRp2735
(dp2736
g73
(dp2737
g100
g101
ssg82
g2726
sg75
(lp2738
S':'
asbag68
(g89
g70
NtRp2739
(dp2740
g73
(dp2741
sg82
g2726
sg75
(lp2742
g68
(g69
g70
NtRp2743
(dp2744
g73
(dp2745
g81
I5
ssg82
g2739
sg75
(lp2746
g68
(g77
g70
NtRp2747
(dp2748
g73
(dp2749
g81
I4
ssg82
Nsg75
(lp2750
g68
(g84
g70
NtRp2751
(dp2752
g73
(dp2753
sg82
g2747
sg75
(lp2754
g68
(g89
g70
NtRp2755
(dp2756
g73
(dp2757
g93
g94
ssg82
g2751
sg75
(lp2758
g2580
asbag68
(g89
g70
NtRp2759
(dp2760
g73
(dp2761
g100
g101
ssg82
g2751
sg75
(lp2762
S':'
asbag68
(g89
g70
NtRp2763
(dp2764
g73
(dp2765
sg82
g2751
sg75
(lp2766
g68
(g69
g70
NtRp2767
(dp2768
g73
(dp2769
g81
I4
ssg82
g2763
sg75
(lp2770
g2593
asbasbasbag68
(g84
g70
NtRp2771
(dp2772
g73
(dp2773
sg82
g2747
sg75
(lp2774
g68
(g89
g70
NtRp2775
(dp2776
g73
(dp2777
g93
g94
ssg82
g2771
sg75
(lp2778
g2602
asbag68
(g89
g70
NtRp2779
(dp2780
g73
(dp2781
g100
g101
ssg82
g2771
sg75
(lp2782
S':'
asbag68
(g89
g70
NtRp2783
(dp2784
g73
(dp2785
sg82
g2771
sg75
(lp2786
g68
(g69
g70
NtRp2787
(dp2788
g73
(dp2789
g81
I4
ssg82
g2783
sg75
(lp2790
g2615
asbasbasbag68
(g84
g70
NtRp2791
(dp2792
g73
(dp2793
sg82
g2747
sg75
(lp2794
g68
(g89
g70
NtRp2795
(dp2796
g73
(dp2797
g93
g94
ssg82
g2791
sg75
(lp2798
g2624
asbag68
(g89
g70
NtRp2799
(dp2800
g73
(dp2801
g100
g101
ssg82
g2791
sg75
(lp2802
S':'
asbag68
(g89
g70
NtRp2803
(dp2804
g73
(dp2805
sg82
g2791
sg75
(lp2806
g68
(g69
g70
NtRp2807
(dp2808
g73
(dp2809
g81
I4
ssg82
g2803
sg75
(lp2810
g2637
asbasbasbag68
(g84
g70
NtRp2811
(dp2812
g73
(dp2813
sg82
g2747
sg75
(lp2814
g68
(g89
g70
NtRp2815
(dp2816
g73
(dp2817
g93
g94
ssg82
g2811
sg75
(lp2818
g2646
asbag68
(g89
g70
NtRp2819
(dp2820
g73
(dp2821
g100
g101
ssg82
g2811
sg75
(lp2822
S':'
asbag68
(g89
g70
NtRp2823
(dp2824
g73
(dp2825
sg82
g2811
sg75
(lp2826
g68
(g69
g70
NtRp2827
(dp2828
g73
(dp2829
g81
I4
ssg82
g2823
sg75
(lp2830
g2659
asbasbasbasbasbasbasbag68
(g84
g70
NtRp2831
(dp2832
g73
(dp2833
sg82
g78
sg75
(lp2834
g68
(g89
g70
NtRp2835
(dp2836
g73
(dp2837
g93
g94
ssg82
g2831
sg75
(lp2838
S'wsgi'
p2839
asbag68
(g89
g70
NtRp2840
(dp2841
g73
(dp2842
g100
g101
ssg82
g2831
sg75
(lp2843
S':'
asbag68
(g89
g70
NtRp2844
(dp2845
g73
(dp2846
sg82
g2831
sg75
(lp2847
g68
(g69
g70
NtRp2848
(dp2849
g73
(dp2850
g81
I5
ssg82
g2844
sg75
(lp2851
g68
(g77
g70
NtRp2852
(dp2853
g73
(dp2854
g81
I4
ssg82
Nsg75
(lp2855
g68
(g84
g70
NtRp2856
(dp2857
g73
(dp2858
sg82
g2852
sg75
(lp2859
g68
(g89
g70
NtRp2860
(dp2861
g73
(dp2862
g93
g94
ssg82
g2856
sg75
(lp2863
S'environ'
p2864
asbag68
(g89
g70
NtRp2865
(dp2866
g73
(dp2867
g100
g101
ssg82
g2856
sg75
(lp2868
S':'
asbag68
(g89
g70
NtRp2869
(dp2870
g73
(dp2871
sg82
g2856
sg75
(lp2872
g68
(g69
g70
NtRp2873
(dp2874
g73
(dp2875
g81
I4
ssg82
g2869
sg75
(lp2876
g68
(g77
g70
NtRp2877
(dp2878
g73
(dp2879
g81
I3
ssg82
Nsg75
(lp2880
g68
(g84
g70
NtRp2881
(dp2882
g73
(dp2883
sg82
g2877
sg75
(lp2884
g68
(g89
g70
NtRp2885
(dp2886
g73
(dp2887
g93
g94
ssg82
g2881
sg75
(lp2888
S'CONTENT_LENGTH'
p2889
asbag68
(g89
g70
NtRp2890
(dp2891
g73
(dp2892
g100
g101
ssg82
g2881
sg75
(lp2893
S':'
asbag68
(g89
g70
NtRp2894
(dp2895
g73
(dp2896
sg82
g2881
sg75
(lp2897
g68
(g69
g70
NtRp2898
(dp2899
g73
(dp2900
g81
I3
ssg82
g2894
sg75
(lp2901
g1134
asbasbasbag68
(g84
g70
NtRp2902
(dp2903
g73
(dp2904
sg82
g2877
sg75
(lp2905
g68
(g89
g70
NtRp2906
(dp2907
g73
(dp2908
g93
g94
ssg82
g2902
sg75
(lp2909
S'CONTENT_TYPE'
p2910
asbag68
(g89
g70
NtRp2911
(dp2912
g73
(dp2913
g100
g101
ssg82
g2902
sg75
(lp2914
S':'
asbag68
(g89
g70
NtRp2915
(dp2916
g73
(dp2917
sg82
g2902
sg75
(lp2918
g68
(g69
g70
NtRp2919
(dp2920
g73
(dp2921
g81
I3
ssg82
g2915
sg75
(lp2922
g1156
asbasbasbag68
(g84
g70
NtRp2923
(dp2924
g73
(dp2925
sg82
g2877
sg75
(lp2926
g68
(g89
g70
NtRp2927
(dp2928
g73
(dp2929
g93
g94
ssg82
g2923
sg75
(lp2930
S'HTTP_ACCEPT'
p2931
asbag68
(g89
g70
NtRp2932
(dp2933
g73
(dp2934
g100
g101
ssg82
g2923
sg75
(lp2935
S':'
asbag68
(g89
g70
NtRp2936
(dp2937
g73
(dp2938
sg82
g2923
sg75
(lp2939
g68
(g69
g70
NtRp2940
(dp2941
g73
(dp2942
g81
I3
ssg82
g2936
sg75
(lp2943
g1243
asbasbasbag68
(g84
g70
NtRp2944
(dp2945
g73
(dp2946
sg82
g2877
sg75
(lp2947
g68
(g89
g70
NtRp2948
(dp2949
g73
(dp2950
g93
g94
ssg82
g2944
sg75
(lp2951
S'HTTP_ACCEPT_ENCODING'
p2952
asbag68
(g89
g70
NtRp2953
(dp2954
g73
(dp2955
g100
g101
ssg82
g2944
sg75
(lp2956
S':'
asbag68
(g89
g70
NtRp2957
(dp2958
g73
(dp2959
sg82
g2944
sg75
(lp2960
g68
(g69
g70
NtRp2961
(dp2962
g73
(dp2963
g81
I3
ssg82
g2957
sg75
(lp2964
g1265
asbasbasbag68
(g84
g70
NtRp2965
(dp2966
g73
(dp2967
sg82
g2877
sg75
(lp2968
g68
(g89
g70
NtRp2969
(dp2970
g73
(dp2971
g93
g94
ssg82
g2965
sg75
(lp2972
S'HTTP_ACCEPT_LANGUAGE'
p2973
asbag68
(g89
g70
NtRp2974
(dp2975
g73
(dp2976
g100
g101
ssg82
g2965
sg75
(lp2977
S':'
asbag68
(g89
g70
NtRp2978
(dp2979
g73
(dp2980
sg82
g2965
sg75
(lp2981
g68
(g69
g70
NtRp2982
(dp2983
g73
(dp2984
g81
I3
ssg82
g2978
sg75
(lp2985
g1287
asbasbasbag68
(g84
g70
NtRp2986
(dp2987
g73
(dp2988
sg82
g2877
sg75
(lp2989
g68
(g89
g70
NtRp2990
(dp2991
g73
(dp2992
g93
g94
ssg82
g2986
sg75
(lp2993
S'HTTP_CACHE_CONTROL'
p2994
asbag68
(g89
g70
NtRp2995
(dp2996
g73
(dp2997
g100
g101
ssg82
g2986
sg75
(lp2998
S':'
asbag68
(g89
g70
NtRp2999
(dp3000
g73
(dp3001
sg82
g2986
sg75
(lp3002
g68
(g69
g70
NtRp3003
(dp3004
g73
(dp3005
g81
I3
ssg82
g2999
sg75
(lp3006
g1309
asbasbasbag68
(g84
g70
NtRp3007
(dp3008
g73
(dp3009
sg82
g2877
sg75
(lp3010
g68
(g89
g70
NtRp3011
(dp3012
g73
(dp3013
g93
g94
ssg82
g3007
sg75
(lp3014
S'HTTP_CONNECTION'
p3015
asbag68
(g89
g70
NtRp3016
(dp3017
g73
(dp3018
g100
g101
ssg82
g3007
sg75
(lp3019
S':'
asbag68
(g89
g70
NtRp3020
(dp3021
g73
(dp3022
sg82
g3007
sg75
(lp3023
g68
(g69
g70
NtRp3024
(dp3025
g73
(dp3026
g81
I3
ssg82
g3020
sg75
(lp3027
g1331
asbasbasbag68
(g84
g70
NtRp3028
(dp3029
g73
(dp3030
sg82
g2877
sg75
(lp3031
g68
(g89
g70
NtRp3032
(dp3033
g73
(dp3034
g93
g94
ssg82
g3028
sg75
(lp3035
S'HTTP_CONTENT_LENGTH'
p3036
asbag68
(g89
g70
NtRp3037
(dp3038
g73
(dp3039
g100
g101
ssg82
g3028
sg75
(lp3040
S':'
asbag68
(g89
g70
NtRp3041
(dp3042
g73
(dp3043
sg82
g3028
sg75
(lp3044
g68
(g69
g70
NtRp3045
(dp3046
g73
(dp3047
g81
I3
ssg82
g3041
sg75
(lp3048
g1134
asbasbasbag68
(g84
g70
NtRp3049
(dp3050
g73
(dp3051
sg82
g2877
sg75
(lp3052
g68
(g89
g70
NtRp3053
(dp3054
g73
(dp3055
g93
g94
ssg82
g3049
sg75
(lp3056
S'HTTP_CONTENT_TYPE'
p3057
asbag68
(g89
g70
NtRp3058
(dp3059
g73
(dp3060
g100
g101
ssg82
g3049
sg75
(lp3061
S':'
asbag68
(g89
g70
NtRp3062
(dp3063
g73
(dp3064
sg82
g3049
sg75
(lp3065
g68
(g69
g70
NtRp3066
(dp3067
g73
(dp3068
g81
I3
ssg82
g3062
sg75
(lp3069
g1156
asbasbasbag68
(g84
g70
NtRp3070
(dp3071
g73
(dp3072
sg82
g2877
sg75
(lp3073
g68
(g89
g70
NtRp3074
(dp3075
g73
(dp3076
g93
g94
ssg82
g3070
sg75
(lp3077
S'HTTP_COOKIE'
p3078
asbag68
(g89
g70
NtRp3079
(dp3080
g73
(dp3081
g100
g101
ssg82
g3070
sg75
(lp3082
S':'
asbag68
(g89
g70
NtRp3083
(dp3084
g73
(dp3085
sg82
g3070
sg75
(lp3086
g68
(g69
g70
NtRp3087
(dp3088
g73
(dp3089
g81
I3
ssg82
g3083
sg75
(lp3090
g1395
asbasbasbag68
(g84
g70
NtRp3091
(dp3092
g73
(dp3093
sg82
g2877
sg75
(lp3094
g68
(g89
g70
NtRp3095
(dp3096
g73
(dp3097
g93
g94
ssg82
g3091
sg75
(lp3098
S'HTTP_HOST'
p3099
asbag68
(g89
g70
NtRp3100
(dp3101
g73
(dp3102
g100
g101
ssg82
g3091
sg75
(lp3103
S':'
asbag68
(g89
g70
NtRp3104
(dp3105
g73
(dp3106
sg82
g3091
sg75
(lp3107
g68
(g69
g70
NtRp3108
(dp3109
g73
(dp3110
g81
I3
ssg82
g3104
sg75
(lp3111
g1417
asbasbasbag68
(g84
g70
NtRp3112
(dp3113
g73
(dp3114
sg82
g2877
sg75
(lp3115
g68
(g89
g70
NtRp3116
(dp3117
g73
(dp3118
g93
g94
ssg82
g3112
sg75
(lp3119
S'HTTP_REFERER'
p3120
asbag68
(g89
g70
NtRp3121
(dp3122
g73
(dp3123
g100
g101
ssg82
g3112
sg75
(lp3124
S':'
asbag68
(g89
g70
NtRp3125
(dp3126
g73
(dp3127
sg82
g3112
sg75
(lp3128
g68
(g69
g70
NtRp3129
(dp3130
g73
(dp3131
g81
I3
ssg82
g3125
sg75
(lp3132
g1439
asbasbasbag68
(g84
g70
NtRp3133
(dp3134
g73
(dp3135
sg82
g2877
sg75
(lp3136
g68
(g89
g70
NtRp3137
(dp3138
g73
(dp3139
g93
g94
ssg82
g3133
sg75
(lp3140
S'HTTP_USER_AGENT'
p3141
asbag68
(g89
g70
NtRp3142
(dp3143
g73
(dp3144
g100
g101
ssg82
g3133
sg75
(lp3145
S':'
asbag68
(g89
g70
NtRp3146
(dp3147
g73
(dp3148
sg82
g3133
sg75
(lp3149
g68
(g69
g70
NtRp3150
(dp3151
g73
(dp3152
g81
I3
ssg82
g3146
sg75
(lp3153
g1461
asbasbasbag68
(g84
g70
NtRp3154
(dp3155
g73
(dp3156
sg82
g2877
sg75
(lp3157
g68
(g89
g70
NtRp3158
(dp3159
g73
(dp3160
g93
g94
ssg82
g3154
sg75
(lp3161
S'PATH_INFO'
p3162
asbag68
(g89
g70
NtRp3163
(dp3164
g73
(dp3165
g100
g101
ssg82
g3154
sg75
(lp3166
S':'
asbag68
(g89
g70
NtRp3167
(dp3168
g73
(dp3169
sg82
g3154
sg75
(lp3170
g68
(g69
g70
NtRp3171
(dp3172
g73
(dp3173
g81
I3
ssg82
g3167
sg75
(lp3174
g1525
asbasbasbag68
(g84
g70
NtRp3175
(dp3176
g73
(dp3177
sg82
g2877
sg75
(lp3178
g68
(g89
g70
NtRp3179
(dp3180
g73
(dp3181
g93
g94
ssg82
g3175
sg75
(lp3182
S'QUERY_STRING'
p3183
asbag68
(g89
g70
NtRp3184
(dp3185
g73
(dp3186
g100
g101
ssg82
g3175
sg75
(lp3187
S':'
asbag68
(g89
g70
NtRp3188
(dp3189
g73
(dp3190
sg82
g3175
sg75
(lp3191
g68
(g69
g70
NtRp3192
(dp3193
g73
(dp3194
g81
I3
ssg82
g3188
sg75
(lp3195
S''
asbasbasbag68
(g84
g70
NtRp3196
(dp3197
g73
(dp3198
sg82
g2877
sg75
(lp3199
g68
(g89
g70
NtRp3200
(dp3201
g73
(dp3202
g93
g94
ssg82
g3196
sg75
(lp3203
S'REMOTE_ADDR'
p3204
asbag68
(g89
g70
NtRp3205
(dp3206
g73
(dp3207
g100
g101
ssg82
g3196
sg75
(lp3208
S':'
asbag68
(g89
g70
NtRp3209
(dp3210
g73
(dp3211
sg82
g3196
sg75
(lp3212
g68
(g69
g70
NtRp3213
(dp3214
g73
(dp3215
g81
I3
ssg82
g3209
sg75
(lp3216
g201
asbasbasbag68
(g84
g70
NtRp3217
(dp3218
g73
(dp3219
sg82
g2877
sg75
(lp3220
g68
(g89
g70
NtRp3221
(dp3222
g73
(dp3223
g93
g94
ssg82
g3217
sg75
(lp3224
S'REMOTE_PORT'
p3225
asbag68
(g89
g70
NtRp3226
(dp3227
g73
(dp3228
g100
g101
ssg82
g3217
sg75
(lp3229
S':'
asbag68
(g89
g70
NtRp3230
(dp3231
g73
(dp3232
sg82
g3217
sg75
(lp3233
g68
(g69
g70
NtRp3234
(dp3235
g73
(dp3236
g81
I3
ssg82
g3230
sg75
(lp3237
g1589
asbasbasbag68
(g84
g70
NtRp3238
(dp3239
g73
(dp3240
sg82
g2877
sg75
(lp3241
g68
(g89
g70
NtRp3242
(dp3243
g73
(dp3244
g93
g94
ssg82
g3238
sg75
(lp3245
S'REQUEST_METHOD'
p3246
asbag68
(g89
g70
NtRp3247
(dp3248
g73
(dp3249
g100
g101
ssg82
g3238
sg75
(lp3250
S':'
asbag68
(g89
g70
NtRp3251
(dp3252
g73
(dp3253
sg82
g3238
sg75
(lp3254
g68
(g69
g70
NtRp3255
(dp3256
g73
(dp3257
g81
I3
ssg82
g3251
sg75
(lp3258
g1611
asbasbasbag68
(g84
g70
NtRp3259
(dp3260
g73
(dp3261
sg82
g2877
sg75
(lp3262
g68
(g89
g70
NtRp3263
(dp3264
g73
(dp3265
g93
g94
ssg82
g3259
sg75
(lp3266
S'SCRIPT_NAME'
p3267
asbag68
(g89
g70
NtRp3268
(dp3269
g73
(dp3270
g100
g101
ssg82
g3259
sg75
(lp3271
S':'
asbag68
(g89
g70
NtRp3272
(dp3273
g73
(dp3274
sg82
g3259
sg75
(lp3275
g68
(g69
g70
NtRp3276
(dp3277
g73
(dp3278
g81
I3
ssg82
g3272
sg75
(lp3279
S''
asbasbasbag68
(g84
g70
NtRp3280
(dp3281
g73
(dp3282
sg82
g2877
sg75
(lp3283
g68
(g89
g70
NtRp3284
(dp3285
g73
(dp3286
g93
g94
ssg82
g3280
sg75
(lp3287
S'SERVER_NAME'
p3288
asbag68
(g89
g70
NtRp3289
(dp3290
g73
(dp3291
g100
g101
ssg82
g3280
sg75
(lp3292
S':'
asbag68
(g89
g70
NtRp3293
(dp3294
g73
(dp3295
sg82
g3280
sg75
(lp3296
g68
(g69
g70
NtRp3297
(dp3298
g73
(dp3299
g81
I3
ssg82
g3293
sg75
(lp3300
g1654
asbasbasbag68
(g84
g70
NtRp3301
(dp3302
g73
(dp3303
sg82
g2877
sg75
(lp3304
g68
(g89
g70
NtRp3305
(dp3306
g73
(dp3307
g93
g94
ssg82
g3301
sg75
(lp3308
S'SERVER_PORT'
p3309
asbag68
(g89
g70
NtRp3310
(dp3311
g73
(dp3312
g100
g101
ssg82
g3301
sg75
(lp3313
S':'
asbag68
(g89
g70
NtRp3314
(dp3315
g73
(dp3316
sg82
g3301
sg75
(lp3317
g68
(g69
g70
NtRp3318
(dp3319
g73
(dp3320
g81
I3
ssg82
g3314
sg75
(lp3321
g1676
asbasbasbag68
(g84
g70
NtRp3322
(dp3323
g73
(dp3324
sg82
g2877
sg75
(lp3325
g68
(g89
g70
NtRp3326
(dp3327
g73
(dp3328
g93
g94
ssg82
g3322
sg75
(lp3329
S'SERVER_PROTOCOL'
p3330
asbag68
(g89
g70
NtRp3331
(dp3332
g73
(dp3333
g100
g101
ssg82
g3322
sg75
(lp3334
S':'
asbag68
(g89
g70
NtRp3335
(dp3336
g73
(dp3337
sg82
g3322
sg75
(lp3338
g68
(g69
g70
NtRp3339
(dp3340
g73
(dp3341
g81
I3
ssg82
g3335
sg75
(lp3342
g1698
asbasbasbag68
(g84
g70
NtRp3343
(dp3344
g73
(dp3345
sg82
g2877
sg75
(lp3346
g68
(g89
g70
NtRp3347
(dp3348
g73
(dp3349
g93
g94
ssg82
g3343
sg75
(lp3350
S'SERVER_SOFTWARE'
p3351
asbag68
(g89
g70
NtRp3352
(dp3353
g73
(dp3354
g100
g101
ssg82
g3343
sg75
(lp3355
S':'
asbag68
(g89
g70
NtRp3356
(dp3357
g73
(dp3358
sg82
g3343
sg75
(lp3359
g68
(g69
g70
NtRp3360
(dp3361
g73
(dp3362
g81
I3
ssg82
g3356
sg75
(lp3363
g1720
asbasbasbag68
(g84
g70
NtRp3364
(dp3365
g73
(dp3366
sg82
g2877
sg75
(lp3367
g68
(g89
g70
NtRp3368
(dp3369
g73
(dp3370
g93
g94
ssg82
g3364
sg75
(lp3371
S'wsgi.errors'
p3372
asbag68
(g89
g70
NtRp3373
(dp3374
g73
(dp3375
g100
g101
ssg82
g3364
sg75
(lp3376
S':'
asbag68
(g89
g70
NtRp3377
(dp3378
g73
(dp3379
sg82
g3364
sg75
(lp3380
g68
(g69
g70
NtRp3381
(dp3382
g73
(dp3383
g81
I3
ssg82
g3377
sg75
(lp3384
S"<open file '<stderr>', mode 'w' at 0x7f49ef740270>"
p3385
asbasbasbag68
(g84
g70
NtRp3386
(dp3387
g73
(dp3388
sg82
g2877
sg75
(lp3389
g68
(g89
g70
NtRp3390
(dp3391
g73
(dp3392
g93
g94
ssg82
g3386
sg75
(lp3393
S'wsgi.file_wrapper'
p3394
asbag68
(g89
g70
NtRp3395
(dp3396
g73
(dp3397
g100
g101
ssg82
g3386
sg75
(lp3398
S':'
asbag68
(g89
g70
NtRp3399
(dp3400
g73
(dp3401
sg82
g3386
sg75
(lp3402
g68
(g69
g70
NtRp3403
(dp3404
g73
(dp3405
g81
I3
ssg82
g3399
sg75
(lp3406
S'<class wsgiref.util.FileWrapper at 0x2e896d0>'
p3407
asbasbasbag68
(g84
g70
NtRp3408
(dp3409
g73
(dp3410
sg82
g2877
sg75
(lp3411
g68
(g89
g70
NtRp3412
(dp3413
g73
(dp3414
g93
g94
ssg82
g3408
sg75
(lp3415
S'wsgi.input'
p3416
asbag68
(g89
g70
NtRp3417
(dp3418
g73
(dp3419
g100
g101
ssg82
g3408
sg75
(lp3420
S':'
asbag68
(g89
g70
NtRp3421
(dp3422
g73
(dp3423
sg82
g3408
sg75
(lp3424
g68
(g69
g70
NtRp3425
(dp3426
g73
(dp3427
g81
I3
ssg82
g3421
sg75
(lp3428
S"<open file '<fdopen>', mode 'w+b' at 0x7f49cc34d390>"
p3429
asbasbasbag68
(g84
g70
NtRp3430
(dp3431
g73
(dp3432
sg82
g2877
sg75
(lp3433
g68
(g89
g70
NtRp3434
(dp3435
g73
(dp3436
g93
g94
ssg82
g3430
sg75
(lp3437
S'wsgi.multiprocess'
p3438
asbag68
(g89
g70
NtRp3439
(dp3440
g73
(dp3441
g100
g101
ssg82
g3430
sg75
(lp3442
S':'
asbag68
(g89
g70
NtRp3443
(dp3444
g73
(dp3445
sg82
g3430
sg75
(lp3446
g68
(g69
g70
NtRp3447
(dp3448
g73
(dp3449
g81
I3
ssg82
g3443
sg75
(lp3450
g111
asbasbasbag68
(g84
g70
NtRp3451
(dp3452
g73
(dp3453
sg82
g2877
sg75
(lp3454
g68
(g89
g70
NtRp3455
(dp3456
g73
(dp3457
g93
g94
ssg82
g3451
sg75
(lp3458
S'wsgi.multithread'
p3459
asbag68
(g89
g70
NtRp3460
(dp3461
g73
(dp3462
g100
g101
ssg82
g3451
sg75
(lp3463
S':'
asbag68
(g89
g70
NtRp3464
(dp3465
g73
(dp3466
sg82
g3451
sg75
(lp3467
g68
(g69
g70
NtRp3468
(dp3469
g73
(dp3470
g81
I3
ssg82
g3464
sg75
(lp3471
g1960
asbasbasbag68
(g84
g70
NtRp3472
(dp3473
g73
(dp3474
sg82
g2877
sg75
(lp3475
g68
(g89
g70
NtRp3476
(dp3477
g73
(dp3478
g93
g94
ssg82
g3472
sg75
(lp3479
S'wsgi.run_once'
p3480
asbag68
(g89
g70
NtRp3481
(dp3482
g73
(dp3483
g100
g101
ssg82
g3472
sg75
(lp3484
S':'
asbag68
(g89
g70
NtRp3485
(dp3486
g73
(dp3487
sg82
g3472
sg75
(lp3488
g68
(g69
g70
NtRp3489
(dp3490
g73
(dp3491
g81
I3
ssg82
g3485
sg75
(lp3492
g111
asbasbasbag68
(g84
g70
NtRp3493
(dp3494
g73
(dp3495
sg82
g2877
sg75
(lp3496
g68
(g89
g70
NtRp3497
(dp3498
g73
(dp3499
g93
g94
ssg82
g3493
sg75
(lp3500
S'wsgi.url_scheme'
p3501
asbag68
(g89
g70
NtRp3502
(dp3503
g73
(dp3504
g100
g101
ssg82
g3493
sg75
(lp3505
S':'
asbag68
(g89
g70
NtRp3506
(dp3507
g73
(dp3508
sg82
g3493
sg75
(lp3509
g68
(g69
g70
NtRp3510
(dp3511
g73
(dp3512
g81
I3
ssg82
g3506
sg75
(lp3513
g2003
asbasbasbag68
(g84
g70
NtRp3514
(dp3515
g73
(dp3516
sg82
g2877
sg75
(lp3517
g68
(g89
g70
NtRp3518
(dp3519
g73
(dp3520
g93
g94
ssg82
g3514
sg75
(lp3521
S'wsgi.version'
p3522
asbag68
(g89
g70
NtRp3523
(dp3524
g73
(dp3525
g100
g101
ssg82
g3514
sg75
(lp3526
S':'
asbag68
(g89
g70
NtRp3527
(dp3528
g73
(dp3529
sg82
g3514
sg75
(lp3530
g68
(g69
g70
NtRp3531
(dp3532
g73
(dp3533
g81
I3
ssg82
g3527
sg75
(lp3534
S'1'
asbasbasbasbasbasbasbasbasbasbasbasbasbsS'frames'
p3535
(lp3536
(dp3537
S'file'
p3538
S'/web2py/gluon/restricted.py'
p3539
sS'dump'
p3540
(dp3541
S'code'
p3542
S"'# -*- coding: utf-8 -*-\\n\\nimport redis\\ncx = redis...rm.vars)\\n\\nresponse._vars=response._caller(first)\\n'"
p3543
sS'layer'
p3544
S"'/web2py/applications/snapcop2_web2py/controllers/form.py'"
p3545
sS'global compile2'
p3546
S'<function compile2>'
p3547
sS'ccode'
p3548
S'undefined'
p3549
ssS'lnum'
p3550
I204
sS'lines'
p3551
(dp3552
I199
S"    environment['__name__'] = '__restricted__'"
p3553
sI200
S'    try:'
p3554
sI201
S'        if type(code) == types.CodeType:'
p3555
sI202
S'            ccode = code'
p3556
sI203
S'        else:'
p3557
sI204
S'            ccode = compile2(code,layer)'
p3558
sI205
S'        exec ccode in environment'
p3559
sI206
S'    except HTTP:'
p3560
sI207
S'        raise'
p3561
sI208
S'    except RestrictedError:'
p3562
ssS'call'
p3563
S"(code='# -*- coding: utf-8 -*-\\n\\nimport redis\\ncx = redis...rm.vars)\\n\\nresponse._vars=response._caller(first)\\n', environment={'A': <class 'gluon.html.A'>, 'Auth': <class 'gluon.tools.Auth'>, 'B': <class 'gluon.html.B'>, 'BEAUTIFY': <class 'gluon.html.BEAUTIFY'>, 'BODY': <class 'gluon.html.BODY'>, 'BR': <class 'gluon.html.BR'>, 'BUTTON': <class 'gluon.html.BUTTON'>, 'CAT': <class 'gluon.html.CAT'>, 'CENTER': <class 'gluon.html.CENTER'>, 'CLEANUP': <class 'gluon.validators.CLEANUP'>, ...}, layer='/web2py/applications/snapcop2_web2py/controllers/form.py')"
p3564
sS'func'
p3565
S'restricted'
p3566
sa(dp3567
g3538
S'/web2py/gluon/restricted.py'
p3568
sg3540
(dp3569
S'builtincompile'
p3570
S'<built-in function compile>'
p3571
sS'code'
p3572
S"'# -*- coding: utf-8 -*-\\n\\nimport redis\\ncx = redis...rm.vars)\\n\\nresponse._vars=response._caller(first)\\n'"
p3573
sS'code.rstrip'
p3574
S'<built-in method rstrip of str object>'
p3575
sS').replace'
p3576
g3549
sS'layer'
p3577
S"'/web2py/applications/snapcop2_web2py/controllers/form.py'"
p3578
ssg3550
I189
sg3551
(dp3579
I192
S'    """'
p3580
sI193
S'    runs code in environment and returns the output. if an exception occurs'
p3581
sI184
S''
sI185
S'def compile2(code,layer):'
p3582
sI186
S'    """'
p3583
sI187
S"    The +'\\n' is necessary else compile fails when code ends in a comment."
p3584
sI188
S'    """'
p3585
sI189
S"    return compile(code.rstrip().replace('\\r\\n','\\n')+'\\n', layer, 'exec')"
p3586
sI190
S''
sI191
S"def restricted(code, environment=None, layer='Unknown'):"
p3587
ssg3563
S"(code='# -*- coding: utf-8 -*-\\n\\nimport redis\\ncx = redis...rm.vars)\\n\\nresponse._vars=response._caller(first)\\n', layer='/web2py/applications/snapcop2_web2py/controllers/form.py')"
p3588
sg3565
S'compile2'
p3589
sasS'pyver'
p3590
S'Python 2.7.3: /usr/bin/python'
p3591
sS'session'
p3592
g68
(g69
g70
NtRp3593
(dp3594
g73
(dp3595
sg75
(lp3596
g68
(g77
g70
NtRp3597
(dp3598
g73
(dp3599
g81
I5
ssg82
Nsg75
(lp3600
sbasbsS'etype'
p3601
S"<type 'exceptions.SyntaxError'>"
p3602
sS'date'
p3603
S'Fri Aug 24 15:58:20 2012'
p3604
sS'response'
p3605
g68
(g69
g70
NtRp3606
(dp3607
g73
(dp3608
sg75
(lp3609
g68
(g77
g70
NtRp3610
(dp3611
g73
(dp3612
g81
I5
ssg82
Nsg75
(lp3613
g68
(g84
g70
NtRp3614
(dp3615
g73
(dp3616
sg82
g3610
sg75
(lp3617
g68
(g89
g70
NtRp3618
(dp3619
g73
(dp3620
g93
g94
ssg82
g3614
sg75
(lp3621
g166
asbag68
(g89
g70
NtRp3622
(dp3623
g73
(dp3624
g100
g101
ssg82
g3614
sg75
(lp3625
S':'
asbag68
(g89
g70
NtRp3626
(dp3627
g73
(dp3628
sg82
g3614
sg75
(lp3629
g68
(g69
g70
NtRp3630
(dp3631
g73
(dp3632
g81
I5
ssg82
g3626
sg75
(lp3633
S'<cStringIO.StringO object at 0x7f49cc4a3a78>'
p3634
asbasbasbag68
(g84
g70
NtRp3635
(dp3636
g73
(dp3637
sg82
g3610
sg75
(lp3638
g68
(g89
g70
NtRp3639
(dp3640
g73
(dp3641
g93
g94
ssg82
g3635
sg75
(lp3642
g232
asbag68
(g89
g70
NtRp3643
(dp3644
g73
(dp3645
g100
g101
ssg82
g3635
sg75
(lp3646
S':'
asbag68
(g89
g70
NtRp3647
(dp3648
g73
(dp3649
sg82
g3635
sg75
(lp3650
g68
(g69
g70
NtRp3651
(dp3652
g73
(dp3653
g81
I5
ssg82
g3647
sg75
(lp3654
g68
(g77
g70
NtRp3655
(dp3656
g73
(dp3657
g81
I4
ssg82
Nsg75
(lp3658
g68
(g84
g70
NtRp3659
(dp3660
g73
(dp3661
sg82
g3655
sg75
(lp3662
g68
(g89
g70
NtRp3663
(dp3664
g73
(dp3665
g93
g94
ssg82
g3659
sg75
(lp3666
S'session_id_snapcop2_web2py'
p3667
asbag68
(g89
g70
NtRp3668
(dp3669
g73
(dp3670
g100
g101
ssg82
g3659
sg75
(lp3671
S':'
asbag68
(g89
g70
NtRp3672
(dp3673
g73
(dp3674
sg82
g3659
sg75
(lp3675
g68
(g69
g70
NtRp3676
(dp3677
g73
(dp3678
g81
I4
ssg82
g3672
sg75
(lp3679
g68
(g77
g70
NtRp3680
(dp3681
g73
(dp3682
g81
I3
ssg82
Nsg75
(lp3683
g68
(g84
g70
NtRp3684
(dp3685
g73
(dp3686
sg82
g3680
sg75
(lp3687
g68
(g89
g70
NtRp3688
(dp3689
g73
(dp3690
g93
g94
ssg82
g3684
sg75
(lp3691
g282
asbag68
(g89
g70
NtRp3692
(dp3693
g73
(dp3694
g100
g101
ssg82
g3684
sg75
(lp3695
S':'
asbag68
(g89
g70
NtRp3696
(dp3697
g73
(dp3698
sg82
g3684
sg75
(lp3699
g68
(g69
g70
NtRp3700
(dp3701
g73
(dp3702
g81
I3
ssg82
g3696
sg75
(lp3703
S''
asbasbasbag68
(g84
g70
NtRp3704
(dp3705
g73
(dp3706
sg82
g3680
sg75
(lp3707
g68
(g89
g70
NtRp3708
(dp3709
g73
(dp3710
g93
g94
ssg82
g3704
sg75
(lp3711
g303
asbag68
(g89
g70
NtRp3712
(dp3713
g73
(dp3714
g100
g101
ssg82
g3704
sg75
(lp3715
S':'
asbag68
(g89
g70
NtRp3716
(dp3717
g73
(dp3718
sg82
g3704
sg75
(lp3719
g68
(g69
g70
NtRp3720
(dp3721
g73
(dp3722
g81
I3
ssg82
g3716
sg75
(lp3723
S''
asbasbasbag68
(g84
g70
NtRp3724
(dp3725
g73
(dp3726
sg82
g3680
sg75
(lp3727
g68
(g89
g70
NtRp3728
(dp3729
g73
(dp3730
g93
g94
ssg82
g3724
sg75
(lp3731
g324
asbag68
(g89
g70
NtRp3732
(dp3733
g73
(dp3734
g100
g101
ssg82
g3724
sg75
(lp3735
S':'
asbag68
(g89
g70
NtRp3736
(dp3737
g73
(dp3738
sg82
g3724
sg75
(lp3739
g68
(g69
g70
NtRp3740
(dp3741
g73
(dp3742
g81
I3
ssg82
g3736
sg75
(lp3743
S''
asbasbasbag68
(g84
g70
NtRp3744
(dp3745
g73
(dp3746
sg82
g3680
sg75
(lp3747
g68
(g89
g70
NtRp3748
(dp3749
g73
(dp3750
g93
g94
ssg82
g3744
sg75
(lp3751
g345
asbag68
(g89
g70
NtRp3752
(dp3753
g73
(dp3754
g100
g101
ssg82
g3744
sg75
(lp3755
S':'
asbag68
(g89
g70
NtRp3756
(dp3757
g73
(dp3758
sg82
g3744
sg75
(lp3759
g68
(g69
g70
NtRp3760
(dp3761
g73
(dp3762
g81
I3
ssg82
g3756
sg75
(lp3763
S''
asbasbasbag68
(g84
g70
NtRp3764
(dp3765
g73
(dp3766
sg82
g3680
sg75
(lp3767
g68
(g89
g70
NtRp3768
(dp3769
g73
(dp3770
g93
g94
ssg82
g3764
sg75
(lp3771
g366
asbag68
(g89
g70
NtRp3772
(dp3773
g73
(dp3774
g100
g101
ssg82
g3764
sg75
(lp3775
S':'
asbag68
(g89
g70
NtRp3776
(dp3777
g73
(dp3778
sg82
g3764
sg75
(lp3779
g68
(g69
g70
NtRp3780
(dp3781
g73
(dp3782
g81
I3
ssg82
g3776
sg75
(lp3783
S''
asbasbasbag68
(g84
g70
NtRp3784
(dp3785
g73
(dp3786
sg82
g3680
sg75
(lp3787
g68
(g89
g70
NtRp3788
(dp3789
g73
(dp3790
g93
g94
ssg82
g3784
sg75
(lp3791
g387
asbag68
(g89
g70
NtRp3792
(dp3793
g73
(dp3794
g100
g101
ssg82
g3784
sg75
(lp3795
S':'
asbag68
(g89
g70
NtRp3796
(dp3797
g73
(dp3798
sg82
g3784
sg75
(lp3799
g68
(g69
g70
NtRp3800
(dp3801
g73
(dp3802
g81
I3
ssg82
g3796
sg75
(lp3803
S'/'
asbasbasbag68
(g84
g70
NtRp3804
(dp3805
g73
(dp3806
sg82
g3680
sg75
(lp3807
g68
(g89
g70
NtRp3808
(dp3809
g73
(dp3810
g93
g94
ssg82
g3804
sg75
(lp3811
g408
asbag68
(g89
g70
NtRp3812
(dp3813
g73
(dp3814
g100
g101
ssg82
g3804
sg75
(lp3815
S':'
asbag68
(g89
g70
NtRp3816
(dp3817
g73
(dp3818
sg82
g3804
sg75
(lp3819
g68
(g69
g70
NtRp3820
(dp3821
g73
(dp3822
g81
I3
ssg82
g3816
sg75
(lp3823
S''
asbasbasbag68
(g84
g70
NtRp3824
(dp3825
g73
(dp3826
sg82
g3680
sg75
(lp3827
g68
(g89
g70
NtRp3828
(dp3829
g73
(dp3830
g93
g94
ssg82
g3824
sg75
(lp3831
g429
asbag68
(g89
g70
NtRp3832
(dp3833
g73
(dp3834
g100
g101
ssg82
g3824
sg75
(lp3835
S':'
asbag68
(g89
g70
NtRp3836
(dp3837
g73
(dp3838
sg82
g3824
sg75
(lp3839
g68
(g69
g70
NtRp3840
(dp3841
g73
(dp3842
g81
I3
ssg82
g3836
sg75
(lp3843
S''
asbasbasbasbasbasbasbasbasbasbasbag68
(g84
g70
NtRp3844
(dp3845
g73
(dp3846
sg82
g3610
sg75
(lp3847
g68
(g89
g70
NtRp3848
(dp3849
g73
(dp3850
g93
g94
ssg82
g3844
sg75
(lp3851
S'delimiters'
p3852
asbag68
(g89
g70
NtRp3853
(dp3854
g73
(dp3855
g100
g101
ssg82
g3844
sg75
(lp3856
S':'
asbag68
(g89
g70
NtRp3857
(dp3858
g73
(dp3859
sg82
g3844
sg75
(lp3860
g68
(g69
g70
NtRp3861
(dp3862
g73
(dp3863
g81
I5
ssg82
g3857
sg75
(lp3864
g68
(g77
g70
NtRp3865
(dp3866
g73
(dp3867
g81
I4
ssg82
Nsg75
(lp3868
g68
(g84
g70
NtRp3869
(dp3870
g73
(dp3871
sg82
g3865
sg75
(lp3872
g68
(g89
g70
NtRp3873
(dp3874
g73
(dp3875
sg82
g3869
sg75
(lp3876
g68
(g69
g70
NtRp3877
(dp3878
g73
(dp3879
g81
I4
ssg82
g3873
sg75
(lp3880
S'{{'
p3881
asbasbasbag68
(g84
g70
NtRp3882
(dp3883
g73
(dp3884
sg82
g3865
sg75
(lp3885
g68
(g89
g70
NtRp3886
(dp3887
g73
(dp3888
sg82
g3882
sg75
(lp3889
g68
(g69
g70
NtRp3890
(dp3891
g73
(dp3892
g81
I4
ssg82
g3886
sg75
(lp3893
S'}}'
p3894
asbasbasbasbasbasbasbag68
(g84
g70
NtRp3895
(dp3896
g73
(dp3897
sg82
g3610
sg75
(lp3898
g68
(g89
g70
NtRp3899
(dp3900
g73
(dp3901
g93
g94
ssg82
g3895
sg75
(lp3902
S'files'
p3903
asbag68
(g89
g70
NtRp3904
(dp3905
g73
(dp3906
g100
g101
ssg82
g3895
sg75
(lp3907
S':'
asbag68
(g89
g70
NtRp3908
(dp3909
g73
(dp3910
sg82
g3895
sg75
(lp3911
g68
(g69
g70
NtRp3912
(dp3913
g73
(dp3914
g81
I5
ssg82
g3908
sg75
(lp3915
g68
(g77
g70
NtRp3916
(dp3917
g73
(dp3918
g81
I4
ssg82
Nsg75
(lp3919
sbasbasbasbag68
(g84
g70
NtRp3920
(dp3921
g73
(dp3922
sg82
g3610
sg75
(lp3923
g68
(g89
g70
NtRp3924
(dp3925
g73
(dp3926
g93
g94
ssg82
g3920
sg75
(lp3927
S'flash'
p3928
asbag68
(g89
g70
NtRp3929
(dp3930
g73
(dp3931
g100
g101
ssg82
g3920
sg75
(lp3932
S':'
asbag68
(g89
g70
NtRp3933
(dp3934
g73
(dp3935
sg82
g3920
sg75
(lp3936
g68
(g69
g70
NtRp3937
(dp3938
g73
(dp3939
g81
I5
ssg82
g3933
sg75
(lp3940
S''
asbasbasbag68
(g84
g70
NtRp3941
(dp3942
g73
(dp3943
sg82
g3610
sg75
(lp3944
g68
(g89
g70
NtRp3945
(dp3946
g73
(dp3947
g93
g94
ssg82
g3941
sg75
(lp3948
S'generic_patterns'
p3949
asbag68
(g89
g70
NtRp3950
(dp3951
g73
(dp3952
g100
g101
ssg82
g3941
sg75
(lp3953
S':'
asbag68
(g89
g70
NtRp3954
(dp3955
g73
(dp3956
sg82
g3941
sg75
(lp3957
g68
(g69
g70
NtRp3958
(dp3959
g73
(dp3960
g81
I5
ssg82
g3954
sg75
(lp3961
g68
(g77
g70
NtRp3962
(dp3963
g73
(dp3964
g81
I4
ssg82
Nsg75
(lp3965
g68
(g84
g70
NtRp3966
(dp3967
g73
(dp3968
sg82
g3962
sg75
(lp3969
g68
(g89
g70
NtRp3970
(dp3971
g73
(dp3972
sg82
g3966
sg75
(lp3973
g68
(g69
g70
NtRp3974
(dp3975
g73
(dp3976
g81
I4
ssg82
g3970
sg75
(lp3977
S'*'
asbasbasbasbasbasbasbag68
(g84
g70
NtRp3978
(dp3979
g73
(dp3980
sg82
g3610
sg75
(lp3981
g68
(g89
g70
NtRp3982
(dp3983
g73
(dp3984
g93
g94
ssg82
g3978
sg75
(lp3985
S'headers'
p3986
asbag68
(g89
g70
NtRp3987
(dp3988
g73
(dp3989
g100
g101
ssg82
g3978
sg75
(lp3990
S':'
asbag68
(g89
g70
NtRp3991
(dp3992
g73
(dp3993
sg82
g3978
sg75
(lp3994
g68
(g69
g70
NtRp3995
(dp3996
g73
(dp3997
g81
I5
ssg82
g3991
sg75
(lp3998
g68
(g77
g70
NtRp3999
(dp4000
g73
(dp4001
g81
I4
ssg82
Nsg75
(lp4002
g68
(g84
g70
NtRp4003
(dp4004
g73
(dp4005
sg82
g3999
sg75
(lp4006
g68
(g89
g70
NtRp4007
(dp4008
g73
(dp4009
g93
g94
ssg82
g4003
sg75
(lp4010
S'Cache-Control'
p4011
asbag68
(g89
g70
NtRp4012
(dp4013
g73
(dp4014
g100
g101
ssg82
g4003
sg75
(lp4015
S':'
asbag68
(g89
g70
NtRp4016
(dp4017
g73
(dp4018
sg82
g4003
sg75
(lp4019
g68
(g69
g70
NtRp4020
(dp4021
g73
(dp4022
g81
I4
ssg82
g4016
sg75
(lp4023
S'no-store, no-cache, must-revalidate, post-check=0, pre-check=0'
p4024
asbasbasbag68
(g84
g70
NtRp4025
(dp4026
g73
(dp4027
sg82
g3999
sg75
(lp4028
g68
(g89
g70
NtRp4029
(dp4030
g73
(dp4031
g93
g94
ssg82
g4025
sg75
(lp4032
S'Content-Type'
p4033
asbag68
(g89
g70
NtRp4034
(dp4035
g73
(dp4036
g100
g101
ssg82
g4025
sg75
(lp4037
S':'
asbag68
(g89
g70
NtRp4038
(dp4039
g73
(dp4040
sg82
g4025
sg75
(lp4041
g68
(g69
g70
NtRp4042
(dp4043
g73
(dp4044
g81
I4
ssg82
g4038
sg75
(lp4045
S'text/html; charset=utf-8'
p4046
asbasbasbag68
(g84
g70
NtRp4047
(dp4048
g73
(dp4049
sg82
g3999
sg75
(lp4050
g68
(g89
g70
NtRp4051
(dp4052
g73
(dp4053
g93
g94
ssg82
g4047
sg75
(lp4054
S'Expires'
p4055
asbag68
(g89
g70
NtRp4056
(dp4057
g73
(dp4058
g100
g101
ssg82
g4047
sg75
(lp4059
S':'
asbag68
(g89
g70
NtRp4060
(dp4061
g73
(dp4062
sg82
g4047
sg75
(lp4063
g68
(g69
g70
NtRp4064
(dp4065
g73
(dp4066
g81
I4
ssg82
g4060
sg75
(lp4067
S'Fri, 24 Aug 2012 13:58:20 GMT'
p4068
asbasbasbag68
(g84
g70
NtRp4069
(dp4070
g73
(dp4071
sg82
g3999
sg75
(lp4072
g68
(g89
g70
NtRp4073
(dp4074
g73
(dp4075
g93
g94
ssg82
g4069
sg75
(lp4076
S'Pragma'
p4077
asbag68
(g89
g70
NtRp4078
(dp4079
g73
(dp4080
g100
g101
ssg82
g4069
sg75
(lp4081
S':'
asbag68
(g89
g70
NtRp4082
(dp4083
g73
(dp4084
sg82
g4069
sg75
(lp4085
g68
(g69
g70
NtRp4086
(dp4087
g73
(dp4088
g81
I4
ssg82
g4082
sg75
(lp4089
S'no-cache'
p4090
asbasbasbag68
(g84
g70
NtRp4091
(dp4092
g73
(dp4093
sg82
g3999
sg75
(lp4094
g68
(g89
g70
NtRp4095
(dp4096
g73
(dp4097
g93
g94
ssg82
g4091
sg75
(lp4098
S'X-Powered-By'
p4099
asbag68
(g89
g70
NtRp4100
(dp4101
g73
(dp4102
g100
g101
ssg82
g4091
sg75
(lp4103
S':'
asbag68
(g89
g70
NtRp4104
(dp4105
g73
(dp4106
sg82
g4091
sg75
(lp4107
g68
(g69
g70
NtRp4108
(dp4109
g73
(dp4110
g81
I4
ssg82
g4104
sg75
(lp4111
S'web2py'
p4112
asbasbasbasbasbasbasbag68
(g84
g70
NtRp4113
(dp4114
g73
(dp4115
sg82
g3610
sg75
(lp4116
g68
(g89
g70
NtRp4117
(dp4118
g73
(dp4119
g93
g94
ssg82
g4113
sg75
(lp4120
S'menu'
p4121
asbag68
(g89
g70
NtRp4122
(dp4123
g73
(dp4124
g100
g101
ssg82
g4113
sg75
(lp4125
S':'
asbag68
(g89
g70
NtRp4126
(dp4127
g73
(dp4128
sg82
g4113
sg75
(lp4129
g68
(g69
g70
NtRp4130
(dp4131
g73
(dp4132
g81
I5
ssg82
g4126
sg75
(lp4133
g68
(g77
g70
NtRp4134
(dp4135
g73
(dp4136
g81
I4
ssg82
Nsg75
(lp4137
g68
(g84
g70
NtRp4138
(dp4139
g73
(dp4140
sg82
g4134
sg75
(lp4141
g68
(g89
g70
NtRp4142
(dp4143
g73
(dp4144
sg82
g4138
sg75
(lp4145
g68
(g69
g70
NtRp4146
(dp4147
g73
(dp4148
g81
I4
ssg82
g4142
sg75
(lp4149
g68
(g77
g70
NtRp4150
(dp4151
g73
(dp4152
g81
I3
ssg82
Nsg75
(lp4153
g68
(g84
g70
NtRp4154
(dp4155
g73
(dp4156
sg82
g4150
sg75
(lp4157
g68
(g89
g70
NtRp4158
(dp4159
g73
(dp4160
sg82
g4154
sg75
(lp4161
g68
(g69
g70
NtRp4162
(dp4163
g73
(dp4164
g81
I3
ssg82
g4158
sg75
(lp4165
cgluon.languages
lazyT_unpickle
p4166
(S't\x07\x00\x00\x00Accueil'
tRp4167
asbasbasbag68
(g84
g70
NtRp4168
(dp4169
g73
(dp4170
sg82
g4150
sg75
(lp4171
g68
(g89
g70
NtRp4172
(dp4173
g73
(dp4174
sg82
g4168
sg75
(lp4175
g68
(g69
g70
NtRp4176
(dp4177
g73
(dp4178
g81
I3
ssg82
g4172
sg75
(lp4179
g111
asbasbasbag68
(g84
g70
NtRp4180
(dp4181
g73
(dp4182
sg82
g4150
sg75
(lp4183
g68
(g89
g70
NtRp4184
(dp4185
g73
(dp4186
sg82
g4180
sg75
(lp4187
g68
(g69
g70
NtRp4188
(dp4189
g73
(dp4190
g81
I3
ssg82
g4184
sg75
(lp4191
S'/snapcop2_web2py/default/index'
p4192
asbasbasbag68
(g84
g70
NtRp4193
(dp4194
g73
(dp4195
sg82
g4150
sg75
(lp4196
g68
(g89
g70
NtRp4197
(dp4198
g73
(dp4199
sg82
g4193
sg75
(lp4200
g68
(g69
g70
NtRp4201
(dp4202
g73
(dp4203
g81
I3
ssg82
g4197
sg75
(lp4204
g68
(g77
g70
NtRp4205
(dp4206
g73
(dp4207
g81
I2
ssg82
Nsg75
(lp4208
sbasbasbasbasbasbasbasbag68
(g84
g70
NtRp4209
(dp4210
g73
(dp4211
sg82
g4134
sg75
(lp4212
g68
(g89
g70
NtRp4213
(dp4214
g73
(dp4215
sg82
g4209
sg75
(lp4216
g68
(g69
g70
NtRp4217
(dp4218
g73
(dp4219
g81
I4
ssg82
g4213
sg75
(lp4220
g68
(g77
g70
NtRp4221
(dp4222
g73
(dp4223
g81
I3
ssg82
Nsg75
(lp4224
g68
(g84
g70
NtRp4225
(dp4226
g73
(dp4227
sg82
g4221
sg75
(lp4228
g68
(g89
g70
NtRp4229
(dp4230
g73
(dp4231
sg82
g4225
sg75
(lp4232
g68
(g69
g70
NtRp4233
(dp4234
g73
(dp4235
g81
I3
ssg82
g4229
sg75
(lp4236
g68
(cgluon.html
SPAN
p4237
g70
NtRp4238
(dp4239
g73
(dp4240
g93
S'color:yellow'
p4241
ssg82
Nsg75
(lp4242
g4112
asbasbasbasbag68
(g84
g70
NtRp4243
(dp4244
g73
(dp4245
sg82
g4221
sg75
(lp4246
g68
(g89
g70
NtRp4247
(dp4248
g73
(dp4249
sg82
g4243
sg75
(lp4250
g68
(g69
g70
NtRp4251
(dp4252
g73
(dp4253
g81
I3
ssg82
g4247
sg75
(lp4254
g111
asbasbasbag68
(g84
g70
NtRp4255
(dp4256
g73
(dp4257
sg82
g4221
sg75
(lp4258
g68
(g89
g70
NtRp4259
(dp4260
g73
(dp4261
sg82
g4255
sg75
(lp4262
g68
(g69
g70
NtRp4263
(dp4264
g73
(dp4265
g81
I3
ssg82
g4259
sg75
(lp4266
S'None'
p4267
asbasbasbag68
(g84
g70
NtRp4268
(dp4269
g73
(dp4270
sg82
g4221
sg75
(lp4271
g68
(g89
g70
NtRp4272
(dp4273
g73
(dp4274
sg82
g4268
sg75
(lp4275
g68
(g69
g70
NtRp4276
(dp4277
g73
(dp4278
g81
I3
ssg82
g4272
sg75
(lp4279
g68
(g77
g70
NtRp4280
(dp4281
g73
(dp4282
g81
I2
ssg82
Nsg75
(lp4283
g68
(g84
g70
NtRp4284
(dp4285
g73
(dp4286
sg82
g4280
sg75
(lp4287
g68
(g89
g70
NtRp4288
(dp4289
g73
(dp4290
sg82
g4284
sg75
(lp4291
g68
(g69
g70
NtRp4292
(dp4293
g73
(dp4294
g81
I2
ssg82
g4288
sg75
(lp4295
g68
(g77
g70
NtRp4296
(dp4297
g73
(dp4298
g81
I1
ssg82
Nsg75
(lp4299
g68
(g84
g70
NtRp4300
(dp4301
g73
(dp4302
sg82
g4296
sg75
(lp4303
g68
(g89
g70
NtRp4304
(dp4305
g73
(dp4306
sg82
g4300
sg75
(lp4307
g68
(g69
g70
NtRp4308
(dp4309
g73
(dp4310
g81
I1
ssg82
g4304
sg75
(lp4311
g4166
(S's\x08\x00\x00\x00My Sites'
tRp4312
asbasbasbag68
(g84
g70
NtRp4313
(dp4314
g73
(dp4315
sg82
g4296
sg75
(lp4316
g68
(g89
g70
NtRp4317
(dp4318
g73
(dp4319
sg82
g4313
sg75
(lp4320
g68
(g69
g70
NtRp4321
(dp4322
g73
(dp4323
g81
I1
ssg82
g4317
sg75
(lp4324
I00
asbasbasbag68
(g84
g70
NtRp4325
(dp4326
g73
(dp4327
sg82
g4296
sg75
(lp4328
g68
(g89
g70
NtRp4329
(dp4330
g73
(dp4331
sg82
g4325
sg75
(lp4332
g68
(g69
g70
NtRp4333
(dp4334
g73
(dp4335
g81
I1
ssg82
g4329
sg75
(lp4336
S'/admin/default/site'
p4337
asbasbasbasbasbasbasbag68
(g84
g70
NtRp4338
(dp4339
g73
(dp4340
sg82
g4280
sg75
(lp4341
g68
(g89
g70
NtRp4342
(dp4343
g73
(dp4344
sg82
g4338
sg75
(lp4345
g68
(g69
g70
NtRp4346
(dp4347
g73
(dp4348
g81
I2
ssg82
g4342
sg75
(lp4349
g68
(g77
g70
NtRp4350
(dp4351
g73
(dp4352
g81
I1
ssg82
Nsg75
(lp4353
g68
(g84
g70
NtRp4354
(dp4355
g73
(dp4356
sg82
g4350
sg75
(lp4357
g68
(g89
g70
NtRp4358
(dp4359
g73
(dp4360
sg82
g4354
sg75
(lp4361
g68
(g69
g70
NtRp4362
(dp4363
g73
(dp4364
g81
I1
ssg82
g4358
sg75
(lp4365
g4166
(S's\x0b\x00\x00\x00Cette Appli'
tRp4366
asbasbasbag68
(g84
g70
NtRp4367
(dp4368
g73
(dp4369
sg82
g4350
sg75
(lp4370
g68
(g89
g70
NtRp4371
(dp4372
g73
(dp4373
sg82
g4367
sg75
(lp4374
g68
(g69
g70
NtRp4375
(dp4376
g73
(dp4377
g81
I1
ssg82
g4371
sg75
(lp4378
I00
asbasbasbag68
(g84
g70
NtRp4379
(dp4380
g73
(dp4381
sg82
g4350
sg75
(lp4382
g68
(g89
g70
NtRp4383
(dp4384
g73
(dp4385
sg82
g4379
sg75
(lp4386
g68
(g69
g70
NtRp4387
(dp4388
g73
(dp4389
g81
I1
ssg82
g4383
sg75
(lp4390
S'/admin/default/design/snapcop2_web2py'
p4391
asbasbasbag68
(g84
g70
NtRp4392
(dp4393
g73
(dp4394
sg82
g4350
sg75
(lp4395
g68
(g89
g70
NtRp4396
(dp4397
g73
(dp4398
sg82
g4392
sg75
(lp4399
g68
(g69
g70
NtRp4400
(dp4401
g73
(dp4402
g81
I1
ssg82
g4396
sg75
(lp4403
(lp4404
(g4166
(S's\x0b\x00\x00\x00Contr\xc3\xb4leur'
tRp4405
I00
S'/admin/default/edit/snapcop2_web2py/controllers/form.py'
tp4406
a(g4166
(S's\r\x00\x00\x00Pr\xc3\xa9sentation'
tRp4407
I00
S'/admin/default/edit/snapcop2_web2py/views/form/first.html'
tp4408
a(g4166
(S's\x0c\x00\x00\x00Mise en page'
tRp4409
I00
S'/admin/default/edit/snapcop2_web2py/views/layout.html'
tp4410
a(g4166
(S's\x10\x00\x00\x00Feuille de style'
tRp4411
I00
S'/admin/default/edit/snapcop2_web2py/static/css/web2py.css'
tp4412
a(g4166
(S's\n\x00\x00\x00Mod\xc3\xa8le DB'
tRp4413
I00
S'/admin/default/edit/snapcop2_web2py/models/db.py'
tp4414
a(g4166
(S's\x0c\x00\x00\x00Menu mod\xc3\xa8le'
tRp4415
I00
S'/admin/default/edit/snapcop2_web2py/models/menu.py'
tp4416
a(g4166
(S's\x10\x00\x00\x00Base de donn\xc3\xa9es'
tRp4417
I00
S'/snapcop2_web2py/appadmin/index'
tp4418
a(g4166
(S't\x07\x00\x00\x00Erreurs'
tRp4419
I00
S'/admin/default/errors/snapcop2_web2py'
tp4420
a(g4166
(S's\t\x00\x00\x00\xc3\x80 propos'
tRp4421
I00
S'/admin/default/about/snapcop2_web2py'
tp4422
aasbasbasbasbasbasbasbag68
(g84
g70
NtRp4423
(dp4424
g73
(dp4425
sg82
g4280
sg75
(lp4426
g68
(g89
g70
NtRp4427
(dp4428
g73
(dp4429
sg82
g4423
sg75
(lp4430
g68
(g69
g70
NtRp4431
(dp4432
g73
(dp4433
g81
I2
ssg82
g4427
sg75
(lp4434
g68
(g77
g70
NtRp4435
(dp4436
g73
(dp4437
g81
I1
ssg82
Nsg75
(lp4438
g68
(g84
g70
NtRp4439
(dp4440
g73
(dp4441
sg82
g4435
sg75
(lp4442
g68
(g89
g70
NtRp4443
(dp4444
g73
(dp4445
sg82
g4439
sg75
(lp4446
g68
(g69
g70
NtRp4447
(dp4448
g73
(dp4449
g81
I1
ssg82
g4443
sg75
(lp4450
S'web2py.com'
p4451
asbasbasbag68
(g84
g70
NtRp4452
(dp4453
g73
(dp4454
sg82
g4435
sg75
(lp4455
g68
(g89
g70
NtRp4456
(dp4457
g73
(dp4458
sg82
g4452
sg75
(lp4459
g68
(g69
g70
NtRp4460
(dp4461
g73
(dp4462
g81
I1
ssg82
g4456
sg75
(lp4463
I00
asbasbasbag68
(g84
g70
NtRp4464
(dp4465
g73
(dp4466
sg82
g4435
sg75
(lp4467
g68
(g89
g70
NtRp4468
(dp4469
g73
(dp4470
sg82
g4464
sg75
(lp4471
g68
(g69
g70
NtRp4472
(dp4473
g73
(dp4474
g81
I1
ssg82
g4468
sg75
(lp4475
S'http://www.web2py.com'
p4476
asbasbasbag68
(g84
g70
NtRp4477
(dp4478
g73
(dp4479
sg82
g4435
sg75
(lp4480
g68
(g89
g70
NtRp4481
(dp4482
g73
(dp4483
sg82
g4477
sg75
(lp4484
g68
(g69
g70
NtRp4485
(dp4486
g73
(dp4487
g81
I1
ssg82
g4481
sg75
(lp4488
(lp4489
(g4166
(S's\x10\x00\x00\x00T\xc3\xa9l\xc3\xa9chargement'
tRp4490
I00
S'http://www.web2py.com/examples/default/download'
p4491
tp4492
a(g4166
(S't\x07\x00\x00\x00Support'
tRp4493
I00
S'http://www.web2py.com/examples/default/support'
p4494
tp4495
a(g4166
(S's\x05\x00\x00\x00D\xc3\xa9mo'
tRp4496
I00
S'http://web2py.com/demo_admin'
p4497
tp4498
a(g4166
(S's\x10\x00\x00\x00Examples Rapides'
tRp4499
I00
S'http://web2py.com/examples/default/examples'
p4500
tp4501
a(g4166
(S't\x03\x00\x00\x00FAQ'
tRp4502
I00
S'http://web2py.com/AlterEgo'
p4503
tp4504
a(g4166
(S's\x07\x00\x00\x00Vid\xc3\xa9os'
tRp4505
I00
S'http://www.web2py.com/examples/default/videos/'
p4506
tp4507
a(g4166
(S's\x16\x00\x00\x00Applications gratuites'
tRp4508
I00
S'http://web2py.com/appliances'
p4509
tp4510
a(g4166
(S't\n\x00\x00\x00Plugiciels'
tRp4511
I00
S'http://web2py.com/plugins'
p4512
tp4513
a(g4166
(S't\x07\x00\x00\x00Layouts'
tRp4514
I00
S'http://web2py.com/layouts'
p4515
tp4516
a(g4166
(S't\x08\x00\x00\x00Recettes'
tRp4517
I00
S'http://web2pyslices.com/'
p4518
tp4519
a(g4166
(S's\x0b\x00\x00\x00S\xc3\xa9mantique'
tRp4520
I00
S'http://web2py.com/semantic'
p4521
tp4522
aasbasbasbasbasbasbasbag68
(g84
g70
NtRp4523
(dp4524
g73
(dp4525
sg82
g4280
sg75
(lp4526
g68
(g89
g70
NtRp4527
(dp4528
g73
(dp4529
sg82
g4523
sg75
(lp4530
g68
(g69
g70
NtRp4531
(dp4532
g73
(dp4533
g81
I2
ssg82
g4527
sg75
(lp4534
g68
(g77
g70
NtRp4535
(dp4536
g73
(dp4537
g81
I1
ssg82
Nsg75
(lp4538
g68
(g84
g70
NtRp4539
(dp4540
g73
(dp4541
sg82
g4535
sg75
(lp4542
g68
(g89
g70
NtRp4543
(dp4544
g73
(dp4545
sg82
g4539
sg75
(lp4546
g68
(g69
g70
NtRp4547
(dp4548
g73
(dp4549
g81
I1
ssg82
g4543
sg75
(lp4550
g4166
(S't\r\x00\x00\x00Documentation'
tRp4551
asbasbasbag68
(g84
g70
NtRp4552
(dp4553
g73
(dp4554
sg82
g4535
sg75
(lp4555
g68
(g89
g70
NtRp4556
(dp4557
g73
(dp4558
sg82
g4552
sg75
(lp4559
g68
(g69
g70
NtRp4560
(dp4561
g73
(dp4562
g81
I1
ssg82
g4556
sg75
(lp4563
I00
asbasbasbag68
(g84
g70
NtRp4564
(dp4565
g73
(dp4566
sg82
g4535
sg75
(lp4567
g68
(g89
g70
NtRp4568
(dp4569
g73
(dp4570
sg82
g4564
sg75
(lp4571
g68
(g69
g70
NtRp4572
(dp4573
g73
(dp4574
g81
I1
ssg82
g4568
sg75
(lp4575
S'http://www.web2py.com/book'
p4576
asbasbasbag68
(g84
g70
NtRp4577
(dp4578
g73
(dp4579
sg82
g4535
sg75
(lp4580
g68
(g89
g70
NtRp4581
(dp4582
g73
(dp4583
sg82
g4577
sg75
(lp4584
g68
(g69
g70
NtRp4585
(dp4586
g73
(dp4587
g81
I1
ssg82
g4581
sg75
(lp4588
(lp4589
(g4166
(S's\x08\x00\x00\x00Pr\xc3\xa9face'
tRp4590
I00
S'http://www.web2py.com/book/default/chapter/00'
p4591
tp4592
a(g4166
(S't\x0c\x00\x00\x00Introduction'
tRp4593
I00
S'http://www.web2py.com/book/default/chapter/01'
p4594
tp4595
a(g4166
(S't\x06\x00\x00\x00Python'
tRp4596
I00
S'http://www.web2py.com/book/default/chapter/02'
p4597
tp4598
a(g4166
(S's\r\x00\x00\x00Pr\xc3\xa9sentation'
tRp4599
I00
S'http://www.web2py.com/book/default/chapter/03'
p4600
tp4601
a(g4166
(S's\x08\x00\x00\x00Le noyau'
tRp4602
I00
S'http://www.web2py.com/book/default/chapter/04'
p4603
tp4604
a(g4166
(S's\x08\x00\x00\x00Les Vues'
tRp4605
I00
S'http://www.web2py.com/book/default/chapter/05'
p4606
tp4607
a(g4166
(S's\x10\x00\x00\x00Base de donn\xc3\xa9es'
tRp4608
I00
S'http://www.web2py.com/book/default/chapter/06'
p4609
tp4610
a(g4166
(S's\x1a\x00\x00\x00Formulaires et Validateurs'
tRp4611
I00
S'http://www.web2py.com/book/default/chapter/07'
p4612
tp4613
a(g4166
(S's\r\x00\x00\x00Email and SMS'
tRp4614
I00
S'http://www.web2py.com/book/default/chapter/08'
p4615
tp4616
a(g4166
(S"s\x12\x00\x00\x00Contr\xc3\xb4le d'acc\xc3\xa8s"
tRp4617
I00
S'http://www.web2py.com/book/default/chapter/09'
p4618
tp4619
a(g4166
(S't\x08\x00\x00\x00Services'
tRp4620
I00
S'http://www.web2py.com/book/default/chapter/10'
p4621
tp4622
a(g4166
(S's\r\x00\x00\x00Recettes Ajax'
tRp4623
I00
S'http://www.web2py.com/book/default/chapter/11'
p4624
tp4625
a(g4166
(S's\x16\x00\x00\x00Components and Plugins'
tRp4626
I00
S'http://www.web2py.com/book/default/chapter/12'
p4627
tp4628
a(g4166
(S's\x18\x00\x00\x00Recettes de d\xc3\xa9ploiement'
tRp4629
I00
S'http://www.web2py.com/book/default/chapter/13'
p4630
tp4631
a(g4166
(S's\x0f\x00\x00\x00Autres recettes'
tRp4632
I00
S'http://www.web2py.com/book/default/chapter/14'
p4633
tp4634
a(g4166
(S's\x10\x00\x00\x00Acheter ce livre'
tRp4635
I00
S'http://stores.lulu.com/web2py'
p4636
tp4637
aasbasbasbasbasbasbasbag68
(g84
g70
NtRp4638
(dp4639
g73
(dp4640
sg82
g4280
sg75
(lp4641
g68
(g89
g70
NtRp4642
(dp4643
g73
(dp4644
sg82
g4638
sg75
(lp4645
g68
(g69
g70
NtRp4646
(dp4647
g73
(dp4648
g81
I2
ssg82
g4642
sg75
(lp4649
g68
(g77
g70
NtRp4650
(dp4651
g73
(dp4652
g81
I1
ssg82
Nsg75
(lp4653
g68
(g84
g70
NtRp4654
(dp4655
g73
(dp4656
sg82
g4650
sg75
(lp4657
g68
(g89
g70
NtRp4658
(dp4659
g73
(dp4660
sg82
g4654
sg75
(lp4661
g68
(g69
g70
NtRp4662
(dp4663
g73
(dp4664
g81
I1
ssg82
g4658
sg75
(lp4665
g4166
(S's\x0b\x00\x00\x00Communaut\xc3\xa9'
tRp4666
asbasbasbag68
(g84
g70
NtRp4667
(dp4668
g73
(dp4669
sg82
g4650
sg75
(lp4670
g68
(g89
g70
NtRp4671
(dp4672
g73
(dp4673
sg82
g4667
sg75
(lp4674
g68
(g69
g70
NtRp4675
(dp4676
g73
(dp4677
g81
I1
ssg82
g4671
sg75
(lp4678
I00
asbasbasbag68
(g84
g70
NtRp4679
(dp4680
g73
(dp4681
sg82
g4650
sg75
(lp4682
g68
(g89
g70
NtRp4683
(dp4684
g73
(dp4685
sg82
g4679
sg75
(lp4686
g68
(g69
g70
NtRp4687
(dp4688
g73
(dp4689
g81
I1
ssg82
g4683
sg75
(lp4690
Nasbasbasbag68
(g84
g70
NtRp4691
(dp4692
g73
(dp4693
sg82
g4650
sg75
(lp4694
g68
(g89
g70
NtRp4695
(dp4696
g73
(dp4697
sg82
g4691
sg75
(lp4698
g68
(g69
g70
NtRp4699
(dp4700
g73
(dp4701
g81
I1
ssg82
g4695
sg75
(lp4702
(lp4703
(g4166
(S't\x06\x00\x00\x00Groups'
tRp4704
I00
S'http://www.web2py.com/examples/default/usergroups'
p4705
tp4706
a(g4166
(S't\x07\x00\x00\x00Twitter'
tRp4707
I00
S'http://twitter.com/web2py'
p4708
tp4709
a(g4166
(S's\t\x00\x00\x00Live Chat'
tRp4710
I00
S'http://webchat.freenode.net/?channels=web2py'
p4711
tp4712
aasbasbasbasbasbasbasbag68
(g84
g70
NtRp4713
(dp4714
g73
(dp4715
sg82
g4280
sg75
(lp4716
g68
(g89
g70
NtRp4717
(dp4718
g73
(dp4719
sg82
g4713
sg75
(lp4720
g68
(g69
g70
NtRp4721
(dp4722
g73
(dp4723
g81
I2
ssg82
g4717
sg75
(lp4724
g68
(g77
g70
NtRp4725
(dp4726
g73
(dp4727
g81
I1
ssg82
Nsg75
(lp4728
g68
(g84
g70
NtRp4729
(dp4730
g73
(dp4731
sg82
g4725
sg75
(lp4732
g68
(g89
g70
NtRp4733
(dp4734
g73
(dp4735
sg82
g4729
sg75
(lp4736
g68
(g69
g70
NtRp4737
(dp4738
g73
(dp4739
g81
I1
ssg82
g4733
sg75
(lp4740
g4166
(S't\n\x00\x00\x00Plugiciels'
tRp4741
asbasbasbag68
(g84
g70
NtRp4742
(dp4743
g73
(dp4744
sg82
g4725
sg75
(lp4745
g68
(g89
g70
NtRp4746
(dp4747
g73
(dp4748
sg82
g4742
sg75
(lp4749
g68
(g69
g70
NtRp4750
(dp4751
g73
(dp4752
g81
I1
ssg82
g4746
sg75
(lp4753
I00
asbasbasbag68
(g84
g70
NtRp4754
(dp4755
g73
(dp4756
sg82
g4725
sg75
(lp4757
g68
(g89
g70
NtRp4758
(dp4759
g73
(dp4760
sg82
g4754
sg75
(lp4761
g68
(g69
g70
NtRp4762
(dp4763
g73
(dp4764
g81
I1
ssg82
g4758
sg75
(lp4765
Nasbasbasbag68
(g84
g70
NtRp4766
(dp4767
g73
(dp4768
sg82
g4725
sg75
(lp4769
g68
(g89
g70
NtRp4770
(dp4771
g73
(dp4772
sg82
g4766
sg75
(lp4773
g68
(g69
g70
NtRp4774
(dp4775
g73
(dp4776
g81
I1
ssg82
g4770
sg75
(lp4777
(lp4778
(S'plugin_wiki'
p4779
I00
S'http://web2py.com/examples/default/download'
p4780
tp4781
a(g4166
(S's\r\x00\x00\x00Other Plugins'
tRp4782
I00
g4512
tp4783
a(g4166
(S's\x0e\x00\x00\x00Layout Plugins'
tRp4784
I00
g4515
tp4785
aasbasbasbasbasbasbasbasbasbasbasbasbasbasbasbasbasbasbasbag68
(g84
g70
NtRp4786
(dp4787
g73
(dp4788
sg82
g3610
sg75
(lp4789
g68
(g89
g70
NtRp4790
(dp4791
g73
(dp4792
g93
g94
ssg82
g4786
sg75
(lp4793
S'meta'
p4794
asbag68
(g89
g70
NtRp4795
(dp4796
g73
(dp4797
g100
g101
ssg82
g4786
sg75
(lp4798
S':'
asbag68
(g89
g70
NtRp4799
(dp4800
g73
(dp4801
sg82
g4786
sg75
(lp4802
g68
(g69
g70
NtRp4803
(dp4804
g73
(dp4805
g81
I5
ssg82
g4799
sg75
(lp4806
g68
(g77
g70
NtRp4807
(dp4808
g73
(dp4809
g81
I4
ssg82
Nsg75
(lp4810
g68
(g84
g70
NtRp4811
(dp4812
g73
(dp4813
sg82
g4807
sg75
(lp4814
g68
(g89
g70
NtRp4815
(dp4816
g73
(dp4817
g93
g94
ssg82
g4811
sg75
(lp4818
S'author'
p4819
asbag68
(g89
g70
NtRp4820
(dp4821
g73
(dp4822
g100
g101
ssg82
g4811
sg75
(lp4823
S':'
asbag68
(g89
g70
NtRp4824
(dp4825
g73
(dp4826
sg82
g4811
sg75
(lp4827
g68
(g69
g70
NtRp4828
(dp4829
g73
(dp4830
g81
I4
ssg82
g4824
sg75
(lp4831
S'Your Name <you@example.com>'
p4832
asbasbasbag68
(g84
g70
NtRp4833
(dp4834
g73
(dp4835
sg82
g4807
sg75
(lp4836
g68
(g89
g70
NtRp4837
(dp4838
g73
(dp4839
g93
g94
ssg82
g4833
sg75
(lp4840
S'copyright'
p4841
asbag68
(g89
g70
NtRp4842
(dp4843
g73
(dp4844
g100
g101
ssg82
g4833
sg75
(lp4845
S':'
asbag68
(g89
g70
NtRp4846
(dp4847
g73
(dp4848
sg82
g4833
sg75
(lp4849
g68
(g69
g70
NtRp4850
(dp4851
g73
(dp4852
g81
I4
ssg82
g4846
sg75
(lp4853
S'Copyright 2011'
p4854
asbasbasbag68
(g84
g70
NtRp4855
(dp4856
g73
(dp4857
sg82
g4807
sg75
(lp4858
g68
(g89
g70
NtRp4859
(dp4860
g73
(dp4861
g93
g94
ssg82
g4855
sg75
(lp4862
S'description'
p4863
asbag68
(g89
g70
NtRp4864
(dp4865
g73
(dp4866
g100
g101
ssg82
g4855
sg75
(lp4867
S':'
asbag68
(g89
g70
NtRp4868
(dp4869
g73
(dp4870
sg82
g4855
sg75
(lp4871
g68
(g69
g70
NtRp4872
(dp4873
g73
(dp4874
g81
I4
ssg82
g4868
sg75
(lp4875
S'a cool new app'
p4876
asbasbasbag68
(g84
g70
NtRp4877
(dp4878
g73
(dp4879
sg82
g4807
sg75
(lp4880
g68
(g89
g70
NtRp4881
(dp4882
g73
(dp4883
g93
g94
ssg82
g4877
sg75
(lp4884
S'generator'
p4885
asbag68
(g89
g70
NtRp4886
(dp4887
g73
(dp4888
g100
g101
ssg82
g4877
sg75
(lp4889
S':'
asbag68
(g89
g70
NtRp4890
(dp4891
g73
(dp4892
sg82
g4877
sg75
(lp4893
g68
(g69
g70
NtRp4894
(dp4895
g73
(dp4896
g81
I4
ssg82
g4890
sg75
(lp4897
S'Web2py Web Framework'
p4898
asbasbasbag68
(g84
g70
NtRp4899
(dp4900
g73
(dp4901
sg82
g4807
sg75
(lp4902
g68
(g89
g70
NtRp4903
(dp4904
g73
(dp4905
g93
g94
ssg82
g4899
sg75
(lp4906
S'keywords'
p4907
asbag68
(g89
g70
NtRp4908
(dp4909
g73
(dp4910
g100
g101
ssg82
g4899
sg75
(lp4911
S':'
asbag68
(g89
g70
NtRp4912
(dp4913
g73
(dp4914
sg82
g4899
sg75
(lp4915
g68
(g69
g70
NtRp4916
(dp4917
g73
(dp4918
g81
I4
ssg82
g4912
sg75
(lp4919
S'web2py, python, framework'
p4920
asbasbasbasbasbasbasbag68
(g84
g70
NtRp4921
(dp4922
g73
(dp4923
sg82
g3610
sg75
(lp4924
g68
(g89
g70
NtRp4925
(dp4926
g73
(dp4927
g93
g94
ssg82
g4921
sg75
(lp4928
S'postprocessing'
p4929
asbag68
(g89
g70
NtRp4930
(dp4931
g73
(dp4932
g100
g101
ssg82
g4921
sg75
(lp4933
S':'
asbag68
(g89
g70
NtRp4934
(dp4935
g73
(dp4936
sg82
g4921
sg75
(lp4937
g68
(g69
g70
NtRp4938
(dp4939
g73
(dp4940
g81
I5
ssg82
g4934
sg75
(lp4941
g68
(g77
g70
NtRp4942
(dp4943
g73
(dp4944
g81
I4
ssg82
Nsg75
(lp4945
sbasbasbasbag68
(g84
g70
NtRp4946
(dp4947
g73
(dp4948
sg82
g3610
sg75
(lp4949
g68
(g89
g70
NtRp4950
(dp4951
g73
(dp4952
g93
g94
ssg82
g4946
sg75
(lp4953
S'session_file'
p4954
asbag68
(g89
g70
NtRp4955
(dp4956
g73
(dp4957
g100
g101
ssg82
g4946
sg75
(lp4958
S':'
asbag68
(g89
g70
NtRp4959
(dp4960
g73
(dp4961
sg82
g4946
sg75
(lp4962
g68
(g69
g70
NtRp4963
(dp4964
g73
(dp4965
g81
I5
ssg82
g4959
sg75
(lp4966
S"<open file '/web2py/applications/snapcop2_web2py/sessions/127.0.0.1-cef799a3-e7ef-4267-81c1-6c89039dd232', mode 'rb+' at 0x7f49cc34d150>"
p4967
asbasbasbag68
(g84
g70
NtRp4968
(dp4969
g73
(dp4970
sg82
g3610
sg75
(lp4971
g68
(g89
g70
NtRp4972
(dp4973
g73
(dp4974
g93
g94
ssg82
g4968
sg75
(lp4975
S'session_filename'
p4976
asbag68
(g89
g70
NtRp4977
(dp4978
g73
(dp4979
g100
g101
ssg82
g4968
sg75
(lp4980
S':'
asbag68
(g89
g70
NtRp4981
(dp4982
g73
(dp4983
sg82
g4968
sg75
(lp4984
g68
(g69
g70
NtRp4985
(dp4986
g73
(dp4987
g81
I5
ssg82
g4981
sg75
(lp4988
S'/web2py/applications/snapcop2_web2py/sessions/127.0.0.1-cef799a3-e7ef-4267-81c1-6c89039dd232'
p4989
asbasbasbag68
(g84
g70
NtRp4990
(dp4991
g73
(dp4992
sg82
g3610
sg75
(lp4993
g68
(g89
g70
NtRp4994
(dp4995
g73
(dp4996
g93
g94
ssg82
g4990
sg75
(lp4997
S'session_id'
p4998
asbag68
(g89
g70
NtRp4999
(dp5000
g73
(dp5001
g100
g101
ssg82
g4990
sg75
(lp5002
S':'
asbag68
(g89
g70
NtRp5003
(dp5004
g73
(dp5005
sg82
g4990
sg75
(lp5006
g68
(g69
g70
NtRp5007
(dp5008
g73
(dp5009
g81
I5
ssg82
g5003
sg75
(lp5010
S'127.0.0.1-cef799a3-e7ef-4267-81c1-6c89039dd232'
p5011
asbasbasbag68
(g84
g70
NtRp5012
(dp5013
g73
(dp5014
sg82
g3610
sg75
(lp5015
g68
(g89
g70
NtRp5016
(dp5017
g73
(dp5018
g93
g94
ssg82
g5012
sg75
(lp5019
S'session_id_name'
p5020
asbag68
(g89
g70
NtRp5021
(dp5022
g73
(dp5023
g100
g101
ssg82
g5012
sg75
(lp5024
S':'
asbag68
(g89
g70
NtRp5025
(dp5026
g73
(dp5027
sg82
g5012
sg75
(lp5028
g68
(g69
g70
NtRp5029
(dp5030
g73
(dp5031
g81
I5
ssg82
g5025
sg75
(lp5032
g3667
asbasbasbag68
(g84
g70
NtRp5033
(dp5034
g73
(dp5035
sg82
g3610
sg75
(lp5036
g68
(g89
g70
NtRp5037
(dp5038
g73
(dp5039
g93
g94
ssg82
g5033
sg75
(lp5040
S'session_locked'
p5041
asbag68
(g89
g70
NtRp5042
(dp5043
g73
(dp5044
g100
g101
ssg82
g5033
sg75
(lp5045
S':'
asbag68
(g89
g70
NtRp5046
(dp5047
g73
(dp5048
sg82
g5033
sg75
(lp5049
g68
(g69
g70
NtRp5050
(dp5051
g73
(dp5052
g81
I5
ssg82
g5046
sg75
(lp5053
g1960
asbasbasbag68
(g84
g70
NtRp5054
(dp5055
g73
(dp5056
sg82
g3610
sg75
(lp5057
g68
(g89
g70
NtRp5058
(dp5059
g73
(dp5060
g93
g94
ssg82
g5054
sg75
(lp5061
S'session_new'
p5062
asbag68
(g89
g70
NtRp5063
(dp5064
g73
(dp5065
g100
g101
ssg82
g5054
sg75
(lp5066
S':'
asbag68
(g89
g70
NtRp5067
(dp5068
g73
(dp5069
sg82
g5054
sg75
(lp5070
g68
(g69
g70
NtRp5071
(dp5072
g73
(dp5073
g81
I5
ssg82
g5067
sg75
(lp5074
g111
asbasbasbag68
(g84
g70
NtRp5075
(dp5076
g73
(dp5077
sg82
g3610
sg75
(lp5078
g68
(g89
g70
NtRp5079
(dp5080
g73
(dp5081
g93
g94
ssg82
g5075
sg75
(lp5082
S'status'
p5083
asbag68
(g89
g70
NtRp5084
(dp5085
g73
(dp5086
g100
g101
ssg82
g5075
sg75
(lp5087
S':'
asbag68
(g89
g70
NtRp5088
(dp5089
g73
(dp5090
sg82
g5075
sg75
(lp5091
g68
(g69
g70
NtRp5092
(dp5093
g73
(dp5094
g81
I5
ssg82
g5088
sg75
(lp5095
S'200'
p5096
asbasbasbag68
(g84
g70
NtRp5097
(dp5098
g73
(dp5099
sg82
g3610
sg75
(lp5100
g68
(g89
g70
NtRp5101
(dp5102
g73
(dp5103
g93
g94
ssg82
g5097
sg75
(lp5104
S'subtitle'
p5105
asbag68
(g89
g70
NtRp5106
(dp5107
g73
(dp5108
g100
g101
ssg82
g5097
sg75
(lp5109
S':'
asbag68
(g89
g70
NtRp5110
(dp5111
g73
(dp5112
sg82
g5097
sg75
(lp5113
g68
(g69
g70
NtRp5114
(dp5115
g73
(dp5116
g81
I5
ssg82
g5110
sg75
(lp5117
g4166
(S's\x12\x00\x00\x00personnalisez-moi!'
tRp5118
asbasbasbag68
(g84
g70
NtRp5119
(dp5120
g73
(dp5121
sg82
g3610
sg75
(lp5122
g68
(g89
g70
NtRp5123
(dp5124
g73
(dp5125
g93
g94
ssg82
g5119
sg75
(lp5126
S'title'
p5127
asbag68
(g89
g70
NtRp5128
(dp5129
g73
(dp5130
g100
g101
ssg82
g5119
sg75
(lp5131
S':'
asbag68
(g89
g70
NtRp5132
(dp5133
g73
(dp5134
sg82
g5119
sg75
(lp5135
g68
(g69
g70
NtRp5136
(dp5137
g73
(dp5138
g81
I5
ssg82
g5132
sg75
(lp5139
S'Snapcop2 Web2py'
p5140
asbasbasbag68
(g84
g70
NtRp5141
(dp5142
g73
(dp5143
sg82
g3610
sg75
(lp5144
g68
(g89
g70
NtRp5145
(dp5146
g73
(dp5147
g93
g94
ssg82
g5141
sg75
(lp5148
g2712
asbag68
(g89
g70
NtRp5149
(dp5150
g73
(dp5151
g100
g101
ssg82
g5141
sg75
(lp5152
S':'
asbag68
(g89
g70
NtRp5153
(dp5154
g73
(dp5155
sg82
g5141
sg75
(lp5156
g68
(g69
g70
NtRp5157
(dp5158
g73
(dp5159
g81
I5
ssg82
g5153
sg75
(lp5160
g2725
asbasbasbag68
(g84
g70
NtRp5161
(dp5162
g73
(dp5163
sg82
g3610
sg75
(lp5164
g68
(g89
g70
NtRp5165
(dp5166
g73
(dp5167
g93
g94
ssg82
g5161
sg75
(lp5168
S'view'
p5169
asbag68
(g89
g70
NtRp5170
(dp5171
g73
(dp5172
g100
g101
ssg82
g5161
sg75
(lp5173
S':'
asbag68
(g89
g70
NtRp5174
(dp5175
g73
(dp5176
sg82
g5161
sg75
(lp5177
g68
(g69
g70
NtRp5178
(dp5179
g73
(dp5180
g81
I5
ssg82
g5174
sg75
(lp5181
S'form/first.html'
p5182
asbasbasbasbasbsS'locals'
p5183
(dp5184
g4
S"'/web2py/applications/snapcop2_web2py/controllers/form.py'"
p5185
sg6
S"'# -*- coding: utf-8 -*-\\n\\nimport redis\\ncx = redis...rm.vars)\\n\\nresponse._vars=response._caller(first)\\n'"
p5186
sssS'traceback'
p5187
S'Traceback (most recent call last):\n  File "/web2py/gluon/restricted.py", line 204, in restricted\n    ccode = compile2(code,layer)\n  File "/web2py/gluon/restricted.py", line 189, in compile2\n    return compile(code.rstrip().replace(\'\\r\\n\',\'\\n\')+\'\\n\', layer, \'exec\')\n  File "/web2py/applications/snapcop2_web2py/controllers/form.py", line 9\n    TR("Substrat:",INPUT(_type="text",_name="substrat",requires=IS_NOT_EMPTY())),\n     ^\nSyntaxError: invalid syntax\n'
p5188
s.