(dp1
S'output'
p2
S"<type 'exceptions.SyntaxError'> invalid syntax (form.py, line 16)"
p3
sS'layer'
p4
S'/web2py/applications/snapcop2/controllers/form.py'
p5
sS'code'
p6
S'# -*- coding: utf-8 -*-\n\ndef form():\n    form=FORM(TABLE(TR("Codification de la souche:",INPUT(_type="text",_name="souche",requires=IS_NOT_EMPTY())),\n                    TR("Substrat:",INPUT(_type="text",_name="substrat",requires=IS_NOT_EMPTY())),\n                    TR("Dur\xc3\xa9e de fermentation:",INPUT(_type="text",_name="ferm",requires=IS_NOT_EMPTY())),\n                    TR("Commentaires",TEXTAREA(_name="profile",value="Ecrivez vos commentaires ici")),\n                    TR("",INPUT(_type="submit",_value="SUBMIT"))))\n    if form.accepts(request,session):\n        response.flash="formulaire accept\xc3\xa9"\n    elif form.errors:\n        response.flash="formulaire invalide"\n    else:\n        response.flash="Remplissez ce formulaire"\n    return dict(form=form,vars=form.vars)\n    name = print trim(request.form("souche"))\n    return name\n\nresponse._vars=response._caller(form)\n'
p7
sS'snapshot'
p8
(dp9
S'exception'
p10
(dp11
S'__getslice__'
p12
S"<method-wrapper '__getslice__' of exceptions.SyntaxError object>"
p13
sS'text'
p14
S'\'    name = print trim(request.form("souche"))\\n\''
p15
sS'__str__'
p16
S"<method-wrapper '__str__' of exceptions.SyntaxError object>"
p17
sS'__reduce__'
p18
S'<built-in method __reduce__ of exceptions.SyntaxError object>'
p19
sS'__dict__'
p20
S'{}'
p21
sS'__sizeof__'
p22
S'<built-in method __sizeof__ of exceptions.SyntaxError object>'
p23
sS'__init__'
p24
S"<method-wrapper '__init__' of exceptions.SyntaxError object>"
p25
sS'__setattr__'
p26
S"<method-wrapper '__setattr__' of exceptions.SyntaxError object>"
p27
sS'__reduce_ex__'
p28
S'<built-in method __reduce_ex__ of exceptions.SyntaxError object>'
p29
sS'__new__'
p30
S'<built-in method __new__ of type object>'
p31
sS'__format__'
p32
S'<built-in method __format__ of exceptions.SyntaxError object>'
p33
sS'__class__'
p34
S"<type 'exceptions.SyntaxError'>"
p35
sS'filename'
p36
S"'/web2py/applications/snapcop2/controllers/form.py'"
p37
sS'lineno'
p38
S'16'
p39
sS'msg'
p40
S"'invalid syntax'"
p41
sS'__doc__'
p42
S"'Invalid syntax.'"
p43
sS'__getitem__'
p44
S"<method-wrapper '__getitem__' of exceptions.SyntaxError object>"
p45
sS'__setstate__'
p46
S'<built-in method __setstate__ of exceptions.SyntaxError object>'
p47
sS'__getattribute__'
p48
S"<method-wrapper '__getattribute__' of exceptions.SyntaxError object>"
p49
sS'print_file_and_line'
p50
S'None'
p51
sS'args'
p52
S'(\'invalid syntax\', (\'/web2py/applications/snapcop2/controllers/form.py\', 16, 16, \'    name = print trim(request.form("souche"))\\n\'))'
p53
sS'__subclasshook__'
p54
S'<built-in method __subclasshook__ of type object>'
p55
sS'offset'
p56
S'16'
p57
sS'__unicode__'
p58
S'<built-in method __unicode__ of exceptions.SyntaxError object>'
p59
sS'__delattr__'
p60
S"<method-wrapper '__delattr__' of exceptions.SyntaxError object>"
p61
sS'__repr__'
p62
S"<method-wrapper '__repr__' of exceptions.SyntaxError object>"
p63
sS'__hash__'
p64
S"<method-wrapper '__hash__' of exceptions.SyntaxError object>"
p65
ssS'evalue'
p66
S'invalid syntax (form.py, line 16)'
p67
sS'request'
p68
ccopy_reg
_reconstructor
p69
(cgluon.html
BEAUTIFY
p70
c__builtin__
object
p71
NtRp72
(dp73
S'attributes'
p74
(dp75
sS'components'
p76
(lp77
g69
(cgluon.html
TABLE
p78
g71
NtRp79
(dp80
g74
(dp81
S'level'
p82
I5
ssS'parent'
p83
Nsg76
(lp84
g69
(cgluon.html
TR
p85
g71
NtRp86
(dp87
g74
(dp88
sg83
g79
sg76
(lp89
g69
(cgluon.html
TD
p90
g71
NtRp91
(dp92
g74
(dp93
S'_style'
p94
S'font-weight:bold;vertical-align:top'
p95
ssg83
g86
sg76
(lp96
S'ajax'
p97
asbag69
(g90
g71
NtRp98
(dp99
g74
(dp100
S'_valign'
p101
S'top'
p102
ssg83
g86
sg76
(lp103
S':'
asbag69
(g90
g71
NtRp104
(dp105
g74
(dp106
sg83
g86
sg76
(lp107
g69
(g70
g71
NtRp108
(dp109
g74
(dp110
g82
I5
ssg83
g104
sg76
(lp111
S'False'
p112
asbasbasbag69
(g85
g71
NtRp113
(dp114
g74
(dp115
sg83
g79
sg76
(lp116
g69
(g90
g71
NtRp117
(dp118
g74
(dp119
g94
g95
ssg83
g113
sg76
(lp120
S'application'
p121
asbag69
(g90
g71
NtRp122
(dp123
g74
(dp124
g101
g102
ssg83
g113
sg76
(lp125
S':'
asbag69
(g90
g71
NtRp126
(dp127
g74
(dp128
sg83
g113
sg76
(lp129
g69
(g70
g71
NtRp130
(dp131
g74
(dp132
g82
I5
ssg83
g126
sg76
(lp133
S'snapcop2'
p134
asbasbasbag69
(g85
g71
NtRp135
(dp136
g74
(dp137
sg83
g79
sg76
(lp138
g69
(g90
g71
NtRp139
(dp140
g74
(dp141
g94
g95
ssg83
g135
sg76
(lp142
g52
asbag69
(g90
g71
NtRp143
(dp144
g74
(dp145
g101
g102
ssg83
g135
sg76
(lp146
S':'
asbag69
(g90
g71
NtRp147
(dp148
g74
(dp149
sg83
g135
sg76
(lp150
g69
(g70
g71
NtRp151
(dp152
g74
(dp153
g82
I5
ssg83
g147
sg76
(lp154
g69
(g78
g71
NtRp155
(dp156
g74
(dp157
g82
I4
ssg83
Nsg76
(lp158
sbasbasbasbag69
(g85
g71
NtRp159
(dp160
g74
(dp161
sg83
g79
sg76
(lp162
g69
(g90
g71
NtRp163
(dp164
g74
(dp165
g94
g95
ssg83
g159
sg76
(lp166
S'body'
p167
asbag69
(g90
g71
NtRp168
(dp169
g74
(dp170
g101
g102
ssg83
g159
sg76
(lp171
S':'
asbag69
(g90
g71
NtRp172
(dp173
g74
(dp174
sg83
g159
sg76
(lp175
g69
(g70
g71
NtRp176
(dp177
g74
(dp178
g82
I5
ssg83
g172
sg76
(lp179
S'<cStringIO.StringO object at 0x2f88c38>'
p180
asbasbasbag69
(g85
g71
NtRp181
(dp182
g74
(dp183
sg83
g79
sg76
(lp184
g69
(g90
g71
NtRp185
(dp186
g74
(dp187
g94
g95
ssg83
g181
sg76
(lp188
S'client'
p189
asbag69
(g90
g71
NtRp190
(dp191
g74
(dp192
g101
g102
ssg83
g181
sg76
(lp193
S':'
asbag69
(g90
g71
NtRp194
(dp195
g74
(dp196
sg83
g181
sg76
(lp197
g69
(g70
g71
NtRp198
(dp199
g74
(dp200
g82
I5
ssg83
g194
sg76
(lp201
S'127.0.0.1'
p202
asbasbasbag69
(g85
g71
NtRp203
(dp204
g74
(dp205
sg83
g79
sg76
(lp206
g69
(g90
g71
NtRp207
(dp208
g74
(dp209
g94
g95
ssg83
g203
sg76
(lp210
S'controller'
p211
asbag69
(g90
g71
NtRp212
(dp213
g74
(dp214
g101
g102
ssg83
g203
sg76
(lp215
S':'
asbag69
(g90
g71
NtRp216
(dp217
g74
(dp218
sg83
g203
sg76
(lp219
g69
(g70
g71
NtRp220
(dp221
g74
(dp222
g82
I5
ssg83
g216
sg76
(lp223
S'form'
p224
asbasbasbag69
(g85
g71
NtRp225
(dp226
g74
(dp227
sg83
g79
sg76
(lp228
g69
(g90
g71
NtRp229
(dp230
g74
(dp231
g94
g95
ssg83
g225
sg76
(lp232
S'cookies'
p233
asbag69
(g90
g71
NtRp234
(dp235
g74
(dp236
g101
g102
ssg83
g225
sg76
(lp237
S':'
asbag69
(g90
g71
NtRp238
(dp239
g74
(dp240
sg83
g225
sg76
(lp241
g69
(g70
g71
NtRp242
(dp243
g74
(dp244
g82
I5
ssg83
g238
sg76
(lp245
g69
(g78
g71
NtRp246
(dp247
g74
(dp248
g82
I4
ssg83
Nsg76
(lp249
g69
(g85
g71
NtRp250
(dp251
g74
(dp252
sg83
g246
sg76
(lp253
g69
(g90
g71
NtRp254
(dp255
g74
(dp256
g94
g95
ssg83
g250
sg76
(lp257
S'session_id_admin'
p258
asbag69
(g90
g71
NtRp259
(dp260
g74
(dp261
g101
g102
ssg83
g250
sg76
(lp262
S':'
asbag69
(g90
g71
NtRp263
(dp264
g74
(dp265
sg83
g250
sg76
(lp266
g69
(g70
g71
NtRp267
(dp268
g74
(dp269
g82
I4
ssg83
g263
sg76
(lp270
g69
(g78
g71
NtRp271
(dp272
g74
(dp273
g82
I3
ssg83
Nsg76
(lp274
g69
(g85
g71
NtRp275
(dp276
g74
(dp277
sg83
g271
sg76
(lp278
g69
(g90
g71
NtRp279
(dp280
g74
(dp281
g94
g95
ssg83
g275
sg76
(lp282
S'comment'
p283
asbag69
(g90
g71
NtRp284
(dp285
g74
(dp286
g101
g102
ssg83
g275
sg76
(lp287
S':'
asbag69
(g90
g71
NtRp288
(dp289
g74
(dp290
sg83
g275
sg76
(lp291
g69
(g70
g71
NtRp292
(dp293
g74
(dp294
g82
I3
ssg83
g288
sg76
(lp295
S''
asbasbasbag69
(g85
g71
NtRp296
(dp297
g74
(dp298
sg83
g271
sg76
(lp299
g69
(g90
g71
NtRp300
(dp301
g74
(dp302
g94
g95
ssg83
g296
sg76
(lp303
S'domain'
p304
asbag69
(g90
g71
NtRp305
(dp306
g74
(dp307
g101
g102
ssg83
g296
sg76
(lp308
S':'
asbag69
(g90
g71
NtRp309
(dp310
g74
(dp311
sg83
g296
sg76
(lp312
g69
(g70
g71
NtRp313
(dp314
g74
(dp315
g82
I3
ssg83
g309
sg76
(lp316
S''
asbasbasbag69
(g85
g71
NtRp317
(dp318
g74
(dp319
sg83
g271
sg76
(lp320
g69
(g90
g71
NtRp321
(dp322
g74
(dp323
g94
g95
ssg83
g317
sg76
(lp324
S'expires'
p325
asbag69
(g90
g71
NtRp326
(dp327
g74
(dp328
g101
g102
ssg83
g317
sg76
(lp329
S':'
asbag69
(g90
g71
NtRp330
(dp331
g74
(dp332
sg83
g317
sg76
(lp333
g69
(g70
g71
NtRp334
(dp335
g74
(dp336
g82
I3
ssg83
g330
sg76
(lp337
S''
asbasbasbag69
(g85
g71
NtRp338
(dp339
g74
(dp340
sg83
g271
sg76
(lp341
g69
(g90
g71
NtRp342
(dp343
g74
(dp344
g94
g95
ssg83
g338
sg76
(lp345
S'httponly'
p346
asbag69
(g90
g71
NtRp347
(dp348
g74
(dp349
g101
g102
ssg83
g338
sg76
(lp350
S':'
asbag69
(g90
g71
NtRp351
(dp352
g74
(dp353
sg83
g338
sg76
(lp354
g69
(g70
g71
NtRp355
(dp356
g74
(dp357
g82
I3
ssg83
g351
sg76
(lp358
S''
asbasbasbag69
(g85
g71
NtRp359
(dp360
g74
(dp361
sg83
g271
sg76
(lp362
g69
(g90
g71
NtRp363
(dp364
g74
(dp365
g94
g95
ssg83
g359
sg76
(lp366
S'max-age'
p367
asbag69
(g90
g71
NtRp368
(dp369
g74
(dp370
g101
g102
ssg83
g359
sg76
(lp371
S':'
asbag69
(g90
g71
NtRp372
(dp373
g74
(dp374
sg83
g359
sg76
(lp375
g69
(g70
g71
NtRp376
(dp377
g74
(dp378
g82
I3
ssg83
g372
sg76
(lp379
S''
asbasbasbag69
(g85
g71
NtRp380
(dp381
g74
(dp382
sg83
g271
sg76
(lp383
g69
(g90
g71
NtRp384
(dp385
g74
(dp386
g94
g95
ssg83
g380
sg76
(lp387
S'path'
p388
asbag69
(g90
g71
NtRp389
(dp390
g74
(dp391
g101
g102
ssg83
g380
sg76
(lp392
S':'
asbag69
(g90
g71
NtRp393
(dp394
g74
(dp395
sg83
g380
sg76
(lp396
g69
(g70
g71
NtRp397
(dp398
g74
(dp399
g82
I3
ssg83
g393
sg76
(lp400
S''
asbasbasbag69
(g85
g71
NtRp401
(dp402
g74
(dp403
sg83
g271
sg76
(lp404
g69
(g90
g71
NtRp405
(dp406
g74
(dp407
g94
g95
ssg83
g401
sg76
(lp408
S'secure'
p409
asbag69
(g90
g71
NtRp410
(dp411
g74
(dp412
g101
g102
ssg83
g401
sg76
(lp413
S':'
asbag69
(g90
g71
NtRp414
(dp415
g74
(dp416
sg83
g401
sg76
(lp417
g69
(g70
g71
NtRp418
(dp419
g74
(dp420
g82
I3
ssg83
g414
sg76
(lp421
S''
asbasbasbag69
(g85
g71
NtRp422
(dp423
g74
(dp424
sg83
g271
sg76
(lp425
g69
(g90
g71
NtRp426
(dp427
g74
(dp428
g94
g95
ssg83
g422
sg76
(lp429
S'version'
p430
asbag69
(g90
g71
NtRp431
(dp432
g74
(dp433
g101
g102
ssg83
g422
sg76
(lp434
S':'
asbag69
(g90
g71
NtRp435
(dp436
g74
(dp437
sg83
g422
sg76
(lp438
g69
(g70
g71
NtRp439
(dp440
g74
(dp441
g82
I3
ssg83
g435
sg76
(lp442
S''
asbasbasbasbasbasbasbag69
(g85
g71
NtRp443
(dp444
g74
(dp445
sg83
g246
sg76
(lp446
g69
(g90
g71
NtRp447
(dp448
g74
(dp449
g94
g95
ssg83
g443
sg76
(lp450
S'session_id_snapcop2'
p451
asbag69
(g90
g71
NtRp452
(dp453
g74
(dp454
g101
g102
ssg83
g443
sg76
(lp455
S':'
asbag69
(g90
g71
NtRp456
(dp457
g74
(dp458
sg83
g443
sg76
(lp459
g69
(g70
g71
NtRp460
(dp461
g74
(dp462
g82
I4
ssg83
g456
sg76
(lp463
g69
(g78
g71
NtRp464
(dp465
g74
(dp466
g82
I3
ssg83
Nsg76
(lp467
g69
(g85
g71
NtRp468
(dp469
g74
(dp470
sg83
g464
sg76
(lp471
g69
(g90
g71
NtRp472
(dp473
g74
(dp474
g94
g95
ssg83
g468
sg76
(lp475
g283
asbag69
(g90
g71
NtRp476
(dp477
g74
(dp478
g101
g102
ssg83
g468
sg76
(lp479
S':'
asbag69
(g90
g71
NtRp480
(dp481
g74
(dp482
sg83
g468
sg76
(lp483
g69
(g70
g71
NtRp484
(dp485
g74
(dp486
g82
I3
ssg83
g480
sg76
(lp487
S''
asbasbasbag69
(g85
g71
NtRp488
(dp489
g74
(dp490
sg83
g464
sg76
(lp491
g69
(g90
g71
NtRp492
(dp493
g74
(dp494
g94
g95
ssg83
g488
sg76
(lp495
g304
asbag69
(g90
g71
NtRp496
(dp497
g74
(dp498
g101
g102
ssg83
g488
sg76
(lp499
S':'
asbag69
(g90
g71
NtRp500
(dp501
g74
(dp502
sg83
g488
sg76
(lp503
g69
(g70
g71
NtRp504
(dp505
g74
(dp506
g82
I3
ssg83
g500
sg76
(lp507
S''
asbasbasbag69
(g85
g71
NtRp508
(dp509
g74
(dp510
sg83
g464
sg76
(lp511
g69
(g90
g71
NtRp512
(dp513
g74
(dp514
g94
g95
ssg83
g508
sg76
(lp515
g325
asbag69
(g90
g71
NtRp516
(dp517
g74
(dp518
g101
g102
ssg83
g508
sg76
(lp519
S':'
asbag69
(g90
g71
NtRp520
(dp521
g74
(dp522
sg83
g508
sg76
(lp523
g69
(g70
g71
NtRp524
(dp525
g74
(dp526
g82
I3
ssg83
g520
sg76
(lp527
S''
asbasbasbag69
(g85
g71
NtRp528
(dp529
g74
(dp530
sg83
g464
sg76
(lp531
g69
(g90
g71
NtRp532
(dp533
g74
(dp534
g94
g95
ssg83
g528
sg76
(lp535
g346
asbag69
(g90
g71
NtRp536
(dp537
g74
(dp538
g101
g102
ssg83
g528
sg76
(lp539
S':'
asbag69
(g90
g71
NtRp540
(dp541
g74
(dp542
sg83
g528
sg76
(lp543
g69
(g70
g71
NtRp544
(dp545
g74
(dp546
g82
I3
ssg83
g540
sg76
(lp547
S''
asbasbasbag69
(g85
g71
NtRp548
(dp549
g74
(dp550
sg83
g464
sg76
(lp551
g69
(g90
g71
NtRp552
(dp553
g74
(dp554
g94
g95
ssg83
g548
sg76
(lp555
g367
asbag69
(g90
g71
NtRp556
(dp557
g74
(dp558
g101
g102
ssg83
g548
sg76
(lp559
S':'
asbag69
(g90
g71
NtRp560
(dp561
g74
(dp562
sg83
g548
sg76
(lp563
g69
(g70
g71
NtRp564
(dp565
g74
(dp566
g82
I3
ssg83
g560
sg76
(lp567
S''
asbasbasbag69
(g85
g71
NtRp568
(dp569
g74
(dp570
sg83
g464
sg76
(lp571
g69
(g90
g71
NtRp572
(dp573
g74
(dp574
g94
g95
ssg83
g568
sg76
(lp575
g388
asbag69
(g90
g71
NtRp576
(dp577
g74
(dp578
g101
g102
ssg83
g568
sg76
(lp579
S':'
asbag69
(g90
g71
NtRp580
(dp581
g74
(dp582
sg83
g568
sg76
(lp583
g69
(g70
g71
NtRp584
(dp585
g74
(dp586
g82
I3
ssg83
g580
sg76
(lp587
S''
asbasbasbag69
(g85
g71
NtRp588
(dp589
g74
(dp590
sg83
g464
sg76
(lp591
g69
(g90
g71
NtRp592
(dp593
g74
(dp594
g94
g95
ssg83
g588
sg76
(lp595
g409
asbag69
(g90
g71
NtRp596
(dp597
g74
(dp598
g101
g102
ssg83
g588
sg76
(lp599
S':'
asbag69
(g90
g71
NtRp600
(dp601
g74
(dp602
sg83
g588
sg76
(lp603
g69
(g70
g71
NtRp604
(dp605
g74
(dp606
g82
I3
ssg83
g600
sg76
(lp607
S''
asbasbasbag69
(g85
g71
NtRp608
(dp609
g74
(dp610
sg83
g464
sg76
(lp611
g69
(g90
g71
NtRp612
(dp613
g74
(dp614
g94
g95
ssg83
g608
sg76
(lp615
g430
asbag69
(g90
g71
NtRp616
(dp617
g74
(dp618
g101
g102
ssg83
g608
sg76
(lp619
S':'
asbag69
(g90
g71
NtRp620
(dp621
g74
(dp622
sg83
g608
sg76
(lp623
g69
(g70
g71
NtRp624
(dp625
g74
(dp626
g82
I3
ssg83
g620
sg76
(lp627
S''
asbasbasbasbasbasbasbag69
(g85
g71
NtRp628
(dp629
g74
(dp630
sg83
g246
sg76
(lp631
g69
(g90
g71
NtRp632
(dp633
g74
(dp634
g94
g95
ssg83
g628
sg76
(lp635
S'session_id_welcome'
p636
asbag69
(g90
g71
NtRp637
(dp638
g74
(dp639
g101
g102
ssg83
g628
sg76
(lp640
S':'
asbag69
(g90
g71
NtRp641
(dp642
g74
(dp643
sg83
g628
sg76
(lp644
g69
(g70
g71
NtRp645
(dp646
g74
(dp647
g82
I4
ssg83
g641
sg76
(lp648
g69
(g78
g71
NtRp649
(dp650
g74
(dp651
g82
I3
ssg83
Nsg76
(lp652
g69
(g85
g71
NtRp653
(dp654
g74
(dp655
sg83
g649
sg76
(lp656
g69
(g90
g71
NtRp657
(dp658
g74
(dp659
g94
g95
ssg83
g653
sg76
(lp660
g283
asbag69
(g90
g71
NtRp661
(dp662
g74
(dp663
g101
g102
ssg83
g653
sg76
(lp664
S':'
asbag69
(g90
g71
NtRp665
(dp666
g74
(dp667
sg83
g653
sg76
(lp668
g69
(g70
g71
NtRp669
(dp670
g74
(dp671
g82
I3
ssg83
g665
sg76
(lp672
S''
asbasbasbag69
(g85
g71
NtRp673
(dp674
g74
(dp675
sg83
g649
sg76
(lp676
g69
(g90
g71
NtRp677
(dp678
g74
(dp679
g94
g95
ssg83
g673
sg76
(lp680
g304
asbag69
(g90
g71
NtRp681
(dp682
g74
(dp683
g101
g102
ssg83
g673
sg76
(lp684
S':'
asbag69
(g90
g71
NtRp685
(dp686
g74
(dp687
sg83
g673
sg76
(lp688
g69
(g70
g71
NtRp689
(dp690
g74
(dp691
g82
I3
ssg83
g685
sg76
(lp692
S''
asbasbasbag69
(g85
g71
NtRp693
(dp694
g74
(dp695
sg83
g649
sg76
(lp696
g69
(g90
g71
NtRp697
(dp698
g74
(dp699
g94
g95
ssg83
g693
sg76
(lp700
g325
asbag69
(g90
g71
NtRp701
(dp702
g74
(dp703
g101
g102
ssg83
g693
sg76
(lp704
S':'
asbag69
(g90
g71
NtRp705
(dp706
g74
(dp707
sg83
g693
sg76
(lp708
g69
(g70
g71
NtRp709
(dp710
g74
(dp711
g82
I3
ssg83
g705
sg76
(lp712
S''
asbasbasbag69
(g85
g71
NtRp713
(dp714
g74
(dp715
sg83
g649
sg76
(lp716
g69
(g90
g71
NtRp717
(dp718
g74
(dp719
g94
g95
ssg83
g713
sg76
(lp720
g346
asbag69
(g90
g71
NtRp721
(dp722
g74
(dp723
g101
g102
ssg83
g713
sg76
(lp724
S':'
asbag69
(g90
g71
NtRp725
(dp726
g74
(dp727
sg83
g713
sg76
(lp728
g69
(g70
g71
NtRp729
(dp730
g74
(dp731
g82
I3
ssg83
g725
sg76
(lp732
S''
asbasbasbag69
(g85
g71
NtRp733
(dp734
g74
(dp735
sg83
g649
sg76
(lp736
g69
(g90
g71
NtRp737
(dp738
g74
(dp739
g94
g95
ssg83
g733
sg76
(lp740
g367
asbag69
(g90
g71
NtRp741
(dp742
g74
(dp743
g101
g102
ssg83
g733
sg76
(lp744
S':'
asbag69
(g90
g71
NtRp745
(dp746
g74
(dp747
sg83
g733
sg76
(lp748
g69
(g70
g71
NtRp749
(dp750
g74
(dp751
g82
I3
ssg83
g745
sg76
(lp752
S''
asbasbasbag69
(g85
g71
NtRp753
(dp754
g74
(dp755
sg83
g649
sg76
(lp756
g69
(g90
g71
NtRp757
(dp758
g74
(dp759
g94
g95
ssg83
g753
sg76
(lp760
g388
asbag69
(g90
g71
NtRp761
(dp762
g74
(dp763
g101
g102
ssg83
g753
sg76
(lp764
S':'
asbag69
(g90
g71
NtRp765
(dp766
g74
(dp767
sg83
g753
sg76
(lp768
g69
(g70
g71
NtRp769
(dp770
g74
(dp771
g82
I3
ssg83
g765
sg76
(lp772
S''
asbasbasbag69
(g85
g71
NtRp773
(dp774
g74
(dp775
sg83
g649
sg76
(lp776
g69
(g90
g71
NtRp777
(dp778
g74
(dp779
g94
g95
ssg83
g773
sg76
(lp780
g409
asbag69
(g90
g71
NtRp781
(dp782
g74
(dp783
g101
g102
ssg83
g773
sg76
(lp784
S':'
asbag69
(g90
g71
NtRp785
(dp786
g74
(dp787
sg83
g773
sg76
(lp788
g69
(g70
g71
NtRp789
(dp790
g74
(dp791
g82
I3
ssg83
g785
sg76
(lp792
S''
asbasbasbag69
(g85
g71
NtRp793
(dp794
g74
(dp795
sg83
g649
sg76
(lp796
g69
(g90
g71
NtRp797
(dp798
g74
(dp799
g94
g95
ssg83
g793
sg76
(lp800
g430
asbag69
(g90
g71
NtRp801
(dp802
g74
(dp803
g101
g102
ssg83
g793
sg76
(lp804
S':'
asbag69
(g90
g71
NtRp805
(dp806
g74
(dp807
sg83
g793
sg76
(lp808
g69
(g70
g71
NtRp809
(dp810
g74
(dp811
g82
I3
ssg83
g805
sg76
(lp812
S''
asbasbasbasbasbasbasbasbasbasbasbag69
(g85
g71
NtRp813
(dp814
g74
(dp815
sg83
g79
sg76
(lp816
g69
(g90
g71
NtRp817
(dp818
g74
(dp819
g94
g95
ssg83
g813
sg76
(lp820
S'env'
p821
asbag69
(g90
g71
NtRp822
(dp823
g74
(dp824
g101
g102
ssg83
g813
sg76
(lp825
S':'
asbag69
(g90
g71
NtRp826
(dp827
g74
(dp828
sg83
g813
sg76
(lp829
g69
(g70
g71
NtRp830
(dp831
g74
(dp832
g82
I5
ssg83
g826
sg76
(lp833
g69
(g78
g71
NtRp834
(dp835
g74
(dp836
g82
I4
ssg83
Nsg76
(lp837
g69
(g85
g71
NtRp838
(dp839
g74
(dp840
sg83
g834
sg76
(lp841
g69
(g90
g71
NtRp842
(dp843
g74
(dp844
g94
g95
ssg83
g838
sg76
(lp845
S'app_folders'
p846
asbag69
(g90
g71
NtRp847
(dp848
g74
(dp849
g101
g102
ssg83
g838
sg76
(lp850
S':'
asbag69
(g90
g71
NtRp851
(dp852
g74
(dp853
sg83
g838
sg76
(lp854
g69
(g70
g71
NtRp855
(dp856
g74
(dp857
g82
I4
ssg83
g851
sg76
(lp858
S"set(['/web2py/applications/admin/', '/web2py/applications/welcome/', '/web2py/applications/snapcop2/'])"
p859
asbasbasbag69
(g85
g71
NtRp860
(dp861
g74
(dp862
sg83
g834
sg76
(lp863
g69
(g90
g71
NtRp864
(dp865
g74
(dp866
g94
g95
ssg83
g860
sg76
(lp867
S'applications_parent'
p868
asbag69
(g90
g71
NtRp869
(dp870
g74
(dp871
g101
g102
ssg83
g860
sg76
(lp872
S':'
asbag69
(g90
g71
NtRp873
(dp874
g74
(dp875
sg83
g860
sg76
(lp876
g69
(g70
g71
NtRp877
(dp878
g74
(dp879
g82
I4
ssg83
g873
sg76
(lp880
S'/web2py'
p881
asbasbasbag69
(g85
g71
NtRp882
(dp883
g74
(dp884
sg83
g834
sg76
(lp885
g69
(g90
g71
NtRp886
(dp887
g74
(dp888
g94
g95
ssg83
g882
sg76
(lp889
S'cmd_args'
p890
asbag69
(g90
g71
NtRp891
(dp892
g74
(dp893
g101
g102
ssg83
g882
sg76
(lp894
S':'
asbag69
(g90
g71
NtRp895
(dp896
g74
(dp897
sg83
g882
sg76
(lp898
g69
(g70
g71
NtRp899
(dp900
g74
(dp901
g82
I4
ssg83
g895
sg76
(lp902
g69
(g78
g71
NtRp903
(dp904
g74
(dp905
g82
I3
ssg83
Nsg76
(lp906
sbasbasbasbag69
(g85
g71
NtRp907
(dp908
g74
(dp909
sg83
g834
sg76
(lp910
g69
(g90
g71
NtRp911
(dp912
g74
(dp913
g94
g95
ssg83
g907
sg76
(lp914
S'cmd_options'
p915
asbag69
(g90
g71
NtRp916
(dp917
g74
(dp918
g101
g102
ssg83
g907
sg76
(lp919
S':'
asbag69
(g90
g71
NtRp920
(dp921
g74
(dp922
sg83
g907
sg76
(lp923
g69
(g70
g71
NtRp924
(dp925
g74
(dp926
g82
I4
ssg83
g920
sg76
(lp927
S"<Values at 0x2f62680: {'verbose': False, 'ip': '127.0.0.1', 'shutdown_timeout': 5, 'taskbar': False, 'nocron': False, 'pid_filename': 'httpserver.pid', 'maxthreads': None, 'softcron': False, 'server_name': 'declic-pc', 'bpython': False, 'nogui': False, 'port': 8000, 'extcron': False, 'debuglevel': 30, 'test': None, 'folder': '/web2py', 'config': '', 'import_models': False, 'winservice': '', 'shell': None, 'run': '', 'log_filename': 'httpserver.log', 'args': [''], 'socket_timeout': 5, 'ssl_ca_certificate': None, 'scheduler': None, 'profiler_filename': None, 'ssl_private_key': '', 'password': 'photos10', 'request_queue_size': 5, 'ssl_certificate': '', 'cronjob': False, 'numthreads': None, 'quiet': False, 'interfaces': None, 'minthreads': None, 'timeout': 10, 'plain': False, 'nobanner': False}>"
p928
asbasbasbag69
(g85
g71
NtRp929
(dp930
g74
(dp931
sg83
g834
sg76
(lp932
g69
(g90
g71
NtRp933
(dp934
g74
(dp935
g94
g95
ssg83
g929
sg76
(lp936
S'db_sessions'
p937
asbag69
(g90
g71
NtRp938
(dp939
g74
(dp940
g101
g102
ssg83
g929
sg76
(lp941
S':'
asbag69
(g90
g71
NtRp942
(dp943
g74
(dp944
sg83
g929
sg76
(lp945
g69
(g70
g71
NtRp946
(dp947
g74
(dp948
g82
I4
ssg83
g942
sg76
(lp949
S'set([])'
p950
asbasbasbag69
(g85
g71
NtRp951
(dp952
g74
(dp953
sg83
g834
sg76
(lp954
g69
(g90
g71
NtRp955
(dp956
g74
(dp957
g94
g95
ssg83
g951
sg76
(lp958
S'debugging'
p959
asbag69
(g90
g71
NtRp960
(dp961
g74
(dp962
g101
g102
ssg83
g951
sg76
(lp963
S':'
asbag69
(g90
g71
NtRp964
(dp965
g74
(dp966
sg83
g951
sg76
(lp967
g69
(g70
g71
NtRp968
(dp969
g74
(dp970
g82
I4
ssg83
g964
sg76
(lp971
g112
asbasbasbag69
(g85
g71
NtRp972
(dp973
g74
(dp974
sg83
g834
sg76
(lp975
g69
(g90
g71
NtRp976
(dp977
g74
(dp978
g94
g95
ssg83
g972
sg76
(lp979
S'gluon_parent'
p980
asbag69
(g90
g71
NtRp981
(dp982
g74
(dp983
g101
g102
ssg83
g972
sg76
(lp984
S':'
asbag69
(g90
g71
NtRp985
(dp986
g74
(dp987
sg83
g972
sg76
(lp988
g69
(g70
g71
NtRp989
(dp990
g74
(dp991
g82
I4
ssg83
g985
sg76
(lp992
S'/web2py'
p993
asbasbasbag69
(g85
g71
NtRp994
(dp995
g74
(dp996
sg83
g834
sg76
(lp997
g69
(g90
g71
NtRp998
(dp999
g74
(dp1000
g94
g95
ssg83
g994
sg76
(lp1001
S'http_accept'
p1002
asbag69
(g90
g71
NtRp1003
(dp1004
g74
(dp1005
g101
g102
ssg83
g994
sg76
(lp1006
S':'
asbag69
(g90
g71
NtRp1007
(dp1008
g74
(dp1009
sg83
g994
sg76
(lp1010
g69
(g70
g71
NtRp1011
(dp1012
g74
(dp1013
g82
I4
ssg83
g1007
sg76
(lp1014
S'text/html,application/xhtml+xml,application/xml;q=0.9,*/*;q=0.8'
p1015
asbasbasbag69
(g85
g71
NtRp1016
(dp1017
g74
(dp1018
sg83
g834
sg76
(lp1019
g69
(g90
g71
NtRp1020
(dp1021
g74
(dp1022
g94
g95
ssg83
g1016
sg76
(lp1023
S'http_accept_encoding'
p1024
asbag69
(g90
g71
NtRp1025
(dp1026
g74
(dp1027
g101
g102
ssg83
g1016
sg76
(lp1028
S':'
asbag69
(g90
g71
NtRp1029
(dp1030
g74
(dp1031
sg83
g1016
sg76
(lp1032
g69
(g70
g71
NtRp1033
(dp1034
g74
(dp1035
g82
I4
ssg83
g1029
sg76
(lp1036
S'gzip, deflate'
p1037
asbasbasbag69
(g85
g71
NtRp1038
(dp1039
g74
(dp1040
sg83
g834
sg76
(lp1041
g69
(g90
g71
NtRp1042
(dp1043
g74
(dp1044
g94
g95
ssg83
g1038
sg76
(lp1045
S'http_accept_language'
p1046
asbag69
(g90
g71
NtRp1047
(dp1048
g74
(dp1049
g101
g102
ssg83
g1038
sg76
(lp1050
S':'
asbag69
(g90
g71
NtRp1051
(dp1052
g74
(dp1053
sg83
g1038
sg76
(lp1054
g69
(g70
g71
NtRp1055
(dp1056
g74
(dp1057
g82
I4
ssg83
g1051
sg76
(lp1058
S'fr,fr-fr;q=0.8,en-us;q=0.5,en;q=0.3'
p1059
asbasbasbag69
(g85
g71
NtRp1060
(dp1061
g74
(dp1062
sg83
g834
sg76
(lp1063
g69
(g90
g71
NtRp1064
(dp1065
g74
(dp1066
g94
g95
ssg83
g1060
sg76
(lp1067
S'http_connection'
p1068
asbag69
(g90
g71
NtRp1069
(dp1070
g74
(dp1071
g101
g102
ssg83
g1060
sg76
(lp1072
S':'
asbag69
(g90
g71
NtRp1073
(dp1074
g74
(dp1075
sg83
g1060
sg76
(lp1076
g69
(g70
g71
NtRp1077
(dp1078
g74
(dp1079
g82
I4
ssg83
g1073
sg76
(lp1080
S'keep-alive'
p1081
asbasbasbag69
(g85
g71
NtRp1082
(dp1083
g74
(dp1084
sg83
g834
sg76
(lp1085
g69
(g90
g71
NtRp1086
(dp1087
g74
(dp1088
g94
g95
ssg83
g1082
sg76
(lp1089
S'http_cookie'
p1090
asbag69
(g90
g71
NtRp1091
(dp1092
g74
(dp1093
g101
g102
ssg83
g1082
sg76
(lp1094
S':'
asbag69
(g90
g71
NtRp1095
(dp1096
g74
(dp1097
sg83
g1082
sg76
(lp1098
g69
(g70
g71
NtRp1099
(dp1100
g74
(dp1101
g82
I4
ssg83
g1095
sg76
(lp1102
S'session_id_welcome=127.0.0.1-a8bcafbc-45f6-4ba0-98e1-6be63f0a0fc3; session_id_admin=127.0.0.1-43762b74-1a5a-44ad-a373-f87d82a464fe; session_id_snapcop2=127.0.0.1-0073d425-a119-4e19-84f5-89d928efdc66'
p1103
asbasbasbag69
(g85
g71
NtRp1104
(dp1105
g74
(dp1106
sg83
g834
sg76
(lp1107
g69
(g90
g71
NtRp1108
(dp1109
g74
(dp1110
g94
g95
ssg83
g1104
sg76
(lp1111
S'http_host'
p1112
asbag69
(g90
g71
NtRp1113
(dp1114
g74
(dp1115
g101
g102
ssg83
g1104
sg76
(lp1116
S':'
asbag69
(g90
g71
NtRp1117
(dp1118
g74
(dp1119
sg83
g1104
sg76
(lp1120
g69
(g70
g71
NtRp1121
(dp1122
g74
(dp1123
g82
I4
ssg83
g1117
sg76
(lp1124
S'127.0.0.1:8000'
p1125
asbasbasbag69
(g85
g71
NtRp1126
(dp1127
g74
(dp1128
sg83
g834
sg76
(lp1129
g69
(g90
g71
NtRp1130
(dp1131
g74
(dp1132
g94
g95
ssg83
g1126
sg76
(lp1133
S'http_user_agent'
p1134
asbag69
(g90
g71
NtRp1135
(dp1136
g74
(dp1137
g101
g102
ssg83
g1126
sg76
(lp1138
S':'
asbag69
(g90
g71
NtRp1139
(dp1140
g74
(dp1141
sg83
g1126
sg76
(lp1142
g69
(g70
g71
NtRp1143
(dp1144
g74
(dp1145
g82
I4
ssg83
g1139
sg76
(lp1146
S'Mozilla/5.0 (X11; Ubuntu; Linux x86_64; rv:14.0) Gecko/20100101 Firefox/14.0.1'
p1147
asbasbasbag69
(g85
g71
NtRp1148
(dp1149
g74
(dp1150
sg83
g834
sg76
(lp1151
g69
(g90
g71
NtRp1152
(dp1153
g74
(dp1154
g94
g95
ssg83
g1148
sg76
(lp1155
S'is_jython'
p1156
asbag69
(g90
g71
NtRp1157
(dp1158
g74
(dp1159
g101
g102
ssg83
g1148
sg76
(lp1160
S':'
asbag69
(g90
g71
NtRp1161
(dp1162
g74
(dp1163
sg83
g1148
sg76
(lp1164
g69
(g70
g71
NtRp1165
(dp1166
g74
(dp1167
g82
I4
ssg83
g1161
sg76
(lp1168
g112
asbasbasbag69
(g85
g71
NtRp1169
(dp1170
g74
(dp1171
sg83
g834
sg76
(lp1172
g69
(g90
g71
NtRp1173
(dp1174
g74
(dp1175
g94
g95
ssg83
g1169
sg76
(lp1176
S'is_pypy'
p1177
asbag69
(g90
g71
NtRp1178
(dp1179
g74
(dp1180
g101
g102
ssg83
g1169
sg76
(lp1181
S':'
asbag69
(g90
g71
NtRp1182
(dp1183
g74
(dp1184
sg83
g1169
sg76
(lp1185
g69
(g70
g71
NtRp1186
(dp1187
g74
(dp1188
g82
I4
ssg83
g1182
sg76
(lp1189
g112
asbasbasbag69
(g85
g71
NtRp1190
(dp1191
g74
(dp1192
sg83
g834
sg76
(lp1193
g69
(g90
g71
NtRp1194
(dp1195
g74
(dp1196
g94
g95
ssg83
g1190
sg76
(lp1197
S'path_info'
p1198
asbag69
(g90
g71
NtRp1199
(dp1200
g74
(dp1201
g101
g102
ssg83
g1190
sg76
(lp1202
S':'
asbag69
(g90
g71
NtRp1203
(dp1204
g74
(dp1205
sg83
g1190
sg76
(lp1206
g69
(g70
g71
NtRp1207
(dp1208
g74
(dp1209
g82
I4
ssg83
g1203
sg76
(lp1210
S'/snapcop2/form/form'
p1211
asbasbasbag69
(g85
g71
NtRp1212
(dp1213
g74
(dp1214
sg83
g834
sg76
(lp1215
g69
(g90
g71
NtRp1216
(dp1217
g74
(dp1218
g94
g95
ssg83
g1212
sg76
(lp1219
S'query_string'
p1220
asbag69
(g90
g71
NtRp1221
(dp1222
g74
(dp1223
g101
g102
ssg83
g1212
sg76
(lp1224
S':'
asbag69
(g90
g71
NtRp1225
(dp1226
g74
(dp1227
sg83
g1212
sg76
(lp1228
g69
(g70
g71
NtRp1229
(dp1230
g74
(dp1231
g82
I4
ssg83
g1225
sg76
(lp1232
S''
asbasbasbag69
(g85
g71
NtRp1233
(dp1234
g74
(dp1235
sg83
g834
sg76
(lp1236
g69
(g90
g71
NtRp1237
(dp1238
g74
(dp1239
g94
g95
ssg83
g1233
sg76
(lp1240
S'remote_addr'
p1241
asbag69
(g90
g71
NtRp1242
(dp1243
g74
(dp1244
g101
g102
ssg83
g1233
sg76
(lp1245
S':'
asbag69
(g90
g71
NtRp1246
(dp1247
g74
(dp1248
sg83
g1233
sg76
(lp1249
g69
(g70
g71
NtRp1250
(dp1251
g74
(dp1252
g82
I4
ssg83
g1246
sg76
(lp1253
g202
asbasbasbag69
(g85
g71
NtRp1254
(dp1255
g74
(dp1256
sg83
g834
sg76
(lp1257
g69
(g90
g71
NtRp1258
(dp1259
g74
(dp1260
g94
g95
ssg83
g1254
sg76
(lp1261
S'remote_port'
p1262
asbag69
(g90
g71
NtRp1263
(dp1264
g74
(dp1265
g101
g102
ssg83
g1254
sg76
(lp1266
S':'
asbag69
(g90
g71
NtRp1267
(dp1268
g74
(dp1269
sg83
g1254
sg76
(lp1270
g69
(g70
g71
NtRp1271
(dp1272
g74
(dp1273
g82
I4
ssg83
g1267
sg76
(lp1274
S'51371'
p1275
asbasbasbag69
(g85
g71
NtRp1276
(dp1277
g74
(dp1278
sg83
g834
sg76
(lp1279
g69
(g90
g71
NtRp1280
(dp1281
g74
(dp1282
g94
g95
ssg83
g1276
sg76
(lp1283
S'request_method'
p1284
asbag69
(g90
g71
NtRp1285
(dp1286
g74
(dp1287
g101
g102
ssg83
g1276
sg76
(lp1288
S':'
asbag69
(g90
g71
NtRp1289
(dp1290
g74
(dp1291
sg83
g1276
sg76
(lp1292
g69
(g70
g71
NtRp1293
(dp1294
g74
(dp1295
g82
I4
ssg83
g1289
sg76
(lp1296
S'GET'
p1297
asbasbasbag69
(g85
g71
NtRp1298
(dp1299
g74
(dp1300
sg83
g834
sg76
(lp1301
g69
(g90
g71
NtRp1302
(dp1303
g74
(dp1304
g94
g95
ssg83
g1298
sg76
(lp1305
S'script_name'
p1306
asbag69
(g90
g71
NtRp1307
(dp1308
g74
(dp1309
g101
g102
ssg83
g1298
sg76
(lp1310
S':'
asbag69
(g90
g71
NtRp1311
(dp1312
g74
(dp1313
sg83
g1298
sg76
(lp1314
g69
(g70
g71
NtRp1315
(dp1316
g74
(dp1317
g82
I4
ssg83
g1311
sg76
(lp1318
S''
asbasbasbag69
(g85
g71
NtRp1319
(dp1320
g74
(dp1321
sg83
g834
sg76
(lp1322
g69
(g90
g71
NtRp1323
(dp1324
g74
(dp1325
g94
g95
ssg83
g1319
sg76
(lp1326
S'server_name'
p1327
asbag69
(g90
g71
NtRp1328
(dp1329
g74
(dp1330
g101
g102
ssg83
g1319
sg76
(lp1331
S':'
asbag69
(g90
g71
NtRp1332
(dp1333
g74
(dp1334
sg83
g1319
sg76
(lp1335
g69
(g70
g71
NtRp1336
(dp1337
g74
(dp1338
g82
I4
ssg83
g1332
sg76
(lp1339
S'declic-pc'
p1340
asbasbasbag69
(g85
g71
NtRp1341
(dp1342
g74
(dp1343
sg83
g834
sg76
(lp1344
g69
(g90
g71
NtRp1345
(dp1346
g74
(dp1347
g94
g95
ssg83
g1341
sg76
(lp1348
S'server_port'
p1349
asbag69
(g90
g71
NtRp1350
(dp1351
g74
(dp1352
g101
g102
ssg83
g1341
sg76
(lp1353
S':'
asbag69
(g90
g71
NtRp1354
(dp1355
g74
(dp1356
sg83
g1341
sg76
(lp1357
g69
(g70
g71
NtRp1358
(dp1359
g74
(dp1360
g82
I4
ssg83
g1354
sg76
(lp1361
S'8000'
p1362
asbasbasbag69
(g85
g71
NtRp1363
(dp1364
g74
(dp1365
sg83
g834
sg76
(lp1366
g69
(g90
g71
NtRp1367
(dp1368
g74
(dp1369
g94
g95
ssg83
g1363
sg76
(lp1370
S'server_protocol'
p1371
asbag69
(g90
g71
NtRp1372
(dp1373
g74
(dp1374
g101
g102
ssg83
g1363
sg76
(lp1375
S':'
asbag69
(g90
g71
NtRp1376
(dp1377
g74
(dp1378
sg83
g1363
sg76
(lp1379
g69
(g70
g71
NtRp1380
(dp1381
g74
(dp1382
g82
I4
ssg83
g1376
sg76
(lp1383
S'HTTP/1.1'
p1384
asbasbasbag69
(g85
g71
NtRp1385
(dp1386
g74
(dp1387
sg83
g834
sg76
(lp1388
g69
(g90
g71
NtRp1389
(dp1390
g74
(dp1391
g94
g95
ssg83
g1385
sg76
(lp1392
S'server_software'
p1393
asbag69
(g90
g71
NtRp1394
(dp1395
g74
(dp1396
g101
g102
ssg83
g1385
sg76
(lp1397
S':'
asbag69
(g90
g71
NtRp1398
(dp1399
g74
(dp1400
sg83
g1385
sg76
(lp1401
g69
(g70
g71
NtRp1402
(dp1403
g74
(dp1404
g82
I4
ssg83
g1398
sg76
(lp1405
S'Rocket 1.2.4'
p1406
asbasbasbag69
(g85
g71
NtRp1407
(dp1408
g74
(dp1409
sg83
g834
sg76
(lp1410
g69
(g90
g71
NtRp1411
(dp1412
g74
(dp1413
g94
g95
ssg83
g1407
sg76
(lp1414
S'web2py_crontype'
p1415
asbag69
(g90
g71
NtRp1416
(dp1417
g74
(dp1418
g101
g102
ssg83
g1407
sg76
(lp1419
S':'
asbag69
(g90
g71
NtRp1420
(dp1421
g74
(dp1422
sg83
g1407
sg76
(lp1423
g69
(g70
g71
NtRp1424
(dp1425
g74
(dp1426
g82
I4
ssg83
g1420
sg76
(lp1427
S'hard'
p1428
asbasbasbag69
(g85
g71
NtRp1429
(dp1430
g74
(dp1431
sg83
g834
sg76
(lp1432
g69
(g90
g71
NtRp1433
(dp1434
g74
(dp1435
g94
g95
ssg83
g1429
sg76
(lp1436
S'web2py_path'
p1437
asbag69
(g90
g71
NtRp1438
(dp1439
g74
(dp1440
g101
g102
ssg83
g1429
sg76
(lp1441
S':'
asbag69
(g90
g71
NtRp1442
(dp1443
g74
(dp1444
sg83
g1429
sg76
(lp1445
g69
(g70
g71
NtRp1446
(dp1447
g74
(dp1448
g82
I4
ssg83
g1442
sg76
(lp1449
g881
asbasbasbag69
(g85
g71
NtRp1450
(dp1451
g74
(dp1452
sg83
g834
sg76
(lp1453
g69
(g90
g71
NtRp1454
(dp1455
g74
(dp1456
g94
g95
ssg83
g1450
sg76
(lp1457
S'web2py_version'
p1458
asbag69
(g90
g71
NtRp1459
(dp1460
g74
(dp1461
g101
g102
ssg83
g1450
sg76
(lp1462
S':'
asbag69
(g90
g71
NtRp1463
(dp1464
g74
(dp1465
sg83
g1450
sg76
(lp1466
g69
(g70
g71
NtRp1467
(dp1468
g74
(dp1469
g82
I4
ssg83
g1463
sg76
(lp1470
g69
(g78
g71
NtRp1471
(dp1472
g74
(dp1473
g82
I3
ssg83
Nsg76
(lp1474
g69
(g85
g71
NtRp1475
(dp1476
g74
(dp1477
sg83
g1471
sg76
(lp1478
g69
(g90
g71
NtRp1479
(dp1480
g74
(dp1481
sg83
g1475
sg76
(lp1482
g69
(g70
g71
NtRp1483
(dp1484
g74
(dp1485
g82
I3
ssg83
g1479
sg76
(lp1486
S'1'
asbasbasbag69
(g85
g71
NtRp1487
(dp1488
g74
(dp1489
sg83
g1471
sg76
(lp1490
g69
(g90
g71
NtRp1491
(dp1492
g74
(dp1493
sg83
g1487
sg76
(lp1494
g69
(g70
g71
NtRp1495
(dp1496
g74
(dp1497
g82
I3
ssg83
g1491
sg76
(lp1498
S'99'
p1499
asbasbasbag69
(g85
g71
NtRp1500
(dp1501
g74
(dp1502
sg83
g1471
sg76
(lp1503
g69
(g90
g71
NtRp1504
(dp1505
g74
(dp1506
sg83
g1500
sg76
(lp1507
g69
(g70
g71
NtRp1508
(dp1509
g74
(dp1510
g82
I3
ssg83
g1504
sg76
(lp1511
S'7'
asbasbasbag69
(g85
g71
NtRp1512
(dp1513
g74
(dp1514
sg83
g1471
sg76
(lp1515
g69
(g90
g71
NtRp1516
(dp1517
g74
(dp1518
sg83
g1512
sg76
(lp1519
g69
(g70
g71
NtRp1520
(dp1521
g74
(dp1522
g82
I3
ssg83
g1516
sg76
(lp1523
S'datetime.datetime(2012, 3, 4, 22, 12, 8)'
p1524
asbasbasbag69
(g85
g71
NtRp1525
(dp1526
g74
(dp1527
sg83
g1471
sg76
(lp1528
g69
(g90
g71
NtRp1529
(dp1530
g74
(dp1531
sg83
g1525
sg76
(lp1532
g69
(g70
g71
NtRp1533
(dp1534
g74
(dp1535
g82
I3
ssg83
g1529
sg76
(lp1536
S'stable'
p1537
asbasbasbasbasbasbasbag69
(g85
g71
NtRp1538
(dp1539
g74
(dp1540
sg83
g834
sg76
(lp1541
g69
(g90
g71
NtRp1542
(dp1543
g74
(dp1544
g94
g95
ssg83
g1538
sg76
(lp1545
S'wsgi_errors'
p1546
asbag69
(g90
g71
NtRp1547
(dp1548
g74
(dp1549
g101
g102
ssg83
g1538
sg76
(lp1550
S':'
asbag69
(g90
g71
NtRp1551
(dp1552
g74
(dp1553
sg83
g1538
sg76
(lp1554
g69
(g70
g71
NtRp1555
(dp1556
g74
(dp1557
g82
I4
ssg83
g1551
sg76
(lp1558
S"<open file '<stderr>', mode 'w' at 0x7f49ef740270>"
p1559
asbasbasbag69
(g85
g71
NtRp1560
(dp1561
g74
(dp1562
sg83
g834
sg76
(lp1563
g69
(g90
g71
NtRp1564
(dp1565
g74
(dp1566
g94
g95
ssg83
g1560
sg76
(lp1567
S'wsgi_file_wrapper'
p1568
asbag69
(g90
g71
NtRp1569
(dp1570
g74
(dp1571
g101
g102
ssg83
g1560
sg76
(lp1572
S':'
asbag69
(g90
g71
NtRp1573
(dp1574
g74
(dp1575
sg83
g1560
sg76
(lp1576
g69
(g70
g71
NtRp1577
(dp1578
g74
(dp1579
g82
I4
ssg83
g1573
sg76
(lp1580
S'<class wsgiref.util.FileWrapper at 0x2e896d0>'
p1581
asbasbasbag69
(g85
g71
NtRp1582
(dp1583
g74
(dp1584
sg83
g834
sg76
(lp1585
g69
(g90
g71
NtRp1586
(dp1587
g74
(dp1588
g94
g95
ssg83
g1582
sg76
(lp1589
S'wsgi_input'
p1590
asbag69
(g90
g71
NtRp1591
(dp1592
g74
(dp1593
g101
g102
ssg83
g1582
sg76
(lp1594
S':'
asbag69
(g90
g71
NtRp1595
(dp1596
g74
(dp1597
sg83
g1582
sg76
(lp1598
g69
(g70
g71
NtRp1599
(dp1600
g74
(dp1601
g82
I4
ssg83
g1595
sg76
(lp1602
S'<socket._fileobject object at 0x7f49e013db50>'
p1603
asbasbasbag69
(g85
g71
NtRp1604
(dp1605
g74
(dp1606
sg83
g834
sg76
(lp1607
g69
(g90
g71
NtRp1608
(dp1609
g74
(dp1610
g94
g95
ssg83
g1604
sg76
(lp1611
S'wsgi_multiprocess'
p1612
asbag69
(g90
g71
NtRp1613
(dp1614
g74
(dp1615
g101
g102
ssg83
g1604
sg76
(lp1616
S':'
asbag69
(g90
g71
NtRp1617
(dp1618
g74
(dp1619
sg83
g1604
sg76
(lp1620
g69
(g70
g71
NtRp1621
(dp1622
g74
(dp1623
g82
I4
ssg83
g1617
sg76
(lp1624
g112
asbasbasbag69
(g85
g71
NtRp1625
(dp1626
g74
(dp1627
sg83
g834
sg76
(lp1628
g69
(g90
g71
NtRp1629
(dp1630
g74
(dp1631
g94
g95
ssg83
g1625
sg76
(lp1632
S'wsgi_multithread'
p1633
asbag69
(g90
g71
NtRp1634
(dp1635
g74
(dp1636
g101
g102
ssg83
g1625
sg76
(lp1637
S':'
asbag69
(g90
g71
NtRp1638
(dp1639
g74
(dp1640
sg83
g1625
sg76
(lp1641
g69
(g70
g71
NtRp1642
(dp1643
g74
(dp1644
g82
I4
ssg83
g1638
sg76
(lp1645
S'True'
p1646
asbasbasbag69
(g85
g71
NtRp1647
(dp1648
g74
(dp1649
sg83
g834
sg76
(lp1650
g69
(g90
g71
NtRp1651
(dp1652
g74
(dp1653
g94
g95
ssg83
g1647
sg76
(lp1654
S'wsgi_run_once'
p1655
asbag69
(g90
g71
NtRp1656
(dp1657
g74
(dp1658
g101
g102
ssg83
g1647
sg76
(lp1659
S':'
asbag69
(g90
g71
NtRp1660
(dp1661
g74
(dp1662
sg83
g1647
sg76
(lp1663
g69
(g70
g71
NtRp1664
(dp1665
g74
(dp1666
g82
I4
ssg83
g1660
sg76
(lp1667
g112
asbasbasbag69
(g85
g71
NtRp1668
(dp1669
g74
(dp1670
sg83
g834
sg76
(lp1671
g69
(g90
g71
NtRp1672
(dp1673
g74
(dp1674
g94
g95
ssg83
g1668
sg76
(lp1675
S'wsgi_url_scheme'
p1676
asbag69
(g90
g71
NtRp1677
(dp1678
g74
(dp1679
g101
g102
ssg83
g1668
sg76
(lp1680
S':'
asbag69
(g90
g71
NtRp1681
(dp1682
g74
(dp1683
sg83
g1668
sg76
(lp1684
g69
(g70
g71
NtRp1685
(dp1686
g74
(dp1687
g82
I4
ssg83
g1681
sg76
(lp1688
S'http'
p1689
asbasbasbag69
(g85
g71
NtRp1690
(dp1691
g74
(dp1692
sg83
g834
sg76
(lp1693
g69
(g90
g71
NtRp1694
(dp1695
g74
(dp1696
g94
g95
ssg83
g1690
sg76
(lp1697
S'wsgi_version'
p1698
asbag69
(g90
g71
NtRp1699
(dp1700
g74
(dp1701
g101
g102
ssg83
g1690
sg76
(lp1702
S':'
asbag69
(g90
g71
NtRp1703
(dp1704
g74
(dp1705
sg83
g1690
sg76
(lp1706
g69
(g70
g71
NtRp1707
(dp1708
g74
(dp1709
g82
I4
ssg83
g1703
sg76
(lp1710
g69
(g78
g71
NtRp1711
(dp1712
g74
(dp1713
g82
I3
ssg83
Nsg76
(lp1714
g69
(g85
g71
NtRp1715
(dp1716
g74
(dp1717
sg83
g1711
sg76
(lp1718
g69
(g90
g71
NtRp1719
(dp1720
g74
(dp1721
sg83
g1715
sg76
(lp1722
g69
(g70
g71
NtRp1723
(dp1724
g74
(dp1725
g82
I3
ssg83
g1719
sg76
(lp1726
S'1'
asbasbasbag69
(g85
g71
NtRp1727
(dp1728
g74
(dp1729
sg83
g1711
sg76
(lp1730
g69
(g90
g71
NtRp1731
(dp1732
g74
(dp1733
sg83
g1727
sg76
(lp1734
g69
(g70
g71
NtRp1735
(dp1736
g74
(dp1737
g82
I3
ssg83
g1731
sg76
(lp1738
S'0'
asbasbasbasbasbasbasbasbasbasbasbag69
(g85
g71
NtRp1739
(dp1740
g74
(dp1741
sg83
g79
sg76
(lp1742
g69
(g90
g71
NtRp1743
(dp1744
g74
(dp1745
g94
g95
ssg83
g1739
sg76
(lp1746
S'extension'
p1747
asbag69
(g90
g71
NtRp1748
(dp1749
g74
(dp1750
g101
g102
ssg83
g1739
sg76
(lp1751
S':'
asbag69
(g90
g71
NtRp1752
(dp1753
g74
(dp1754
sg83
g1739
sg76
(lp1755
g69
(g70
g71
NtRp1756
(dp1757
g74
(dp1758
g82
I5
ssg83
g1752
sg76
(lp1759
S'html'
p1760
asbasbasbag69
(g85
g71
NtRp1761
(dp1762
g74
(dp1763
sg83
g79
sg76
(lp1764
g69
(g90
g71
NtRp1765
(dp1766
g74
(dp1767
g94
g95
ssg83
g1761
sg76
(lp1768
S'folder'
p1769
asbag69
(g90
g71
NtRp1770
(dp1771
g74
(dp1772
g101
g102
ssg83
g1761
sg76
(lp1773
S':'
asbag69
(g90
g71
NtRp1774
(dp1775
g74
(dp1776
sg83
g1761
sg76
(lp1777
g69
(g70
g71
NtRp1778
(dp1779
g74
(dp1780
g82
I5
ssg83
g1774
sg76
(lp1781
S'/web2py/applications/snapcop2/'
p1782
asbasbasbag69
(g85
g71
NtRp1783
(dp1784
g74
(dp1785
sg83
g79
sg76
(lp1786
g69
(g90
g71
NtRp1787
(dp1788
g74
(dp1789
g94
g95
ssg83
g1783
sg76
(lp1790
S'function'
p1791
asbag69
(g90
g71
NtRp1792
(dp1793
g74
(dp1794
g101
g102
ssg83
g1783
sg76
(lp1795
S':'
asbag69
(g90
g71
NtRp1796
(dp1797
g74
(dp1798
sg83
g1783
sg76
(lp1799
g69
(g70
g71
NtRp1800
(dp1801
g74
(dp1802
g82
I5
ssg83
g1796
sg76
(lp1803
S'form'
p1804
asbasbasbag69
(g85
g71
NtRp1805
(dp1806
g74
(dp1807
sg83
g79
sg76
(lp1808
g69
(g90
g71
NtRp1809
(dp1810
g74
(dp1811
g94
g95
ssg83
g1805
sg76
(lp1812
S'get_vars'
p1813
asbag69
(g90
g71
NtRp1814
(dp1815
g74
(dp1816
g101
g102
ssg83
g1805
sg76
(lp1817
S':'
asbag69
(g90
g71
NtRp1818
(dp1819
g74
(dp1820
sg83
g1805
sg76
(lp1821
g69
(g70
g71
NtRp1822
(dp1823
g74
(dp1824
g82
I5
ssg83
g1818
sg76
(lp1825
g69
(g78
g71
NtRp1826
(dp1827
g74
(dp1828
g82
I4
ssg83
Nsg76
(lp1829
sbasbasbasbag69
(g85
g71
NtRp1830
(dp1831
g74
(dp1832
sg83
g79
sg76
(lp1833
g69
(g90
g71
NtRp1834
(dp1835
g74
(dp1836
g94
g95
ssg83
g1830
sg76
(lp1837
S'global_settings'
p1838
asbag69
(g90
g71
NtRp1839
(dp1840
g74
(dp1841
g101
g102
ssg83
g1830
sg76
(lp1842
S':'
asbag69
(g90
g71
NtRp1843
(dp1844
g74
(dp1845
sg83
g1830
sg76
(lp1846
g69
(g70
g71
NtRp1847
(dp1848
g74
(dp1849
g82
I5
ssg83
g1843
sg76
(lp1850
g69
(g78
g71
NtRp1851
(dp1852
g74
(dp1853
g82
I4
ssg83
Nsg76
(lp1854
g69
(g85
g71
NtRp1855
(dp1856
g74
(dp1857
sg83
g1851
sg76
(lp1858
g69
(g90
g71
NtRp1859
(dp1860
g74
(dp1861
g94
g95
ssg83
g1855
sg76
(lp1862
g846
asbag69
(g90
g71
NtRp1863
(dp1864
g74
(dp1865
g101
g102
ssg83
g1855
sg76
(lp1866
S':'
asbag69
(g90
g71
NtRp1867
(dp1868
g74
(dp1869
sg83
g1855
sg76
(lp1870
g69
(g70
g71
NtRp1871
(dp1872
g74
(dp1873
g82
I4
ssg83
g1867
sg76
(lp1874
S"set(['/web2py/applications/admin/', '/web2py/applications/welcome/', '/web2py/applications/snapcop2/'])"
p1875
asbasbasbag69
(g85
g71
NtRp1876
(dp1877
g74
(dp1878
sg83
g1851
sg76
(lp1879
g69
(g90
g71
NtRp1880
(dp1881
g74
(dp1882
g94
g95
ssg83
g1876
sg76
(lp1883
g868
asbag69
(g90
g71
NtRp1884
(dp1885
g74
(dp1886
g101
g102
ssg83
g1876
sg76
(lp1887
S':'
asbag69
(g90
g71
NtRp1888
(dp1889
g74
(dp1890
sg83
g1876
sg76
(lp1891
g69
(g70
g71
NtRp1892
(dp1893
g74
(dp1894
g82
I4
ssg83
g1888
sg76
(lp1895
g881
asbasbasbag69
(g85
g71
NtRp1896
(dp1897
g74
(dp1898
sg83
g1851
sg76
(lp1899
g69
(g90
g71
NtRp1900
(dp1901
g74
(dp1902
g94
g95
ssg83
g1896
sg76
(lp1903
g890
asbag69
(g90
g71
NtRp1904
(dp1905
g74
(dp1906
g101
g102
ssg83
g1896
sg76
(lp1907
S':'
asbag69
(g90
g71
NtRp1908
(dp1909
g74
(dp1910
sg83
g1896
sg76
(lp1911
g69
(g70
g71
NtRp1912
(dp1913
g74
(dp1914
g82
I4
ssg83
g1908
sg76
(lp1915
g69
(g78
g71
NtRp1916
(dp1917
g74
(dp1918
g82
I3
ssg83
Nsg76
(lp1919
sbasbasbasbag69
(g85
g71
NtRp1920
(dp1921
g74
(dp1922
sg83
g1851
sg76
(lp1923
g69
(g90
g71
NtRp1924
(dp1925
g74
(dp1926
g94
g95
ssg83
g1920
sg76
(lp1927
g915
asbag69
(g90
g71
NtRp1928
(dp1929
g74
(dp1930
g101
g102
ssg83
g1920
sg76
(lp1931
S':'
asbag69
(g90
g71
NtRp1932
(dp1933
g74
(dp1934
sg83
g1920
sg76
(lp1935
g69
(g70
g71
NtRp1936
(dp1937
g74
(dp1938
g82
I4
ssg83
g1932
sg76
(lp1939
S"<Values at 0x2f62680: {'verbose': False, 'ip': '127.0.0.1', 'shutdown_timeout': 5, 'taskbar': False, 'nocron': False, 'pid_filename': 'httpserver.pid', 'maxthreads': None, 'softcron': False, 'server_name': 'declic-pc', 'bpython': False, 'nogui': False, 'port': 8000, 'extcron': False, 'debuglevel': 30, 'test': None, 'folder': '/web2py', 'config': '', 'import_models': False, 'winservice': '', 'shell': None, 'run': '', 'log_filename': 'httpserver.log', 'args': [''], 'socket_timeout': 5, 'ssl_ca_certificate': None, 'scheduler': None, 'profiler_filename': None, 'ssl_private_key': '', 'password': 'photos10', 'request_queue_size': 5, 'ssl_certificate': '', 'cronjob': False, 'numthreads': None, 'quiet': False, 'interfaces': None, 'minthreads': None, 'timeout': 10, 'plain': False, 'nobanner': False}>"
p1940
asbasbasbag69
(g85
g71
NtRp1941
(dp1942
g74
(dp1943
sg83
g1851
sg76
(lp1944
g69
(g90
g71
NtRp1945
(dp1946
g74
(dp1947
g94
g95
ssg83
g1941
sg76
(lp1948
g937
asbag69
(g90
g71
NtRp1949
(dp1950
g74
(dp1951
g101
g102
ssg83
g1941
sg76
(lp1952
S':'
asbag69
(g90
g71
NtRp1953
(dp1954
g74
(dp1955
sg83
g1941
sg76
(lp1956
g69
(g70
g71
NtRp1957
(dp1958
g74
(dp1959
g82
I4
ssg83
g1953
sg76
(lp1960
S'set([])'
p1961
asbasbasbag69
(g85
g71
NtRp1962
(dp1963
g74
(dp1964
sg83
g1851
sg76
(lp1965
g69
(g90
g71
NtRp1966
(dp1967
g74
(dp1968
g94
g95
ssg83
g1962
sg76
(lp1969
g959
asbag69
(g90
g71
NtRp1970
(dp1971
g74
(dp1972
g101
g102
ssg83
g1962
sg76
(lp1973
S':'
asbag69
(g90
g71
NtRp1974
(dp1975
g74
(dp1976
sg83
g1962
sg76
(lp1977
g69
(g70
g71
NtRp1978
(dp1979
g74
(dp1980
g82
I4
ssg83
g1974
sg76
(lp1981
g112
asbasbasbag69
(g85
g71
NtRp1982
(dp1983
g74
(dp1984
sg83
g1851
sg76
(lp1985
g69
(g90
g71
NtRp1986
(dp1987
g74
(dp1988
g94
g95
ssg83
g1982
sg76
(lp1989
g980
asbag69
(g90
g71
NtRp1990
(dp1991
g74
(dp1992
g101
g102
ssg83
g1982
sg76
(lp1993
S':'
asbag69
(g90
g71
NtRp1994
(dp1995
g74
(dp1996
sg83
g1982
sg76
(lp1997
g69
(g70
g71
NtRp1998
(dp1999
g74
(dp2000
g82
I4
ssg83
g1994
sg76
(lp2001
g993
asbasbasbag69
(g85
g71
NtRp2002
(dp2003
g74
(dp2004
sg83
g1851
sg76
(lp2005
g69
(g90
g71
NtRp2006
(dp2007
g74
(dp2008
g94
g95
ssg83
g2002
sg76
(lp2009
g1156
asbag69
(g90
g71
NtRp2010
(dp2011
g74
(dp2012
g101
g102
ssg83
g2002
sg76
(lp2013
S':'
asbag69
(g90
g71
NtRp2014
(dp2015
g74
(dp2016
sg83
g2002
sg76
(lp2017
g69
(g70
g71
NtRp2018
(dp2019
g74
(dp2020
g82
I4
ssg83
g2014
sg76
(lp2021
g112
asbasbasbag69
(g85
g71
NtRp2022
(dp2023
g74
(dp2024
sg83
g1851
sg76
(lp2025
g69
(g90
g71
NtRp2026
(dp2027
g74
(dp2028
g94
g95
ssg83
g2022
sg76
(lp2029
g1177
asbag69
(g90
g71
NtRp2030
(dp2031
g74
(dp2032
g101
g102
ssg83
g2022
sg76
(lp2033
S':'
asbag69
(g90
g71
NtRp2034
(dp2035
g74
(dp2036
sg83
g2022
sg76
(lp2037
g69
(g70
g71
NtRp2038
(dp2039
g74
(dp2040
g82
I4
ssg83
g2034
sg76
(lp2041
g112
asbasbasbag69
(g85
g71
NtRp2042
(dp2043
g74
(dp2044
sg83
g1851
sg76
(lp2045
g69
(g90
g71
NtRp2046
(dp2047
g74
(dp2048
g94
g95
ssg83
g2042
sg76
(lp2049
g1415
asbag69
(g90
g71
NtRp2050
(dp2051
g74
(dp2052
g101
g102
ssg83
g2042
sg76
(lp2053
S':'
asbag69
(g90
g71
NtRp2054
(dp2055
g74
(dp2056
sg83
g2042
sg76
(lp2057
g69
(g70
g71
NtRp2058
(dp2059
g74
(dp2060
g82
I4
ssg83
g2054
sg76
(lp2061
g1428
asbasbasbag69
(g85
g71
NtRp2062
(dp2063
g74
(dp2064
sg83
g1851
sg76
(lp2065
g69
(g90
g71
NtRp2066
(dp2067
g74
(dp2068
g94
g95
ssg83
g2062
sg76
(lp2069
g1458
asbag69
(g90
g71
NtRp2070
(dp2071
g74
(dp2072
g101
g102
ssg83
g2062
sg76
(lp2073
S':'
asbag69
(g90
g71
NtRp2074
(dp2075
g74
(dp2076
sg83
g2062
sg76
(lp2077
g69
(g70
g71
NtRp2078
(dp2079
g74
(dp2080
g82
I4
ssg83
g2074
sg76
(lp2081
g69
(g78
g71
NtRp2082
(dp2083
g74
(dp2084
g82
I3
ssg83
Nsg76
(lp2085
g69
(g85
g71
NtRp2086
(dp2087
g74
(dp2088
sg83
g2082
sg76
(lp2089
g69
(g90
g71
NtRp2090
(dp2091
g74
(dp2092
sg83
g2086
sg76
(lp2093
g69
(g70
g71
NtRp2094
(dp2095
g74
(dp2096
g82
I3
ssg83
g2090
sg76
(lp2097
S'1'
asbasbasbag69
(g85
g71
NtRp2098
(dp2099
g74
(dp2100
sg83
g2082
sg76
(lp2101
g69
(g90
g71
NtRp2102
(dp2103
g74
(dp2104
sg83
g2098
sg76
(lp2105
g69
(g70
g71
NtRp2106
(dp2107
g74
(dp2108
g82
I3
ssg83
g2102
sg76
(lp2109
S'99'
p2110
asbasbasbag69
(g85
g71
NtRp2111
(dp2112
g74
(dp2113
sg83
g2082
sg76
(lp2114
g69
(g90
g71
NtRp2115
(dp2116
g74
(dp2117
sg83
g2111
sg76
(lp2118
g69
(g70
g71
NtRp2119
(dp2120
g74
(dp2121
g82
I3
ssg83
g2115
sg76
(lp2122
S'7'
asbasbasbag69
(g85
g71
NtRp2123
(dp2124
g74
(dp2125
sg83
g2082
sg76
(lp2126
g69
(g90
g71
NtRp2127
(dp2128
g74
(dp2129
sg83
g2123
sg76
(lp2130
g69
(g70
g71
NtRp2131
(dp2132
g74
(dp2133
g82
I3
ssg83
g2127
sg76
(lp2134
S'datetime.datetime(2012, 3, 4, 22, 12, 8)'
p2135
asbasbasbag69
(g85
g71
NtRp2136
(dp2137
g74
(dp2138
sg83
g2082
sg76
(lp2139
g69
(g90
g71
NtRp2140
(dp2141
g74
(dp2142
sg83
g2136
sg76
(lp2143
g69
(g70
g71
NtRp2144
(dp2145
g74
(dp2146
g82
I3
ssg83
g2140
sg76
(lp2147
g1537
asbasbasbasbasbasbasbasbasbasbasbag69
(g85
g71
NtRp2148
(dp2149
g74
(dp2150
sg83
g79
sg76
(lp2151
g69
(g90
g71
NtRp2152
(dp2153
g74
(dp2154
g94
g95
ssg83
g2148
sg76
(lp2155
S'is_https'
p2156
asbag69
(g90
g71
NtRp2157
(dp2158
g74
(dp2159
g101
g102
ssg83
g2148
sg76
(lp2160
S':'
asbag69
(g90
g71
NtRp2161
(dp2162
g74
(dp2163
sg83
g2148
sg76
(lp2164
g69
(g70
g71
NtRp2165
(dp2166
g74
(dp2167
g82
I5
ssg83
g2161
sg76
(lp2168
g112
asbasbasbag69
(g85
g71
NtRp2169
(dp2170
g74
(dp2171
sg83
g79
sg76
(lp2172
g69
(g90
g71
NtRp2173
(dp2174
g74
(dp2175
g94
g95
ssg83
g2169
sg76
(lp2176
S'is_local'
p2177
asbag69
(g90
g71
NtRp2178
(dp2179
g74
(dp2180
g101
g102
ssg83
g2169
sg76
(lp2181
S':'
asbag69
(g90
g71
NtRp2182
(dp2183
g74
(dp2184
sg83
g2169
sg76
(lp2185
g69
(g70
g71
NtRp2186
(dp2187
g74
(dp2188
g82
I5
ssg83
g2182
sg76
(lp2189
g1646
asbasbasbag69
(g85
g71
NtRp2190
(dp2191
g74
(dp2192
sg83
g79
sg76
(lp2193
g69
(g90
g71
NtRp2194
(dp2195
g74
(dp2196
g94
g95
ssg83
g2190
sg76
(lp2197
S'is_restful'
p2198
asbag69
(g90
g71
NtRp2199
(dp2200
g74
(dp2201
g101
g102
ssg83
g2190
sg76
(lp2202
S':'
asbag69
(g90
g71
NtRp2203
(dp2204
g74
(dp2205
sg83
g2190
sg76
(lp2206
g69
(g70
g71
NtRp2207
(dp2208
g74
(dp2209
g82
I5
ssg83
g2203
sg76
(lp2210
g112
asbasbasbag69
(g85
g71
NtRp2211
(dp2212
g74
(dp2213
sg83
g79
sg76
(lp2214
g69
(g90
g71
NtRp2215
(dp2216
g74
(dp2217
g94
g95
ssg83
g2211
sg76
(lp2218
S'now'
p2219
asbag69
(g90
g71
NtRp2220
(dp2221
g74
(dp2222
g101
g102
ssg83
g2211
sg76
(lp2223
S':'
asbag69
(g90
g71
NtRp2224
(dp2225
g74
(dp2226
sg83
g2211
sg76
(lp2227
g69
(g70
g71
NtRp2228
(dp2229
g74
(dp2230
g82
I5
ssg83
g2224
sg76
(lp2231
S'datetime.datetime(2012, 8, 24, 11, 42, 49, 765461)'
p2232
asbasbasbag69
(g85
g71
NtRp2233
(dp2234
g74
(dp2235
sg83
g79
sg76
(lp2236
g69
(g90
g71
NtRp2237
(dp2238
g74
(dp2239
g94
g95
ssg83
g2233
sg76
(lp2240
S'post_vars'
p2241
asbag69
(g90
g71
NtRp2242
(dp2243
g74
(dp2244
g101
g102
ssg83
g2233
sg76
(lp2245
S':'
asbag69
(g90
g71
NtRp2246
(dp2247
g74
(dp2248
sg83
g2233
sg76
(lp2249
g69
(g70
g71
NtRp2250
(dp2251
g74
(dp2252
g82
I5
ssg83
g2246
sg76
(lp2253
g69
(g78
g71
NtRp2254
(dp2255
g74
(dp2256
g82
I4
ssg83
Nsg76
(lp2257
sbasbasbasbag69
(g85
g71
NtRp2258
(dp2259
g74
(dp2260
sg83
g79
sg76
(lp2261
g69
(g90
g71
NtRp2262
(dp2263
g74
(dp2264
g94
g95
ssg83
g2258
sg76
(lp2265
S'url'
p2266
asbag69
(g90
g71
NtRp2267
(dp2268
g74
(dp2269
g101
g102
ssg83
g2258
sg76
(lp2270
S':'
asbag69
(g90
g71
NtRp2271
(dp2272
g74
(dp2273
sg83
g2258
sg76
(lp2274
g69
(g70
g71
NtRp2275
(dp2276
g74
(dp2277
g82
I5
ssg83
g2271
sg76
(lp2278
S'/snapcop2/form/form'
p2279
asbasbasbag69
(g85
g71
NtRp2280
(dp2281
g74
(dp2282
sg83
g79
sg76
(lp2283
g69
(g90
g71
NtRp2284
(dp2285
g74
(dp2286
g94
g95
ssg83
g2280
sg76
(lp2287
S'utcnow'
p2288
asbag69
(g90
g71
NtRp2289
(dp2290
g74
(dp2291
g101
g102
ssg83
g2280
sg76
(lp2292
S':'
asbag69
(g90
g71
NtRp2293
(dp2294
g74
(dp2295
sg83
g2280
sg76
(lp2296
g69
(g70
g71
NtRp2297
(dp2298
g74
(dp2299
g82
I5
ssg83
g2293
sg76
(lp2300
S'datetime.datetime(2012, 8, 24, 9, 42, 49, 765484)'
p2301
asbasbasbag69
(g85
g71
NtRp2302
(dp2303
g74
(dp2304
sg83
g79
sg76
(lp2305
g69
(g90
g71
NtRp2306
(dp2307
g74
(dp2308
g94
g95
ssg83
g2302
sg76
(lp2309
S'uuid'
p2310
asbag69
(g90
g71
NtRp2311
(dp2312
g74
(dp2313
g101
g102
ssg83
g2302
sg76
(lp2314
S':'
asbag69
(g90
g71
NtRp2315
(dp2316
g74
(dp2317
sg83
g2302
sg76
(lp2318
g69
(g70
g71
NtRp2319
(dp2320
g74
(dp2321
g82
I5
ssg83
g2315
sg76
(lp2322
S'snapcop2/127.0.0.1.2012-08-24.11-42-49.2f8c53bb-9250-4d48-bb75-43527f0b1149'
p2323
asbasbasbag69
(g85
g71
NtRp2324
(dp2325
g74
(dp2326
sg83
g79
sg76
(lp2327
g69
(g90
g71
NtRp2328
(dp2329
g74
(dp2330
g94
g95
ssg83
g2324
sg76
(lp2331
S'vars'
p2332
asbag69
(g90
g71
NtRp2333
(dp2334
g74
(dp2335
g101
g102
ssg83
g2324
sg76
(lp2336
S':'
asbag69
(g90
g71
NtRp2337
(dp2338
g74
(dp2339
sg83
g2324
sg76
(lp2340
g69
(g70
g71
NtRp2341
(dp2342
g74
(dp2343
g82
I5
ssg83
g2337
sg76
(lp2344
g69
(g78
g71
NtRp2345
(dp2346
g74
(dp2347
g82
I4
ssg83
Nsg76
(lp2348
sbasbasbasbag69
(g85
g71
NtRp2349
(dp2350
g74
(dp2351
sg83
g79
sg76
(lp2352
g69
(g90
g71
NtRp2353
(dp2354
g74
(dp2355
g94
g95
ssg83
g2349
sg76
(lp2356
S'wsgi'
p2357
asbag69
(g90
g71
NtRp2358
(dp2359
g74
(dp2360
g101
g102
ssg83
g2349
sg76
(lp2361
S':'
asbag69
(g90
g71
NtRp2362
(dp2363
g74
(dp2364
sg83
g2349
sg76
(lp2365
g69
(g70
g71
NtRp2366
(dp2367
g74
(dp2368
g82
I5
ssg83
g2362
sg76
(lp2369
g69
(g78
g71
NtRp2370
(dp2371
g74
(dp2372
g82
I4
ssg83
Nsg76
(lp2373
g69
(g85
g71
NtRp2374
(dp2375
g74
(dp2376
sg83
g2370
sg76
(lp2377
g69
(g90
g71
NtRp2378
(dp2379
g74
(dp2380
g94
g95
ssg83
g2374
sg76
(lp2381
S'environ'
p2382
asbag69
(g90
g71
NtRp2383
(dp2384
g74
(dp2385
g101
g102
ssg83
g2374
sg76
(lp2386
S':'
asbag69
(g90
g71
NtRp2387
(dp2388
g74
(dp2389
sg83
g2374
sg76
(lp2390
g69
(g70
g71
NtRp2391
(dp2392
g74
(dp2393
g82
I4
ssg83
g2387
sg76
(lp2394
g69
(g78
g71
NtRp2395
(dp2396
g74
(dp2397
g82
I3
ssg83
Nsg76
(lp2398
g69
(g85
g71
NtRp2399
(dp2400
g74
(dp2401
sg83
g2395
sg76
(lp2402
g69
(g90
g71
NtRp2403
(dp2404
g74
(dp2405
g94
g95
ssg83
g2399
sg76
(lp2406
S'HTTP_ACCEPT'
p2407
asbag69
(g90
g71
NtRp2408
(dp2409
g74
(dp2410
g101
g102
ssg83
g2399
sg76
(lp2411
S':'
asbag69
(g90
g71
NtRp2412
(dp2413
g74
(dp2414
sg83
g2399
sg76
(lp2415
g69
(g70
g71
NtRp2416
(dp2417
g74
(dp2418
g82
I3
ssg83
g2412
sg76
(lp2419
g1015
asbasbasbag69
(g85
g71
NtRp2420
(dp2421
g74
(dp2422
sg83
g2395
sg76
(lp2423
g69
(g90
g71
NtRp2424
(dp2425
g74
(dp2426
g94
g95
ssg83
g2420
sg76
(lp2427
S'HTTP_ACCEPT_ENCODING'
p2428
asbag69
(g90
g71
NtRp2429
(dp2430
g74
(dp2431
g101
g102
ssg83
g2420
sg76
(lp2432
S':'
asbag69
(g90
g71
NtRp2433
(dp2434
g74
(dp2435
sg83
g2420
sg76
(lp2436
g69
(g70
g71
NtRp2437
(dp2438
g74
(dp2439
g82
I3
ssg83
g2433
sg76
(lp2440
g1037
asbasbasbag69
(g85
g71
NtRp2441
(dp2442
g74
(dp2443
sg83
g2395
sg76
(lp2444
g69
(g90
g71
NtRp2445
(dp2446
g74
(dp2447
g94
g95
ssg83
g2441
sg76
(lp2448
S'HTTP_ACCEPT_LANGUAGE'
p2449
asbag69
(g90
g71
NtRp2450
(dp2451
g74
(dp2452
g101
g102
ssg83
g2441
sg76
(lp2453
S':'
asbag69
(g90
g71
NtRp2454
(dp2455
g74
(dp2456
sg83
g2441
sg76
(lp2457
g69
(g70
g71
NtRp2458
(dp2459
g74
(dp2460
g82
I3
ssg83
g2454
sg76
(lp2461
g1059
asbasbasbag69
(g85
g71
NtRp2462
(dp2463
g74
(dp2464
sg83
g2395
sg76
(lp2465
g69
(g90
g71
NtRp2466
(dp2467
g74
(dp2468
g94
g95
ssg83
g2462
sg76
(lp2469
S'HTTP_CONNECTION'
p2470
asbag69
(g90
g71
NtRp2471
(dp2472
g74
(dp2473
g101
g102
ssg83
g2462
sg76
(lp2474
S':'
asbag69
(g90
g71
NtRp2475
(dp2476
g74
(dp2477
sg83
g2462
sg76
(lp2478
g69
(g70
g71
NtRp2479
(dp2480
g74
(dp2481
g82
I3
ssg83
g2475
sg76
(lp2482
g1081
asbasbasbag69
(g85
g71
NtRp2483
(dp2484
g74
(dp2485
sg83
g2395
sg76
(lp2486
g69
(g90
g71
NtRp2487
(dp2488
g74
(dp2489
g94
g95
ssg83
g2483
sg76
(lp2490
S'HTTP_COOKIE'
p2491
asbag69
(g90
g71
NtRp2492
(dp2493
g74
(dp2494
g101
g102
ssg83
g2483
sg76
(lp2495
S':'
asbag69
(g90
g71
NtRp2496
(dp2497
g74
(dp2498
sg83
g2483
sg76
(lp2499
g69
(g70
g71
NtRp2500
(dp2501
g74
(dp2502
g82
I3
ssg83
g2496
sg76
(lp2503
g1103
asbasbasbag69
(g85
g71
NtRp2504
(dp2505
g74
(dp2506
sg83
g2395
sg76
(lp2507
g69
(g90
g71
NtRp2508
(dp2509
g74
(dp2510
g94
g95
ssg83
g2504
sg76
(lp2511
S'HTTP_HOST'
p2512
asbag69
(g90
g71
NtRp2513
(dp2514
g74
(dp2515
g101
g102
ssg83
g2504
sg76
(lp2516
S':'
asbag69
(g90
g71
NtRp2517
(dp2518
g74
(dp2519
sg83
g2504
sg76
(lp2520
g69
(g70
g71
NtRp2521
(dp2522
g74
(dp2523
g82
I3
ssg83
g2517
sg76
(lp2524
g1125
asbasbasbag69
(g85
g71
NtRp2525
(dp2526
g74
(dp2527
sg83
g2395
sg76
(lp2528
g69
(g90
g71
NtRp2529
(dp2530
g74
(dp2531
g94
g95
ssg83
g2525
sg76
(lp2532
S'HTTP_USER_AGENT'
p2533
asbag69
(g90
g71
NtRp2534
(dp2535
g74
(dp2536
g101
g102
ssg83
g2525
sg76
(lp2537
S':'
asbag69
(g90
g71
NtRp2538
(dp2539
g74
(dp2540
sg83
g2525
sg76
(lp2541
g69
(g70
g71
NtRp2542
(dp2543
g74
(dp2544
g82
I3
ssg83
g2538
sg76
(lp2545
g1147
asbasbasbag69
(g85
g71
NtRp2546
(dp2547
g74
(dp2548
sg83
g2395
sg76
(lp2549
g69
(g90
g71
NtRp2550
(dp2551
g74
(dp2552
g94
g95
ssg83
g2546
sg76
(lp2553
S'PATH_INFO'
p2554
asbag69
(g90
g71
NtRp2555
(dp2556
g74
(dp2557
g101
g102
ssg83
g2546
sg76
(lp2558
S':'
asbag69
(g90
g71
NtRp2559
(dp2560
g74
(dp2561
sg83
g2546
sg76
(lp2562
g69
(g70
g71
NtRp2563
(dp2564
g74
(dp2565
g82
I3
ssg83
g2559
sg76
(lp2566
g1211
asbasbasbag69
(g85
g71
NtRp2567
(dp2568
g74
(dp2569
sg83
g2395
sg76
(lp2570
g69
(g90
g71
NtRp2571
(dp2572
g74
(dp2573
g94
g95
ssg83
g2567
sg76
(lp2574
S'QUERY_STRING'
p2575
asbag69
(g90
g71
NtRp2576
(dp2577
g74
(dp2578
g101
g102
ssg83
g2567
sg76
(lp2579
S':'
asbag69
(g90
g71
NtRp2580
(dp2581
g74
(dp2582
sg83
g2567
sg76
(lp2583
g69
(g70
g71
NtRp2584
(dp2585
g74
(dp2586
g82
I3
ssg83
g2580
sg76
(lp2587
S''
asbasbasbag69
(g85
g71
NtRp2588
(dp2589
g74
(dp2590
sg83
g2395
sg76
(lp2591
g69
(g90
g71
NtRp2592
(dp2593
g74
(dp2594
g94
g95
ssg83
g2588
sg76
(lp2595
S'REMOTE_ADDR'
p2596
asbag69
(g90
g71
NtRp2597
(dp2598
g74
(dp2599
g101
g102
ssg83
g2588
sg76
(lp2600
S':'
asbag69
(g90
g71
NtRp2601
(dp2602
g74
(dp2603
sg83
g2588
sg76
(lp2604
g69
(g70
g71
NtRp2605
(dp2606
g74
(dp2607
g82
I3
ssg83
g2601
sg76
(lp2608
g202
asbasbasbag69
(g85
g71
NtRp2609
(dp2610
g74
(dp2611
sg83
g2395
sg76
(lp2612
g69
(g90
g71
NtRp2613
(dp2614
g74
(dp2615
g94
g95
ssg83
g2609
sg76
(lp2616
S'REMOTE_PORT'
p2617
asbag69
(g90
g71
NtRp2618
(dp2619
g74
(dp2620
g101
g102
ssg83
g2609
sg76
(lp2621
S':'
asbag69
(g90
g71
NtRp2622
(dp2623
g74
(dp2624
sg83
g2609
sg76
(lp2625
g69
(g70
g71
NtRp2626
(dp2627
g74
(dp2628
g82
I3
ssg83
g2622
sg76
(lp2629
g1275
asbasbasbag69
(g85
g71
NtRp2630
(dp2631
g74
(dp2632
sg83
g2395
sg76
(lp2633
g69
(g90
g71
NtRp2634
(dp2635
g74
(dp2636
g94
g95
ssg83
g2630
sg76
(lp2637
S'REQUEST_METHOD'
p2638
asbag69
(g90
g71
NtRp2639
(dp2640
g74
(dp2641
g101
g102
ssg83
g2630
sg76
(lp2642
S':'
asbag69
(g90
g71
NtRp2643
(dp2644
g74
(dp2645
sg83
g2630
sg76
(lp2646
g69
(g70
g71
NtRp2647
(dp2648
g74
(dp2649
g82
I3
ssg83
g2643
sg76
(lp2650
g1297
asbasbasbag69
(g85
g71
NtRp2651
(dp2652
g74
(dp2653
sg83
g2395
sg76
(lp2654
g69
(g90
g71
NtRp2655
(dp2656
g74
(dp2657
g94
g95
ssg83
g2651
sg76
(lp2658
S'SCRIPT_NAME'
p2659
asbag69
(g90
g71
NtRp2660
(dp2661
g74
(dp2662
g101
g102
ssg83
g2651
sg76
(lp2663
S':'
asbag69
(g90
g71
NtRp2664
(dp2665
g74
(dp2666
sg83
g2651
sg76
(lp2667
g69
(g70
g71
NtRp2668
(dp2669
g74
(dp2670
g82
I3
ssg83
g2664
sg76
(lp2671
S''
asbasbasbag69
(g85
g71
NtRp2672
(dp2673
g74
(dp2674
sg83
g2395
sg76
(lp2675
g69
(g90
g71
NtRp2676
(dp2677
g74
(dp2678
g94
g95
ssg83
g2672
sg76
(lp2679
S'SERVER_NAME'
p2680
asbag69
(g90
g71
NtRp2681
(dp2682
g74
(dp2683
g101
g102
ssg83
g2672
sg76
(lp2684
S':'
asbag69
(g90
g71
NtRp2685
(dp2686
g74
(dp2687
sg83
g2672
sg76
(lp2688
g69
(g70
g71
NtRp2689
(dp2690
g74
(dp2691
g82
I3
ssg83
g2685
sg76
(lp2692
g1340
asbasbasbag69
(g85
g71
NtRp2693
(dp2694
g74
(dp2695
sg83
g2395
sg76
(lp2696
g69
(g90
g71
NtRp2697
(dp2698
g74
(dp2699
g94
g95
ssg83
g2693
sg76
(lp2700
S'SERVER_PORT'
p2701
asbag69
(g90
g71
NtRp2702
(dp2703
g74
(dp2704
g101
g102
ssg83
g2693
sg76
(lp2705
S':'
asbag69
(g90
g71
NtRp2706
(dp2707
g74
(dp2708
sg83
g2693
sg76
(lp2709
g69
(g70
g71
NtRp2710
(dp2711
g74
(dp2712
g82
I3
ssg83
g2706
sg76
(lp2713
g1362
asbasbasbag69
(g85
g71
NtRp2714
(dp2715
g74
(dp2716
sg83
g2395
sg76
(lp2717
g69
(g90
g71
NtRp2718
(dp2719
g74
(dp2720
g94
g95
ssg83
g2714
sg76
(lp2721
S'SERVER_PROTOCOL'
p2722
asbag69
(g90
g71
NtRp2723
(dp2724
g74
(dp2725
g101
g102
ssg83
g2714
sg76
(lp2726
S':'
asbag69
(g90
g71
NtRp2727
(dp2728
g74
(dp2729
sg83
g2714
sg76
(lp2730
g69
(g70
g71
NtRp2731
(dp2732
g74
(dp2733
g82
I3
ssg83
g2727
sg76
(lp2734
g1384
asbasbasbag69
(g85
g71
NtRp2735
(dp2736
g74
(dp2737
sg83
g2395
sg76
(lp2738
g69
(g90
g71
NtRp2739
(dp2740
g74
(dp2741
g94
g95
ssg83
g2735
sg76
(lp2742
S'SERVER_SOFTWARE'
p2743
asbag69
(g90
g71
NtRp2744
(dp2745
g74
(dp2746
g101
g102
ssg83
g2735
sg76
(lp2747
S':'
asbag69
(g90
g71
NtRp2748
(dp2749
g74
(dp2750
sg83
g2735
sg76
(lp2751
g69
(g70
g71
NtRp2752
(dp2753
g74
(dp2754
g82
I3
ssg83
g2748
sg76
(lp2755
g1406
asbasbasbag69
(g85
g71
NtRp2756
(dp2757
g74
(dp2758
sg83
g2395
sg76
(lp2759
g69
(g90
g71
NtRp2760
(dp2761
g74
(dp2762
g94
g95
ssg83
g2756
sg76
(lp2763
S'wsgi.errors'
p2764
asbag69
(g90
g71
NtRp2765
(dp2766
g74
(dp2767
g101
g102
ssg83
g2756
sg76
(lp2768
S':'
asbag69
(g90
g71
NtRp2769
(dp2770
g74
(dp2771
sg83
g2756
sg76
(lp2772
g69
(g70
g71
NtRp2773
(dp2774
g74
(dp2775
g82
I3
ssg83
g2769
sg76
(lp2776
S"<open file '<stderr>', mode 'w' at 0x7f49ef740270>"
p2777
asbasbasbag69
(g85
g71
NtRp2778
(dp2779
g74
(dp2780
sg83
g2395
sg76
(lp2781
g69
(g90
g71
NtRp2782
(dp2783
g74
(dp2784
g94
g95
ssg83
g2778
sg76
(lp2785
S'wsgi.file_wrapper'
p2786
asbag69
(g90
g71
NtRp2787
(dp2788
g74
(dp2789
g101
g102
ssg83
g2778
sg76
(lp2790
S':'
asbag69
(g90
g71
NtRp2791
(dp2792
g74
(dp2793
sg83
g2778
sg76
(lp2794
g69
(g70
g71
NtRp2795
(dp2796
g74
(dp2797
g82
I3
ssg83
g2791
sg76
(lp2798
S'<class wsgiref.util.FileWrapper at 0x2e896d0>'
p2799
asbasbasbag69
(g85
g71
NtRp2800
(dp2801
g74
(dp2802
sg83
g2395
sg76
(lp2803
g69
(g90
g71
NtRp2804
(dp2805
g74
(dp2806
g94
g95
ssg83
g2800
sg76
(lp2807
S'wsgi.input'
p2808
asbag69
(g90
g71
NtRp2809
(dp2810
g74
(dp2811
g101
g102
ssg83
g2800
sg76
(lp2812
S':'
asbag69
(g90
g71
NtRp2813
(dp2814
g74
(dp2815
sg83
g2800
sg76
(lp2816
g69
(g70
g71
NtRp2817
(dp2818
g74
(dp2819
g82
I3
ssg83
g2813
sg76
(lp2820
S'<cStringIO.StringO object at 0x2f88c38>'
p2821
asbasbasbag69
(g85
g71
NtRp2822
(dp2823
g74
(dp2824
sg83
g2395
sg76
(lp2825
g69
(g90
g71
NtRp2826
(dp2827
g74
(dp2828
g94
g95
ssg83
g2822
sg76
(lp2829
S'wsgi.multiprocess'
p2830
asbag69
(g90
g71
NtRp2831
(dp2832
g74
(dp2833
g101
g102
ssg83
g2822
sg76
(lp2834
S':'
asbag69
(g90
g71
NtRp2835
(dp2836
g74
(dp2837
sg83
g2822
sg76
(lp2838
g69
(g70
g71
NtRp2839
(dp2840
g74
(dp2841
g82
I3
ssg83
g2835
sg76
(lp2842
g112
asbasbasbag69
(g85
g71
NtRp2843
(dp2844
g74
(dp2845
sg83
g2395
sg76
(lp2846
g69
(g90
g71
NtRp2847
(dp2848
g74
(dp2849
g94
g95
ssg83
g2843
sg76
(lp2850
S'wsgi.multithread'
p2851
asbag69
(g90
g71
NtRp2852
(dp2853
g74
(dp2854
g101
g102
ssg83
g2843
sg76
(lp2855
S':'
asbag69
(g90
g71
NtRp2856
(dp2857
g74
(dp2858
sg83
g2843
sg76
(lp2859
g69
(g70
g71
NtRp2860
(dp2861
g74
(dp2862
g82
I3
ssg83
g2856
sg76
(lp2863
g1646
asbasbasbag69
(g85
g71
NtRp2864
(dp2865
g74
(dp2866
sg83
g2395
sg76
(lp2867
g69
(g90
g71
NtRp2868
(dp2869
g74
(dp2870
g94
g95
ssg83
g2864
sg76
(lp2871
S'wsgi.run_once'
p2872
asbag69
(g90
g71
NtRp2873
(dp2874
g74
(dp2875
g101
g102
ssg83
g2864
sg76
(lp2876
S':'
asbag69
(g90
g71
NtRp2877
(dp2878
g74
(dp2879
sg83
g2864
sg76
(lp2880
g69
(g70
g71
NtRp2881
(dp2882
g74
(dp2883
g82
I3
ssg83
g2877
sg76
(lp2884
g112
asbasbasbag69
(g85
g71
NtRp2885
(dp2886
g74
(dp2887
sg83
g2395
sg76
(lp2888
g69
(g90
g71
NtRp2889
(dp2890
g74
(dp2891
g94
g95
ssg83
g2885
sg76
(lp2892
S'wsgi.url_scheme'
p2893
asbag69
(g90
g71
NtRp2894
(dp2895
g74
(dp2896
g101
g102
ssg83
g2885
sg76
(lp2897
S':'
asbag69
(g90
g71
NtRp2898
(dp2899
g74
(dp2900
sg83
g2885
sg76
(lp2901
g69
(g70
g71
NtRp2902
(dp2903
g74
(dp2904
g82
I3
ssg83
g2898
sg76
(lp2905
g1689
asbasbasbag69
(g85
g71
NtRp2906
(dp2907
g74
(dp2908
sg83
g2395
sg76
(lp2909
g69
(g90
g71
NtRp2910
(dp2911
g74
(dp2912
g94
g95
ssg83
g2906
sg76
(lp2913
S'wsgi.version'
p2914
asbag69
(g90
g71
NtRp2915
(dp2916
g74
(dp2917
g101
g102
ssg83
g2906
sg76
(lp2918
S':'
asbag69
(g90
g71
NtRp2919
(dp2920
g74
(dp2921
sg83
g2906
sg76
(lp2922
g69
(g70
g71
NtRp2923
(dp2924
g74
(dp2925
g82
I3
ssg83
g2919
sg76
(lp2926
S'1'
asbasbasbasbasbasbasbasbasbasbasbasbasbsS'frames'
p2927
(lp2928
(dp2929
S'file'
p2930
S'/web2py/gluon/restricted.py'
p2931
sS'dump'
p2932
(dp2933
S'code'
p2934
S"'# -*- coding: utf-8 -*-\\n\\ndef form():\\n    form=FO...turn name\\n\\nresponse._vars=response._caller(form)\\n'"
p2935
sS'layer'
p2936
S"'/web2py/applications/snapcop2/controllers/form.py'"
p2937
sS'global compile2'
p2938
S'<function compile2>'
p2939
sS'ccode'
p2940
S'undefined'
p2941
ssS'lnum'
p2942
I204
sS'lines'
p2943
(dp2944
I199
S"    environment['__name__'] = '__restricted__'"
p2945
sI200
S'    try:'
p2946
sI201
S'        if type(code) == types.CodeType:'
p2947
sI202
S'            ccode = code'
p2948
sI203
S'        else:'
p2949
sI204
S'            ccode = compile2(code,layer)'
p2950
sI205
S'        exec ccode in environment'
p2951
sI206
S'    except HTTP:'
p2952
sI207
S'        raise'
p2953
sI208
S'    except RestrictedError:'
p2954
ssS'call'
p2955
S"(code='# -*- coding: utf-8 -*-\\n\\ndef form():\\n    form=FO...turn name\\n\\nresponse._vars=response._caller(form)\\n', environment={'A': <class 'gluon.html.A'>, 'Auth': <class 'gluon.tools.Auth'>, 'B': <class 'gluon.html.B'>, 'BEAUTIFY': <class 'gluon.html.BEAUTIFY'>, 'BODY': <class 'gluon.html.BODY'>, 'BR': <class 'gluon.html.BR'>, 'BUTTON': <class 'gluon.html.BUTTON'>, 'CAT': <class 'gluon.html.CAT'>, 'CENTER': <class 'gluon.html.CENTER'>, 'CLEANUP': <class 'gluon.validators.CLEANUP'>, ...}, layer='/web2py/applications/snapcop2/controllers/form.py')"
p2956
sS'func'
p2957
S'restricted'
p2958
sa(dp2959
g2930
S'/web2py/gluon/restricted.py'
p2960
sg2932
(dp2961
S'builtincompile'
p2962
S'<built-in function compile>'
p2963
sS'code'
p2964
S"'# -*- coding: utf-8 -*-\\n\\ndef form():\\n    form=FO...turn name\\n\\nresponse._vars=response._caller(form)\\n'"
p2965
sS'code.rstrip'
p2966
S'<built-in method rstrip of str object>'
p2967
sS').replace'
p2968
g2941
sS'layer'
p2969
S"'/web2py/applications/snapcop2/controllers/form.py'"
p2970
ssg2942
I189
sg2943
(dp2971
I192
S'    """'
p2972
sI193
S'    runs code in environment and returns the output. if an exception occurs'
p2973
sI184
S''
sI185
S'def compile2(code,layer):'
p2974
sI186
S'    """'
p2975
sI187
S"    The +'\\n' is necessary else compile fails when code ends in a comment."
p2976
sI188
S'    """'
p2977
sI189
S"    return compile(code.rstrip().replace('\\r\\n','\\n')+'\\n', layer, 'exec')"
p2978
sI190
S''
sI191
S"def restricted(code, environment=None, layer='Unknown'):"
p2979
ssg2955
S"(code='# -*- coding: utf-8 -*-\\n\\ndef form():\\n    form=FO...turn name\\n\\nresponse._vars=response._caller(form)\\n', layer='/web2py/applications/snapcop2/controllers/form.py')"
p2980
sg2957
S'compile2'
p2981
sasS'pyver'
p2982
S'Python 2.7.3: /usr/bin/python'
p2983
sS'session'
p2984
g69
(g70
g71
NtRp2985
(dp2986
g74
(dp2987
sg76
(lp2988
g69
(g78
g71
NtRp2989
(dp2990
g74
(dp2991
g82
I5
ssg83
Nsg76
(lp2992
sbasbsS'etype'
p2993
S"<type 'exceptions.SyntaxError'>"
p2994
sS'date'
p2995
S'Fri Aug 24 11:42:49 2012'
p2996
sS'response'
p2997
g69
(g70
g71
NtRp2998
(dp2999
g74
(dp3000
sg76
(lp3001
g69
(g78
g71
NtRp3002
(dp3003
g74
(dp3004
g82
I5
ssg83
Nsg76
(lp3005
g69
(g85
g71
NtRp3006
(dp3007
g74
(dp3008
sg83
g3002
sg76
(lp3009
g69
(g90
g71
NtRp3010
(dp3011
g74
(dp3012
g94
g95
ssg83
g3006
sg76
(lp3013
g167
asbag69
(g90
g71
NtRp3014
(dp3015
g74
(dp3016
g101
g102
ssg83
g3006
sg76
(lp3017
S':'
asbag69
(g90
g71
NtRp3018
(dp3019
g74
(dp3020
sg83
g3006
sg76
(lp3021
g69
(g70
g71
NtRp3022
(dp3023
g74
(dp3024
g82
I5
ssg83
g3018
sg76
(lp3025
S'<cStringIO.StringO object at 0x2fc3b20>'
p3026
asbasbasbag69
(g85
g71
NtRp3027
(dp3028
g74
(dp3029
sg83
g3002
sg76
(lp3030
g69
(g90
g71
NtRp3031
(dp3032
g74
(dp3033
g94
g95
ssg83
g3027
sg76
(lp3034
g233
asbag69
(g90
g71
NtRp3035
(dp3036
g74
(dp3037
g101
g102
ssg83
g3027
sg76
(lp3038
S':'
asbag69
(g90
g71
NtRp3039
(dp3040
g74
(dp3041
sg83
g3027
sg76
(lp3042
g69
(g70
g71
NtRp3043
(dp3044
g74
(dp3045
g82
I5
ssg83
g3039
sg76
(lp3046
g69
(g78
g71
NtRp3047
(dp3048
g74
(dp3049
g82
I4
ssg83
Nsg76
(lp3050
g69
(g85
g71
NtRp3051
(dp3052
g74
(dp3053
sg83
g3047
sg76
(lp3054
g69
(g90
g71
NtRp3055
(dp3056
g74
(dp3057
g94
g95
ssg83
g3051
sg76
(lp3058
S'session_id_snapcop2'
p3059
asbag69
(g90
g71
NtRp3060
(dp3061
g74
(dp3062
g101
g102
ssg83
g3051
sg76
(lp3063
S':'
asbag69
(g90
g71
NtRp3064
(dp3065
g74
(dp3066
sg83
g3051
sg76
(lp3067
g69
(g70
g71
NtRp3068
(dp3069
g74
(dp3070
g82
I4
ssg83
g3064
sg76
(lp3071
g69
(g78
g71
NtRp3072
(dp3073
g74
(dp3074
g82
I3
ssg83
Nsg76
(lp3075
g69
(g85
g71
NtRp3076
(dp3077
g74
(dp3078
sg83
g3072
sg76
(lp3079
g69
(g90
g71
NtRp3080
(dp3081
g74
(dp3082
g94
g95
ssg83
g3076
sg76
(lp3083
g283
asbag69
(g90
g71
NtRp3084
(dp3085
g74
(dp3086
g101
g102
ssg83
g3076
sg76
(lp3087
S':'
asbag69
(g90
g71
NtRp3088
(dp3089
g74
(dp3090
sg83
g3076
sg76
(lp3091
g69
(g70
g71
NtRp3092
(dp3093
g74
(dp3094
g82
I3
ssg83
g3088
sg76
(lp3095
S''
asbasbasbag69
(g85
g71
NtRp3096
(dp3097
g74
(dp3098
sg83
g3072
sg76
(lp3099
g69
(g90
g71
NtRp3100
(dp3101
g74
(dp3102
g94
g95
ssg83
g3096
sg76
(lp3103
g304
asbag69
(g90
g71
NtRp3104
(dp3105
g74
(dp3106
g101
g102
ssg83
g3096
sg76
(lp3107
S':'
asbag69
(g90
g71
NtRp3108
(dp3109
g74
(dp3110
sg83
g3096
sg76
(lp3111
g69
(g70
g71
NtRp3112
(dp3113
g74
(dp3114
g82
I3
ssg83
g3108
sg76
(lp3115
S''
asbasbasbag69
(g85
g71
NtRp3116
(dp3117
g74
(dp3118
sg83
g3072
sg76
(lp3119
g69
(g90
g71
NtRp3120
(dp3121
g74
(dp3122
g94
g95
ssg83
g3116
sg76
(lp3123
g325
asbag69
(g90
g71
NtRp3124
(dp3125
g74
(dp3126
g101
g102
ssg83
g3116
sg76
(lp3127
S':'
asbag69
(g90
g71
NtRp3128
(dp3129
g74
(dp3130
sg83
g3116
sg76
(lp3131
g69
(g70
g71
NtRp3132
(dp3133
g74
(dp3134
g82
I3
ssg83
g3128
sg76
(lp3135
S''
asbasbasbag69
(g85
g71
NtRp3136
(dp3137
g74
(dp3138
sg83
g3072
sg76
(lp3139
g69
(g90
g71
NtRp3140
(dp3141
g74
(dp3142
g94
g95
ssg83
g3136
sg76
(lp3143
g346
asbag69
(g90
g71
NtRp3144
(dp3145
g74
(dp3146
g101
g102
ssg83
g3136
sg76
(lp3147
S':'
asbag69
(g90
g71
NtRp3148
(dp3149
g74
(dp3150
sg83
g3136
sg76
(lp3151
g69
(g70
g71
NtRp3152
(dp3153
g74
(dp3154
g82
I3
ssg83
g3148
sg76
(lp3155
S''
asbasbasbag69
(g85
g71
NtRp3156
(dp3157
g74
(dp3158
sg83
g3072
sg76
(lp3159
g69
(g90
g71
NtRp3160
(dp3161
g74
(dp3162
g94
g95
ssg83
g3156
sg76
(lp3163
g367
asbag69
(g90
g71
NtRp3164
(dp3165
g74
(dp3166
g101
g102
ssg83
g3156
sg76
(lp3167
S':'
asbag69
(g90
g71
NtRp3168
(dp3169
g74
(dp3170
sg83
g3156
sg76
(lp3171
g69
(g70
g71
NtRp3172
(dp3173
g74
(dp3174
g82
I3
ssg83
g3168
sg76
(lp3175
S''
asbasbasbag69
(g85
g71
NtRp3176
(dp3177
g74
(dp3178
sg83
g3072
sg76
(lp3179
g69
(g90
g71
NtRp3180
(dp3181
g74
(dp3182
g94
g95
ssg83
g3176
sg76
(lp3183
g388
asbag69
(g90
g71
NtRp3184
(dp3185
g74
(dp3186
g101
g102
ssg83
g3176
sg76
(lp3187
S':'
asbag69
(g90
g71
NtRp3188
(dp3189
g74
(dp3190
sg83
g3176
sg76
(lp3191
g69
(g70
g71
NtRp3192
(dp3193
g74
(dp3194
g82
I3
ssg83
g3188
sg76
(lp3195
S'/'
asbasbasbag69
(g85
g71
NtRp3196
(dp3197
g74
(dp3198
sg83
g3072
sg76
(lp3199
g69
(g90
g71
NtRp3200
(dp3201
g74
(dp3202
g94
g95
ssg83
g3196
sg76
(lp3203
g409
asbag69
(g90
g71
NtRp3204
(dp3205
g74
(dp3206
g101
g102
ssg83
g3196
sg76
(lp3207
S':'
asbag69
(g90
g71
NtRp3208
(dp3209
g74
(dp3210
sg83
g3196
sg76
(lp3211
g69
(g70
g71
NtRp3212
(dp3213
g74
(dp3214
g82
I3
ssg83
g3208
sg76
(lp3215
S''
asbasbasbag69
(g85
g71
NtRp3216
(dp3217
g74
(dp3218
sg83
g3072
sg76
(lp3219
g69
(g90
g71
NtRp3220
(dp3221
g74
(dp3222
g94
g95
ssg83
g3216
sg76
(lp3223
g430
asbag69
(g90
g71
NtRp3224
(dp3225
g74
(dp3226
g101
g102
ssg83
g3216
sg76
(lp3227
S':'
asbag69
(g90
g71
NtRp3228
(dp3229
g74
(dp3230
sg83
g3216
sg76
(lp3231
g69
(g70
g71
NtRp3232
(dp3233
g74
(dp3234
g82
I3
ssg83
g3228
sg76
(lp3235
S''
asbasbasbasbasbasbasbasbasbasbasbag69
(g85
g71
NtRp3236
(dp3237
g74
(dp3238
sg83
g3002
sg76
(lp3239
g69
(g90
g71
NtRp3240
(dp3241
g74
(dp3242
g94
g95
ssg83
g3236
sg76
(lp3243
S'delimiters'
p3244
asbag69
(g90
g71
NtRp3245
(dp3246
g74
(dp3247
g101
g102
ssg83
g3236
sg76
(lp3248
S':'
asbag69
(g90
g71
NtRp3249
(dp3250
g74
(dp3251
sg83
g3236
sg76
(lp3252
g69
(g70
g71
NtRp3253
(dp3254
g74
(dp3255
g82
I5
ssg83
g3249
sg76
(lp3256
g69
(g78
g71
NtRp3257
(dp3258
g74
(dp3259
g82
I4
ssg83
Nsg76
(lp3260
g69
(g85
g71
NtRp3261
(dp3262
g74
(dp3263
sg83
g3257
sg76
(lp3264
g69
(g90
g71
NtRp3265
(dp3266
g74
(dp3267
sg83
g3261
sg76
(lp3268
g69
(g70
g71
NtRp3269
(dp3270
g74
(dp3271
g82
I4
ssg83
g3265
sg76
(lp3272
S'{{'
p3273
asbasbasbag69
(g85
g71
NtRp3274
(dp3275
g74
(dp3276
sg83
g3257
sg76
(lp3277
g69
(g90
g71
NtRp3278
(dp3279
g74
(dp3280
sg83
g3274
sg76
(lp3281
g69
(g70
g71
NtRp3282
(dp3283
g74
(dp3284
g82
I4
ssg83
g3278
sg76
(lp3285
S'}}'
p3286
asbasbasbasbasbasbasbag69
(g85
g71
NtRp3287
(dp3288
g74
(dp3289
sg83
g3002
sg76
(lp3290
g69
(g90
g71
NtRp3291
(dp3292
g74
(dp3293
g94
g95
ssg83
g3287
sg76
(lp3294
S'files'
p3295
asbag69
(g90
g71
NtRp3296
(dp3297
g74
(dp3298
g101
g102
ssg83
g3287
sg76
(lp3299
S':'
asbag69
(g90
g71
NtRp3300
(dp3301
g74
(dp3302
sg83
g3287
sg76
(lp3303
g69
(g70
g71
NtRp3304
(dp3305
g74
(dp3306
g82
I5
ssg83
g3300
sg76
(lp3307
g69
(g78
g71
NtRp3308
(dp3309
g74
(dp3310
g82
I4
ssg83
Nsg76
(lp3311
sbasbasbasbag69
(g85
g71
NtRp3312
(dp3313
g74
(dp3314
sg83
g3002
sg76
(lp3315
g69
(g90
g71
NtRp3316
(dp3317
g74
(dp3318
g94
g95
ssg83
g3312
sg76
(lp3319
S'flash'
p3320
asbag69
(g90
g71
NtRp3321
(dp3322
g74
(dp3323
g101
g102
ssg83
g3312
sg76
(lp3324
S':'
asbag69
(g90
g71
NtRp3325
(dp3326
g74
(dp3327
sg83
g3312
sg76
(lp3328
g69
(g70
g71
NtRp3329
(dp3330
g74
(dp3331
g82
I5
ssg83
g3325
sg76
(lp3332
S''
asbasbasbag69
(g85
g71
NtRp3333
(dp3334
g74
(dp3335
sg83
g3002
sg76
(lp3336
g69
(g90
g71
NtRp3337
(dp3338
g74
(dp3339
g94
g95
ssg83
g3333
sg76
(lp3340
S'generic_patterns'
p3341
asbag69
(g90
g71
NtRp3342
(dp3343
g74
(dp3344
g101
g102
ssg83
g3333
sg76
(lp3345
S':'
asbag69
(g90
g71
NtRp3346
(dp3347
g74
(dp3348
sg83
g3333
sg76
(lp3349
g69
(g70
g71
NtRp3350
(dp3351
g74
(dp3352
g82
I5
ssg83
g3346
sg76
(lp3353
g69
(g78
g71
NtRp3354
(dp3355
g74
(dp3356
g82
I4
ssg83
Nsg76
(lp3357
g69
(g85
g71
NtRp3358
(dp3359
g74
(dp3360
sg83
g3354
sg76
(lp3361
g69
(g90
g71
NtRp3362
(dp3363
g74
(dp3364
sg83
g3358
sg76
(lp3365
g69
(g70
g71
NtRp3366
(dp3367
g74
(dp3368
g82
I4
ssg83
g3362
sg76
(lp3369
S'*'
asbasbasbasbasbasbasbag69
(g85
g71
NtRp3370
(dp3371
g74
(dp3372
sg83
g3002
sg76
(lp3373
g69
(g90
g71
NtRp3374
(dp3375
g74
(dp3376
g94
g95
ssg83
g3370
sg76
(lp3377
S'headers'
p3378
asbag69
(g90
g71
NtRp3379
(dp3380
g74
(dp3381
g101
g102
ssg83
g3370
sg76
(lp3382
S':'
asbag69
(g90
g71
NtRp3383
(dp3384
g74
(dp3385
sg83
g3370
sg76
(lp3386
g69
(g70
g71
NtRp3387
(dp3388
g74
(dp3389
g82
I5
ssg83
g3383
sg76
(lp3390
g69
(g78
g71
NtRp3391
(dp3392
g74
(dp3393
g82
I4
ssg83
Nsg76
(lp3394
g69
(g85
g71
NtRp3395
(dp3396
g74
(dp3397
sg83
g3391
sg76
(lp3398
g69
(g90
g71
NtRp3399
(dp3400
g74
(dp3401
g94
g95
ssg83
g3395
sg76
(lp3402
S'Cache-Control'
p3403
asbag69
(g90
g71
NtRp3404
(dp3405
g74
(dp3406
g101
g102
ssg83
g3395
sg76
(lp3407
S':'
asbag69
(g90
g71
NtRp3408
(dp3409
g74
(dp3410
sg83
g3395
sg76
(lp3411
g69
(g70
g71
NtRp3412
(dp3413
g74
(dp3414
g82
I4
ssg83
g3408
sg76
(lp3415
S'no-store, no-cache, must-revalidate, post-check=0, pre-check=0'
p3416
asbasbasbag69
(g85
g71
NtRp3417
(dp3418
g74
(dp3419
sg83
g3391
sg76
(lp3420
g69
(g90
g71
NtRp3421
(dp3422
g74
(dp3423
g94
g95
ssg83
g3417
sg76
(lp3424
S'Content-Type'
p3425
asbag69
(g90
g71
NtRp3426
(dp3427
g74
(dp3428
g101
g102
ssg83
g3417
sg76
(lp3429
S':'
asbag69
(g90
g71
NtRp3430
(dp3431
g74
(dp3432
sg83
g3417
sg76
(lp3433
g69
(g70
g71
NtRp3434
(dp3435
g74
(dp3436
g82
I4
ssg83
g3430
sg76
(lp3437
S'text/html; charset=utf-8'
p3438
asbasbasbag69
(g85
g71
NtRp3439
(dp3440
g74
(dp3441
sg83
g3391
sg76
(lp3442
g69
(g90
g71
NtRp3443
(dp3444
g74
(dp3445
g94
g95
ssg83
g3439
sg76
(lp3446
S'Expires'
p3447
asbag69
(g90
g71
NtRp3448
(dp3449
g74
(dp3450
g101
g102
ssg83
g3439
sg76
(lp3451
S':'
asbag69
(g90
g71
NtRp3452
(dp3453
g74
(dp3454
sg83
g3439
sg76
(lp3455
g69
(g70
g71
NtRp3456
(dp3457
g74
(dp3458
g82
I4
ssg83
g3452
sg76
(lp3459
S'Fri, 24 Aug 2012 09:42:49 GMT'
p3460
asbasbasbag69
(g85
g71
NtRp3461
(dp3462
g74
(dp3463
sg83
g3391
sg76
(lp3464
g69
(g90
g71
NtRp3465
(dp3466
g74
(dp3467
g94
g95
ssg83
g3461
sg76
(lp3468
S'Pragma'
p3469
asbag69
(g90
g71
NtRp3470
(dp3471
g74
(dp3472
g101
g102
ssg83
g3461
sg76
(lp3473
S':'
asbag69
(g90
g71
NtRp3474
(dp3475
g74
(dp3476
sg83
g3461
sg76
(lp3477
g69
(g70
g71
NtRp3478
(dp3479
g74
(dp3480
g82
I4
ssg83
g3474
sg76
(lp3481
S'no-cache'
p3482
asbasbasbag69
(g85
g71
NtRp3483
(dp3484
g74
(dp3485
sg83
g3391
sg76
(lp3486
g69
(g90
g71
NtRp3487
(dp3488
g74
(dp3489
g94
g95
ssg83
g3483
sg76
(lp3490
S'X-Powered-By'
p3491
asbag69
(g90
g71
NtRp3492
(dp3493
g74
(dp3494
g101
g102
ssg83
g3483
sg76
(lp3495
S':'
asbag69
(g90
g71
NtRp3496
(dp3497
g74
(dp3498
sg83
g3483
sg76
(lp3499
g69
(g70
g71
NtRp3500
(dp3501
g74
(dp3502
g82
I4
ssg83
g3496
sg76
(lp3503
S'web2py'
p3504
asbasbasbasbasbasbasbag69
(g85
g71
NtRp3505
(dp3506
g74
(dp3507
sg83
g3002
sg76
(lp3508
g69
(g90
g71
NtRp3509
(dp3510
g74
(dp3511
g94
g95
ssg83
g3505
sg76
(lp3512
S'menu'
p3513
asbag69
(g90
g71
NtRp3514
(dp3515
g74
(dp3516
g101
g102
ssg83
g3505
sg76
(lp3517
S':'
asbag69
(g90
g71
NtRp3518
(dp3519
g74
(dp3520
sg83
g3505
sg76
(lp3521
g69
(g70
g71
NtRp3522
(dp3523
g74
(dp3524
g82
I5
ssg83
g3518
sg76
(lp3525
g69
(g78
g71
NtRp3526
(dp3527
g74
(dp3528
g82
I4
ssg83
Nsg76
(lp3529
g69
(g85
g71
NtRp3530
(dp3531
g74
(dp3532
sg83
g3526
sg76
(lp3533
g69
(g90
g71
NtRp3534
(dp3535
g74
(dp3536
sg83
g3530
sg76
(lp3537
g69
(g70
g71
NtRp3538
(dp3539
g74
(dp3540
g82
I4
ssg83
g3534
sg76
(lp3541
g69
(g78
g71
NtRp3542
(dp3543
g74
(dp3544
g82
I3
ssg83
Nsg76
(lp3545
g69
(g85
g71
NtRp3546
(dp3547
g74
(dp3548
sg83
g3542
sg76
(lp3549
g69
(g90
g71
NtRp3550
(dp3551
g74
(dp3552
sg83
g3546
sg76
(lp3553
g69
(g70
g71
NtRp3554
(dp3555
g74
(dp3556
g82
I3
ssg83
g3550
sg76
(lp3557
cgluon.languages
lazyT_unpickle
p3558
(S't\x07\x00\x00\x00Accueil'
tRp3559
asbasbasbag69
(g85
g71
NtRp3560
(dp3561
g74
(dp3562
sg83
g3542
sg76
(lp3563
g69
(g90
g71
NtRp3564
(dp3565
g74
(dp3566
sg83
g3560
sg76
(lp3567
g69
(g70
g71
NtRp3568
(dp3569
g74
(dp3570
g82
I3
ssg83
g3564
sg76
(lp3571
g112
asbasbasbag69
(g85
g71
NtRp3572
(dp3573
g74
(dp3574
sg83
g3542
sg76
(lp3575
g69
(g90
g71
NtRp3576
(dp3577
g74
(dp3578
sg83
g3572
sg76
(lp3579
g69
(g70
g71
NtRp3580
(dp3581
g74
(dp3582
g82
I3
ssg83
g3576
sg76
(lp3583
S'/snapcop2/default/index'
p3584
asbasbasbag69
(g85
g71
NtRp3585
(dp3586
g74
(dp3587
sg83
g3542
sg76
(lp3588
g69
(g90
g71
NtRp3589
(dp3590
g74
(dp3591
sg83
g3585
sg76
(lp3592
g69
(g70
g71
NtRp3593
(dp3594
g74
(dp3595
g82
I3
ssg83
g3589
sg76
(lp3596
g69
(g78
g71
NtRp3597
(dp3598
g74
(dp3599
g82
I2
ssg83
Nsg76
(lp3600
sbasbasbasbasbasbasbasbag69
(g85
g71
NtRp3601
(dp3602
g74
(dp3603
sg83
g3526
sg76
(lp3604
g69
(g90
g71
NtRp3605
(dp3606
g74
(dp3607
sg83
g3601
sg76
(lp3608
g69
(g70
g71
NtRp3609
(dp3610
g74
(dp3611
g82
I4
ssg83
g3605
sg76
(lp3612
g69
(g78
g71
NtRp3613
(dp3614
g74
(dp3615
g82
I3
ssg83
Nsg76
(lp3616
g69
(g85
g71
NtRp3617
(dp3618
g74
(dp3619
sg83
g3613
sg76
(lp3620
g69
(g90
g71
NtRp3621
(dp3622
g74
(dp3623
sg83
g3617
sg76
(lp3624
g69
(g70
g71
NtRp3625
(dp3626
g74
(dp3627
g82
I3
ssg83
g3621
sg76
(lp3628
g69
(cgluon.html
SPAN
p3629
g71
NtRp3630
(dp3631
g74
(dp3632
g94
S'color:yellow'
p3633
ssg83
Nsg76
(lp3634
g3504
asbasbasbasbag69
(g85
g71
NtRp3635
(dp3636
g74
(dp3637
sg83
g3613
sg76
(lp3638
g69
(g90
g71
NtRp3639
(dp3640
g74
(dp3641
sg83
g3635
sg76
(lp3642
g69
(g70
g71
NtRp3643
(dp3644
g74
(dp3645
g82
I3
ssg83
g3639
sg76
(lp3646
g112
asbasbasbag69
(g85
g71
NtRp3647
(dp3648
g74
(dp3649
sg83
g3613
sg76
(lp3650
g69
(g90
g71
NtRp3651
(dp3652
g74
(dp3653
sg83
g3647
sg76
(lp3654
g69
(g70
g71
NtRp3655
(dp3656
g74
(dp3657
g82
I3
ssg83
g3651
sg76
(lp3658
S'None'
p3659
asbasbasbag69
(g85
g71
NtRp3660
(dp3661
g74
(dp3662
sg83
g3613
sg76
(lp3663
g69
(g90
g71
NtRp3664
(dp3665
g74
(dp3666
sg83
g3660
sg76
(lp3667
g69
(g70
g71
NtRp3668
(dp3669
g74
(dp3670
g82
I3
ssg83
g3664
sg76
(lp3671
g69
(g78
g71
NtRp3672
(dp3673
g74
(dp3674
g82
I2
ssg83
Nsg76
(lp3675
g69
(g85
g71
NtRp3676
(dp3677
g74
(dp3678
sg83
g3672
sg76
(lp3679
g69
(g90
g71
NtRp3680
(dp3681
g74
(dp3682
sg83
g3676
sg76
(lp3683
g69
(g70
g71
NtRp3684
(dp3685
g74
(dp3686
g82
I2
ssg83
g3680
sg76
(lp3687
g69
(g78
g71
NtRp3688
(dp3689
g74
(dp3690
g82
I1
ssg83
Nsg76
(lp3691
g69
(g85
g71
NtRp3692
(dp3693
g74
(dp3694
sg83
g3688
sg76
(lp3695
g69
(g90
g71
NtRp3696
(dp3697
g74
(dp3698
sg83
g3692
sg76
(lp3699
g69
(g70
g71
NtRp3700
(dp3701
g74
(dp3702
g82
I1
ssg83
g3696
sg76
(lp3703
g3558
(S's\x08\x00\x00\x00My Sites'
tRp3704
asbasbasbag69
(g85
g71
NtRp3705
(dp3706
g74
(dp3707
sg83
g3688
sg76
(lp3708
g69
(g90
g71
NtRp3709
(dp3710
g74
(dp3711
sg83
g3705
sg76
(lp3712
g69
(g70
g71
NtRp3713
(dp3714
g74
(dp3715
g82
I1
ssg83
g3709
sg76
(lp3716
I00
asbasbasbag69
(g85
g71
NtRp3717
(dp3718
g74
(dp3719
sg83
g3688
sg76
(lp3720
g69
(g90
g71
NtRp3721
(dp3722
g74
(dp3723
sg83
g3717
sg76
(lp3724
g69
(g70
g71
NtRp3725
(dp3726
g74
(dp3727
g82
I1
ssg83
g3721
sg76
(lp3728
S'/admin/default/site'
p3729
asbasbasbasbasbasbasbag69
(g85
g71
NtRp3730
(dp3731
g74
(dp3732
sg83
g3672
sg76
(lp3733
g69
(g90
g71
NtRp3734
(dp3735
g74
(dp3736
sg83
g3730
sg76
(lp3737
g69
(g70
g71
NtRp3738
(dp3739
g74
(dp3740
g82
I2
ssg83
g3734
sg76
(lp3741
g69
(g78
g71
NtRp3742
(dp3743
g74
(dp3744
g82
I1
ssg83
Nsg76
(lp3745
g69
(g85
g71
NtRp3746
(dp3747
g74
(dp3748
sg83
g3742
sg76
(lp3749
g69
(g90
g71
NtRp3750
(dp3751
g74
(dp3752
sg83
g3746
sg76
(lp3753
g69
(g70
g71
NtRp3754
(dp3755
g74
(dp3756
g82
I1
ssg83
g3750
sg76
(lp3757
g3558
(S's\x0b\x00\x00\x00Cette Appli'
tRp3758
asbasbasbag69
(g85
g71
NtRp3759
(dp3760
g74
(dp3761
sg83
g3742
sg76
(lp3762
g69
(g90
g71
NtRp3763
(dp3764
g74
(dp3765
sg83
g3759
sg76
(lp3766
g69
(g70
g71
NtRp3767
(dp3768
g74
(dp3769
g82
I1
ssg83
g3763
sg76
(lp3770
I00
asbasbasbag69
(g85
g71
NtRp3771
(dp3772
g74
(dp3773
sg83
g3742
sg76
(lp3774
g69
(g90
g71
NtRp3775
(dp3776
g74
(dp3777
sg83
g3771
sg76
(lp3778
g69
(g70
g71
NtRp3779
(dp3780
g74
(dp3781
g82
I1
ssg83
g3775
sg76
(lp3782
S'/admin/default/design/snapcop2'
p3783
asbasbasbag69
(g85
g71
NtRp3784
(dp3785
g74
(dp3786
sg83
g3742
sg76
(lp3787
g69
(g90
g71
NtRp3788
(dp3789
g74
(dp3790
sg83
g3784
sg76
(lp3791
g69
(g70
g71
NtRp3792
(dp3793
g74
(dp3794
g82
I1
ssg83
g3788
sg76
(lp3795
(lp3796
(g3558
(S's\x0b\x00\x00\x00Contr\xc3\xb4leur'
tRp3797
I00
S'/admin/default/edit/snapcop2/controllers/form.py'
tp3798
a(g3558
(S's\r\x00\x00\x00Pr\xc3\xa9sentation'
tRp3799
I00
S'/admin/default/edit/snapcop2/views/form/form.html'
tp3800
a(g3558
(S's\x0c\x00\x00\x00Mise en page'
tRp3801
I00
S'/admin/default/edit/snapcop2/views/layout.html'
tp3802
a(g3558
(S's\x10\x00\x00\x00Feuille de style'
tRp3803
I00
S'/admin/default/edit/snapcop2/static/css/web2py.css'
tp3804
a(g3558
(S's\n\x00\x00\x00Mod\xc3\xa8le DB'
tRp3805
I00
S'/admin/default/edit/snapcop2/models/db.py'
tp3806
a(g3558
(S's\x0c\x00\x00\x00Menu mod\xc3\xa8le'
tRp3807
I00
S'/admin/default/edit/snapcop2/models/menu.py'
tp3808
a(g3558
(S's\x10\x00\x00\x00Base de donn\xc3\xa9es'
tRp3809
I00
S'/snapcop2/appadmin/index'
tp3810
a(g3558
(S't\x07\x00\x00\x00Erreurs'
tRp3811
I00
S'/admin/default/errors/snapcop2'
tp3812
a(g3558
(S's\t\x00\x00\x00\xc3\x80 propos'
tRp3813
I00
S'/admin/default/about/snapcop2'
tp3814
aasbasbasbasbasbasbasbag69
(g85
g71
NtRp3815
(dp3816
g74
(dp3817
sg83
g3672
sg76
(lp3818
g69
(g90
g71
NtRp3819
(dp3820
g74
(dp3821
sg83
g3815
sg76
(lp3822
g69
(g70
g71
NtRp3823
(dp3824
g74
(dp3825
g82
I2
ssg83
g3819
sg76
(lp3826
g69
(g78
g71
NtRp3827
(dp3828
g74
(dp3829
g82
I1
ssg83
Nsg76
(lp3830
g69
(g85
g71
NtRp3831
(dp3832
g74
(dp3833
sg83
g3827
sg76
(lp3834
g69
(g90
g71
NtRp3835
(dp3836
g74
(dp3837
sg83
g3831
sg76
(lp3838
g69
(g70
g71
NtRp3839
(dp3840
g74
(dp3841
g82
I1
ssg83
g3835
sg76
(lp3842
S'web2py.com'
p3843
asbasbasbag69
(g85
g71
NtRp3844
(dp3845
g74
(dp3846
sg83
g3827
sg76
(lp3847
g69
(g90
g71
NtRp3848
(dp3849
g74
(dp3850
sg83
g3844
sg76
(lp3851
g69
(g70
g71
NtRp3852
(dp3853
g74
(dp3854
g82
I1
ssg83
g3848
sg76
(lp3855
I00
asbasbasbag69
(g85
g71
NtRp3856
(dp3857
g74
(dp3858
sg83
g3827
sg76
(lp3859
g69
(g90
g71
NtRp3860
(dp3861
g74
(dp3862
sg83
g3856
sg76
(lp3863
g69
(g70
g71
NtRp3864
(dp3865
g74
(dp3866
g82
I1
ssg83
g3860
sg76
(lp3867
S'http://www.web2py.com'
p3868
asbasbasbag69
(g85
g71
NtRp3869
(dp3870
g74
(dp3871
sg83
g3827
sg76
(lp3872
g69
(g90
g71
NtRp3873
(dp3874
g74
(dp3875
sg83
g3869
sg76
(lp3876
g69
(g70
g71
NtRp3877
(dp3878
g74
(dp3879
g82
I1
ssg83
g3873
sg76
(lp3880
(lp3881
(g3558
(S's\x10\x00\x00\x00T\xc3\xa9l\xc3\xa9chargement'
tRp3882
I00
S'http://www.web2py.com/examples/default/download'
p3883
tp3884
a(g3558
(S't\x07\x00\x00\x00Support'
tRp3885
I00
S'http://www.web2py.com/examples/default/support'
p3886
tp3887
a(g3558
(S's\x05\x00\x00\x00D\xc3\xa9mo'
tRp3888
I00
S'http://web2py.com/demo_admin'
p3889
tp3890
a(g3558
(S's\x10\x00\x00\x00Examples Rapides'
tRp3891
I00
S'http://web2py.com/examples/default/examples'
p3892
tp3893
a(g3558
(S't\x03\x00\x00\x00FAQ'
tRp3894
I00
S'http://web2py.com/AlterEgo'
p3895
tp3896
a(g3558
(S's\x07\x00\x00\x00Vid\xc3\xa9os'
tRp3897
I00
S'http://www.web2py.com/examples/default/videos/'
p3898
tp3899
a(g3558
(S's\x16\x00\x00\x00Applications gratuites'
tRp3900
I00
S'http://web2py.com/appliances'
p3901
tp3902
a(g3558
(S't\n\x00\x00\x00Plugiciels'
tRp3903
I00
S'http://web2py.com/plugins'
p3904
tp3905
a(g3558
(S't\x07\x00\x00\x00Layouts'
tRp3906
I00
S'http://web2py.com/layouts'
p3907
tp3908
a(g3558
(S't\x08\x00\x00\x00Recettes'
tRp3909
I00
S'http://web2pyslices.com/'
p3910
tp3911
a(g3558
(S's\x0b\x00\x00\x00S\xc3\xa9mantique'
tRp3912
I00
S'http://web2py.com/semantic'
p3913
tp3914
aasbasbasbasbasbasbasbag69
(g85
g71
NtRp3915
(dp3916
g74
(dp3917
sg83
g3672
sg76
(lp3918
g69
(g90
g71
NtRp3919
(dp3920
g74
(dp3921
sg83
g3915
sg76
(lp3922
g69
(g70
g71
NtRp3923
(dp3924
g74
(dp3925
g82
I2
ssg83
g3919
sg76
(lp3926
g69
(g78
g71
NtRp3927
(dp3928
g74
(dp3929
g82
I1
ssg83
Nsg76
(lp3930
g69
(g85
g71
NtRp3931
(dp3932
g74
(dp3933
sg83
g3927
sg76
(lp3934
g69
(g90
g71
NtRp3935
(dp3936
g74
(dp3937
sg83
g3931
sg76
(lp3938
g69
(g70
g71
NtRp3939
(dp3940
g74
(dp3941
g82
I1
ssg83
g3935
sg76
(lp3942
g3558
(S't\r\x00\x00\x00Documentation'
tRp3943
asbasbasbag69
(g85
g71
NtRp3944
(dp3945
g74
(dp3946
sg83
g3927
sg76
(lp3947
g69
(g90
g71
NtRp3948
(dp3949
g74
(dp3950
sg83
g3944
sg76
(lp3951
g69
(g70
g71
NtRp3952
(dp3953
g74
(dp3954
g82
I1
ssg83
g3948
sg76
(lp3955
I00
asbasbasbag69
(g85
g71
NtRp3956
(dp3957
g74
(dp3958
sg83
g3927
sg76
(lp3959
g69
(g90
g71
NtRp3960
(dp3961
g74
(dp3962
sg83
g3956
sg76
(lp3963
g69
(g70
g71
NtRp3964
(dp3965
g74
(dp3966
g82
I1
ssg83
g3960
sg76
(lp3967
S'http://www.web2py.com/book'
p3968
asbasbasbag69
(g85
g71
NtRp3969
(dp3970
g74
(dp3971
sg83
g3927
sg76
(lp3972
g69
(g90
g71
NtRp3973
(dp3974
g74
(dp3975
sg83
g3969
sg76
(lp3976
g69
(g70
g71
NtRp3977
(dp3978
g74
(dp3979
g82
I1
ssg83
g3973
sg76
(lp3980
(lp3981
(g3558
(S's\x08\x00\x00\x00Pr\xc3\xa9face'
tRp3982
I00
S'http://www.web2py.com/book/default/chapter/00'
p3983
tp3984
a(g3558
(S't\x0c\x00\x00\x00Introduction'
tRp3985
I00
S'http://www.web2py.com/book/default/chapter/01'
p3986
tp3987
a(g3558
(S't\x06\x00\x00\x00Python'
tRp3988
I00
S'http://www.web2py.com/book/default/chapter/02'
p3989
tp3990
a(g3558
(S's\r\x00\x00\x00Pr\xc3\xa9sentation'
tRp3991
I00
S'http://www.web2py.com/book/default/chapter/03'
p3992
tp3993
a(g3558
(S's\x08\x00\x00\x00Le noyau'
tRp3994
I00
S'http://www.web2py.com/book/default/chapter/04'
p3995
tp3996
a(g3558
(S's\x08\x00\x00\x00Les Vues'
tRp3997
I00
S'http://www.web2py.com/book/default/chapter/05'
p3998
tp3999
a(g3558
(S's\x10\x00\x00\x00Base de donn\xc3\xa9es'
tRp4000
I00
S'http://www.web2py.com/book/default/chapter/06'
p4001
tp4002
a(g3558
(S's\x1a\x00\x00\x00Formulaires et Validateurs'
tRp4003
I00
S'http://www.web2py.com/book/default/chapter/07'
p4004
tp4005
a(g3558
(S's\r\x00\x00\x00Email and SMS'
tRp4006
I00
S'http://www.web2py.com/book/default/chapter/08'
p4007
tp4008
a(g3558
(S"s\x12\x00\x00\x00Contr\xc3\xb4le d'acc\xc3\xa8s"
tRp4009
I00
S'http://www.web2py.com/book/default/chapter/09'
p4010
tp4011
a(g3558
(S't\x08\x00\x00\x00Services'
tRp4012
I00
S'http://www.web2py.com/book/default/chapter/10'
p4013
tp4014
a(g3558
(S's\r\x00\x00\x00Recettes Ajax'
tRp4015
I00
S'http://www.web2py.com/book/default/chapter/11'
p4016
tp4017
a(g3558
(S's\x16\x00\x00\x00Components and Plugins'
tRp4018
I00
S'http://www.web2py.com/book/default/chapter/12'
p4019
tp4020
a(g3558
(S's\x18\x00\x00\x00Recettes de d\xc3\xa9ploiement'
tRp4021
I00
S'http://www.web2py.com/book/default/chapter/13'
p4022
tp4023
a(g3558
(S's\x0f\x00\x00\x00Autres recettes'
tRp4024
I00
S'http://www.web2py.com/book/default/chapter/14'
p4025
tp4026
a(g3558
(S's\x10\x00\x00\x00Acheter ce livre'
tRp4027
I00
S'http://stores.lulu.com/web2py'
p4028
tp4029
aasbasbasbasbasbasbasbag69
(g85
g71
NtRp4030
(dp4031
g74
(dp4032
sg83
g3672
sg76
(lp4033
g69
(g90
g71
NtRp4034
(dp4035
g74
(dp4036
sg83
g4030
sg76
(lp4037
g69
(g70
g71
NtRp4038
(dp4039
g74
(dp4040
g82
I2
ssg83
g4034
sg76
(lp4041
g69
(g78
g71
NtRp4042
(dp4043
g74
(dp4044
g82
I1
ssg83
Nsg76
(lp4045
g69
(g85
g71
NtRp4046
(dp4047
g74
(dp4048
sg83
g4042
sg76
(lp4049
g69
(g90
g71
NtRp4050
(dp4051
g74
(dp4052
sg83
g4046
sg76
(lp4053
g69
(g70
g71
NtRp4054
(dp4055
g74
(dp4056
g82
I1
ssg83
g4050
sg76
(lp4057
g3558
(S's\x0b\x00\x00\x00Communaut\xc3\xa9'
tRp4058
asbasbasbag69
(g85
g71
NtRp4059
(dp4060
g74
(dp4061
sg83
g4042
sg76
(lp4062
g69
(g90
g71
NtRp4063
(dp4064
g74
(dp4065
sg83
g4059
sg76
(lp4066
g69
(g70
g71
NtRp4067
(dp4068
g74
(dp4069
g82
I1
ssg83
g4063
sg76
(lp4070
I00
asbasbasbag69
(g85
g71
NtRp4071
(dp4072
g74
(dp4073
sg83
g4042
sg76
(lp4074
g69
(g90
g71
NtRp4075
(dp4076
g74
(dp4077
sg83
g4071
sg76
(lp4078
g69
(g70
g71
NtRp4079
(dp4080
g74
(dp4081
g82
I1
ssg83
g4075
sg76
(lp4082
Nasbasbasbag69
(g85
g71
NtRp4083
(dp4084
g74
(dp4085
sg83
g4042
sg76
(lp4086
g69
(g90
g71
NtRp4087
(dp4088
g74
(dp4089
sg83
g4083
sg76
(lp4090
g69
(g70
g71
NtRp4091
(dp4092
g74
(dp4093
g82
I1
ssg83
g4087
sg76
(lp4094
(lp4095
(g3558
(S't\x06\x00\x00\x00Groups'
tRp4096
I00
S'http://www.web2py.com/examples/default/usergroups'
p4097
tp4098
a(g3558
(S't\x07\x00\x00\x00Twitter'
tRp4099
I00
S'http://twitter.com/web2py'
p4100
tp4101
a(g3558
(S's\t\x00\x00\x00Live Chat'
tRp4102
I00
S'http://webchat.freenode.net/?channels=web2py'
p4103
tp4104
aasbasbasbasbasbasbasbag69
(g85
g71
NtRp4105
(dp4106
g74
(dp4107
sg83
g3672
sg76
(lp4108
g69
(g90
g71
NtRp4109
(dp4110
g74
(dp4111
sg83
g4105
sg76
(lp4112
g69
(g70
g71
NtRp4113
(dp4114
g74
(dp4115
g82
I2
ssg83
g4109
sg76
(lp4116
g69
(g78
g71
NtRp4117
(dp4118
g74
(dp4119
g82
I1
ssg83
Nsg76
(lp4120
g69
(g85
g71
NtRp4121
(dp4122
g74
(dp4123
sg83
g4117
sg76
(lp4124
g69
(g90
g71
NtRp4125
(dp4126
g74
(dp4127
sg83
g4121
sg76
(lp4128
g69
(g70
g71
NtRp4129
(dp4130
g74
(dp4131
g82
I1
ssg83
g4125
sg76
(lp4132
g3558
(S't\n\x00\x00\x00Plugiciels'
tRp4133
asbasbasbag69
(g85
g71
NtRp4134
(dp4135
g74
(dp4136
sg83
g4117
sg76
(lp4137
g69
(g90
g71
NtRp4138
(dp4139
g74
(dp4140
sg83
g4134
sg76
(lp4141
g69
(g70
g71
NtRp4142
(dp4143
g74
(dp4144
g82
I1
ssg83
g4138
sg76
(lp4145
I00
asbasbasbag69
(g85
g71
NtRp4146
(dp4147
g74
(dp4148
sg83
g4117
sg76
(lp4149
g69
(g90
g71
NtRp4150
(dp4151
g74
(dp4152
sg83
g4146
sg76
(lp4153
g69
(g70
g71
NtRp4154
(dp4155
g74
(dp4156
g82
I1
ssg83
g4150
sg76
(lp4157
Nasbasbasbag69
(g85
g71
NtRp4158
(dp4159
g74
(dp4160
sg83
g4117
sg76
(lp4161
g69
(g90
g71
NtRp4162
(dp4163
g74
(dp4164
sg83
g4158
sg76
(lp4165
g69
(g70
g71
NtRp4166
(dp4167
g74
(dp4168
g82
I1
ssg83
g4162
sg76
(lp4169
(lp4170
(S'plugin_wiki'
p4171
I00
S'http://web2py.com/examples/default/download'
p4172
tp4173
a(g3558
(S's\r\x00\x00\x00Other Plugins'
tRp4174
I00
g3904
tp4175
a(g3558
(S's\x0e\x00\x00\x00Layout Plugins'
tRp4176
I00
g3907
tp4177
aasbasbasbasbasbasbasbasbasbasbasbasbasbasbasbasbasbasbasbag69
(g85
g71
NtRp4178
(dp4179
g74
(dp4180
sg83
g3002
sg76
(lp4181
g69
(g90
g71
NtRp4182
(dp4183
g74
(dp4184
g94
g95
ssg83
g4178
sg76
(lp4185
S'meta'
p4186
asbag69
(g90
g71
NtRp4187
(dp4188
g74
(dp4189
g101
g102
ssg83
g4178
sg76
(lp4190
S':'
asbag69
(g90
g71
NtRp4191
(dp4192
g74
(dp4193
sg83
g4178
sg76
(lp4194
g69
(g70
g71
NtRp4195
(dp4196
g74
(dp4197
g82
I5
ssg83
g4191
sg76
(lp4198
g69
(g78
g71
NtRp4199
(dp4200
g74
(dp4201
g82
I4
ssg83
Nsg76
(lp4202
g69
(g85
g71
NtRp4203
(dp4204
g74
(dp4205
sg83
g4199
sg76
(lp4206
g69
(g90
g71
NtRp4207
(dp4208
g74
(dp4209
g94
g95
ssg83
g4203
sg76
(lp4210
S'author'
p4211
asbag69
(g90
g71
NtRp4212
(dp4213
g74
(dp4214
g101
g102
ssg83
g4203
sg76
(lp4215
S':'
asbag69
(g90
g71
NtRp4216
(dp4217
g74
(dp4218
sg83
g4203
sg76
(lp4219
g69
(g70
g71
NtRp4220
(dp4221
g74
(dp4222
g82
I4
ssg83
g4216
sg76
(lp4223
S'Your Name <you@example.com>'
p4224
asbasbasbag69
(g85
g71
NtRp4225
(dp4226
g74
(dp4227
sg83
g4199
sg76
(lp4228
g69
(g90
g71
NtRp4229
(dp4230
g74
(dp4231
g94
g95
ssg83
g4225
sg76
(lp4232
S'copyright'
p4233
asbag69
(g90
g71
NtRp4234
(dp4235
g74
(dp4236
g101
g102
ssg83
g4225
sg76
(lp4237
S':'
asbag69
(g90
g71
NtRp4238
(dp4239
g74
(dp4240
sg83
g4225
sg76
(lp4241
g69
(g70
g71
NtRp4242
(dp4243
g74
(dp4244
g82
I4
ssg83
g4238
sg76
(lp4245
S'Copyright 2011'
p4246
asbasbasbag69
(g85
g71
NtRp4247
(dp4248
g74
(dp4249
sg83
g4199
sg76
(lp4250
g69
(g90
g71
NtRp4251
(dp4252
g74
(dp4253
g94
g95
ssg83
g4247
sg76
(lp4254
S'description'
p4255
asbag69
(g90
g71
NtRp4256
(dp4257
g74
(dp4258
g101
g102
ssg83
g4247
sg76
(lp4259
S':'
asbag69
(g90
g71
NtRp4260
(dp4261
g74
(dp4262
sg83
g4247
sg76
(lp4263
g69
(g70
g71
NtRp4264
(dp4265
g74
(dp4266
g82
I4
ssg83
g4260
sg76
(lp4267
S'a cool new app'
p4268
asbasbasbag69
(g85
g71
NtRp4269
(dp4270
g74
(dp4271
sg83
g4199
sg76
(lp4272
g69
(g90
g71
NtRp4273
(dp4274
g74
(dp4275
g94
g95
ssg83
g4269
sg76
(lp4276
S'generator'
p4277
asbag69
(g90
g71
NtRp4278
(dp4279
g74
(dp4280
g101
g102
ssg83
g4269
sg76
(lp4281
S':'
asbag69
(g90
g71
NtRp4282
(dp4283
g74
(dp4284
sg83
g4269
sg76
(lp4285
g69
(g70
g71
NtRp4286
(dp4287
g74
(dp4288
g82
I4
ssg83
g4282
sg76
(lp4289
S'Web2py Web Framework'
p4290
asbasbasbag69
(g85
g71
NtRp4291
(dp4292
g74
(dp4293
sg83
g4199
sg76
(lp4294
g69
(g90
g71
NtRp4295
(dp4296
g74
(dp4297
g94
g95
ssg83
g4291
sg76
(lp4298
S'keywords'
p4299
asbag69
(g90
g71
NtRp4300
(dp4301
g74
(dp4302
g101
g102
ssg83
g4291
sg76
(lp4303
S':'
asbag69
(g90
g71
NtRp4304
(dp4305
g74
(dp4306
sg83
g4291
sg76
(lp4307
g69
(g70
g71
NtRp4308
(dp4309
g74
(dp4310
g82
I4
ssg83
g4304
sg76
(lp4311
S'web2py, python, framework'
p4312
asbasbasbasbasbasbasbag69
(g85
g71
NtRp4313
(dp4314
g74
(dp4315
sg83
g3002
sg76
(lp4316
g69
(g90
g71
NtRp4317
(dp4318
g74
(dp4319
g94
g95
ssg83
g4313
sg76
(lp4320
S'postprocessing'
p4321
asbag69
(g90
g71
NtRp4322
(dp4323
g74
(dp4324
g101
g102
ssg83
g4313
sg76
(lp4325
S':'
asbag69
(g90
g71
NtRp4326
(dp4327
g74
(dp4328
sg83
g4313
sg76
(lp4329
g69
(g70
g71
NtRp4330
(dp4331
g74
(dp4332
g82
I5
ssg83
g4326
sg76
(lp4333
g69
(g78
g71
NtRp4334
(dp4335
g74
(dp4336
g82
I4
ssg83
Nsg76
(lp4337
sbasbasbasbag69
(g85
g71
NtRp4338
(dp4339
g74
(dp4340
sg83
g3002
sg76
(lp4341
g69
(g90
g71
NtRp4342
(dp4343
g74
(dp4344
g94
g95
ssg83
g4338
sg76
(lp4345
S'session_file'
p4346
asbag69
(g90
g71
NtRp4347
(dp4348
g74
(dp4349
g101
g102
ssg83
g4338
sg76
(lp4350
S':'
asbag69
(g90
g71
NtRp4351
(dp4352
g74
(dp4353
sg83
g4338
sg76
(lp4354
g69
(g70
g71
NtRp4355
(dp4356
g74
(dp4357
g82
I5
ssg83
g4351
sg76
(lp4358
S"<open file '/web2py/applications/snapcop2/sessions/127.0.0.1-0073d425-a119-4e19-84f5-89d928efdc66', mode 'rb+' at 0x7f49cc341930>"
p4359
asbasbasbag69
(g85
g71
NtRp4360
(dp4361
g74
(dp4362
sg83
g3002
sg76
(lp4363
g69
(g90
g71
NtRp4364
(dp4365
g74
(dp4366
g94
g95
ssg83
g4360
sg76
(lp4367
S'session_filename'
p4368
asbag69
(g90
g71
NtRp4369
(dp4370
g74
(dp4371
g101
g102
ssg83
g4360
sg76
(lp4372
S':'
asbag69
(g90
g71
NtRp4373
(dp4374
g74
(dp4375
sg83
g4360
sg76
(lp4376
g69
(g70
g71
NtRp4377
(dp4378
g74
(dp4379
g82
I5
ssg83
g4373
sg76
(lp4380
S'/web2py/applications/snapcop2/sessions/127.0.0.1-0073d425-a119-4e19-84f5-89d928efdc66'
p4381
asbasbasbag69
(g85
g71
NtRp4382
(dp4383
g74
(dp4384
sg83
g3002
sg76
(lp4385
g69
(g90
g71
NtRp4386
(dp4387
g74
(dp4388
g94
g95
ssg83
g4382
sg76
(lp4389
S'session_id'
p4390
asbag69
(g90
g71
NtRp4391
(dp4392
g74
(dp4393
g101
g102
ssg83
g4382
sg76
(lp4394
S':'
asbag69
(g90
g71
NtRp4395
(dp4396
g74
(dp4397
sg83
g4382
sg76
(lp4398
g69
(g70
g71
NtRp4399
(dp4400
g74
(dp4401
g82
I5
ssg83
g4395
sg76
(lp4402
S'127.0.0.1-0073d425-a119-4e19-84f5-89d928efdc66'
p4403
asbasbasbag69
(g85
g71
NtRp4404
(dp4405
g74
(dp4406
sg83
g3002
sg76
(lp4407
g69
(g90
g71
NtRp4408
(dp4409
g74
(dp4410
g94
g95
ssg83
g4404
sg76
(lp4411
S'session_id_name'
p4412
asbag69
(g90
g71
NtRp4413
(dp4414
g74
(dp4415
g101
g102
ssg83
g4404
sg76
(lp4416
S':'
asbag69
(g90
g71
NtRp4417
(dp4418
g74
(dp4419
sg83
g4404
sg76
(lp4420
g69
(g70
g71
NtRp4421
(dp4422
g74
(dp4423
g82
I5
ssg83
g4417
sg76
(lp4424
g3059
asbasbasbag69
(g85
g71
NtRp4425
(dp4426
g74
(dp4427
sg83
g3002
sg76
(lp4428
g69
(g90
g71
NtRp4429
(dp4430
g74
(dp4431
g94
g95
ssg83
g4425
sg76
(lp4432
S'session_locked'
p4433
asbag69
(g90
g71
NtRp4434
(dp4435
g74
(dp4436
g101
g102
ssg83
g4425
sg76
(lp4437
S':'
asbag69
(g90
g71
NtRp4438
(dp4439
g74
(dp4440
sg83
g4425
sg76
(lp4441
g69
(g70
g71
NtRp4442
(dp4443
g74
(dp4444
g82
I5
ssg83
g4438
sg76
(lp4445
g1646
asbasbasbag69
(g85
g71
NtRp4446
(dp4447
g74
(dp4448
sg83
g3002
sg76
(lp4449
g69
(g90
g71
NtRp4450
(dp4451
g74
(dp4452
g94
g95
ssg83
g4446
sg76
(lp4453
S'session_new'
p4454
asbag69
(g90
g71
NtRp4455
(dp4456
g74
(dp4457
g101
g102
ssg83
g4446
sg76
(lp4458
S':'
asbag69
(g90
g71
NtRp4459
(dp4460
g74
(dp4461
sg83
g4446
sg76
(lp4462
g69
(g70
g71
NtRp4463
(dp4464
g74
(dp4465
g82
I5
ssg83
g4459
sg76
(lp4466
g112
asbasbasbag69
(g85
g71
NtRp4467
(dp4468
g74
(dp4469
sg83
g3002
sg76
(lp4470
g69
(g90
g71
NtRp4471
(dp4472
g74
(dp4473
g94
g95
ssg83
g4467
sg76
(lp4474
S'status'
p4475
asbag69
(g90
g71
NtRp4476
(dp4477
g74
(dp4478
g101
g102
ssg83
g4467
sg76
(lp4479
S':'
asbag69
(g90
g71
NtRp4480
(dp4481
g74
(dp4482
sg83
g4467
sg76
(lp4483
g69
(g70
g71
NtRp4484
(dp4485
g74
(dp4486
g82
I5
ssg83
g4480
sg76
(lp4487
S'200'
p4488
asbasbasbag69
(g85
g71
NtRp4489
(dp4490
g74
(dp4491
sg83
g3002
sg76
(lp4492
g69
(g90
g71
NtRp4493
(dp4494
g74
(dp4495
g94
g95
ssg83
g4489
sg76
(lp4496
S'subtitle'
p4497
asbag69
(g90
g71
NtRp4498
(dp4499
g74
(dp4500
g101
g102
ssg83
g4489
sg76
(lp4501
S':'
asbag69
(g90
g71
NtRp4502
(dp4503
g74
(dp4504
sg83
g4489
sg76
(lp4505
g69
(g70
g71
NtRp4506
(dp4507
g74
(dp4508
g82
I5
ssg83
g4502
sg76
(lp4509
g3558
(S's\x12\x00\x00\x00personnalisez-moi!'
tRp4510
asbasbasbag69
(g85
g71
NtRp4511
(dp4512
g74
(dp4513
sg83
g3002
sg76
(lp4514
g69
(g90
g71
NtRp4515
(dp4516
g74
(dp4517
g94
g95
ssg83
g4511
sg76
(lp4518
S'title'
p4519
asbag69
(g90
g71
NtRp4520
(dp4521
g74
(dp4522
g101
g102
ssg83
g4511
sg76
(lp4523
S':'
asbag69
(g90
g71
NtRp4524
(dp4525
g74
(dp4526
sg83
g4511
sg76
(lp4527
g69
(g70
g71
NtRp4528
(dp4529
g74
(dp4530
g82
I5
ssg83
g4524
sg76
(lp4531
S'Snapcop2'
p4532
asbasbasbag69
(g85
g71
NtRp4533
(dp4534
g74
(dp4535
sg83
g3002
sg76
(lp4536
g69
(g90
g71
NtRp4537
(dp4538
g74
(dp4539
g94
g95
ssg83
g4533
sg76
(lp4540
g2310
asbag69
(g90
g71
NtRp4541
(dp4542
g74
(dp4543
g101
g102
ssg83
g4533
sg76
(lp4544
S':'
asbag69
(g90
g71
NtRp4545
(dp4546
g74
(dp4547
sg83
g4533
sg76
(lp4548
g69
(g70
g71
NtRp4549
(dp4550
g74
(dp4551
g82
I5
ssg83
g4545
sg76
(lp4552
g2323
asbasbasbag69
(g85
g71
NtRp4553
(dp4554
g74
(dp4555
sg83
g3002
sg76
(lp4556
g69
(g90
g71
NtRp4557
(dp4558
g74
(dp4559
g94
g95
ssg83
g4553
sg76
(lp4560
S'view'
p4561
asbag69
(g90
g71
NtRp4562
(dp4563
g74
(dp4564
g101
g102
ssg83
g4553
sg76
(lp4565
S':'
asbag69
(g90
g71
NtRp4566
(dp4567
g74
(dp4568
sg83
g4553
sg76
(lp4569
g69
(g70
g71
NtRp4570
(dp4571
g74
(dp4572
g82
I5
ssg83
g4566
sg76
(lp4573
S'form/form.html'
p4574
asbasbasbasbasbsS'locals'
p4575
(dp4576
g4
S"'/web2py/applications/snapcop2/controllers/form.py'"
p4577
sg6
S"'# -*- coding: utf-8 -*-\\n\\ndef form():\\n    form=FO...turn name\\n\\nresponse._vars=response._caller(form)\\n'"
p4578
sssS'traceback'
p4579
S'Traceback (most recent call last):\n  File "/web2py/gluon/restricted.py", line 204, in restricted\n    ccode = compile2(code,layer)\n  File "/web2py/gluon/restricted.py", line 189, in compile2\n    return compile(code.rstrip().replace(\'\\r\\n\',\'\\n\')+\'\\n\', layer, \'exec\')\n  File "/web2py/applications/snapcop2/controllers/form.py", line 16\n    name = print trim(request.form("souche"))\n               ^\nSyntaxError: invalid syntax\n'
p4580
s.